 VoiceChannel

 Timestamp is 64a3d324 (Tue Jul  4 17:07:00 2023)

 Preferred load address is 00400000

 Start         Length     Name                   Class
 0001:00000000 00000cd0H .text$di                CODE
 0001:00000cd0 0017c3a0H .text$mn                CODE
 0001:0017d070 00000010H .text$mn$00             CODE
 0001:0017d080 0000f7d0H .text$x                 CODE
 0001:0018c850 00000631H .text$yd                CODE
 0002:00000000 00000a2cH .idata$5                DATA
 0002:00000a2c 00000008H .00cfg                  DATA
 0002:00000a34 00000004H .CRT$XCA                DATA
 0002:00000a38 00000004H .CRT$XCAA               DATA
 0002:00000a3c 00000008H .CRT$XCC                DATA
 0002:00000a44 00000018H .CRT$XCL                DATA
 0002:00000a5c 000002b4H .CRT$XCU                DATA
 0002:00000d10 00000004H .CRT$XCZ                DATA
 0002:00000d14 00000004H .CRT$XIA                DATA
 0002:00000d18 00000004H .CRT$XIAA               DATA
 0002:00000d1c 00000004H .CRT$XIAC               DATA
 0002:00000d20 0000001cH .CRT$XIC                DATA
 0002:00000d3c 00000004H .CRT$XIZ                DATA
 0002:00000d40 00000004H .CRT$XLA                DATA
 0002:00000d44 00000004H .CRT$XLZ                DATA
 0002:00000d48 00000004H .CRT$XPA                DATA
 0002:00000d4c 00000008H .CRT$XPX                DATA
 0002:00000d54 00000004H .CRT$XPXA               DATA
 0002:00000d58 00000004H .CRT$XPZ                DATA
 0002:00000d5c 00000004H .CRT$XTA                DATA
 0002:00000d60 00000010H .CRT$XTZ                DATA
 0002:00000d64 00000000H .gfids$y                DATA
 0002:00000d64 00000000H .giats$y                DATA
 0002:00000d70 00036350H .rdata                  DATA
 0002:000370c0 00000000H .rdata$CastGuardVftablesA DATA
 0002:000370c0 00000000H .rdata$CastGuardVftablesC DATA
 0002:000370c0 00000018H .rdata$T                DATA
 0002:000370d8 00009adcH .rdata$r                DATA
 0002:00040bb4 00000e78H .rdata$sxdata           DATA
 0002:00041a2c 000002e4H .rdata$voltmd           DATA
 0002:00041d10 00000450H .rdata$zzzdbg           DATA
 0002:00042160 00000004H .rtc$IAA                DATA
 0002:00042164 00000004H .rtc$IZZ                DATA
 0002:00042168 00000004H .rtc$TAA                DATA
 0002:0004216c 00000004H .rtc$TZZ                DATA
 0002:00042170 00000004H .tls                    DATA
 0002:00042174 00000004H .tls$                   DATA
 0002:00042178 00000008H .tls$ZZZ                DATA
 0002:00042180 0000fa3cH .xdata$x                DATA
 0002:00051bbc 00000000H ATL$__a                 DATA
 0002:00051bbc 00000000H ATL$__z                 DATA
 0002:00051bbc 00000000H .edata                  DATA
 0002:00051bbc 0000017cH .idata$2                DATA
 0002:00051d38 00000014H .idata$3                DATA
 0002:00051d4c 00000a2cH .idata$4                DATA
 0002:00052778 00002b74H .idata$6                DATA
 0003:00000000 00001a50H .data                   DATA
 0003:00001a50 00000258H .data$r                 DATA
 0003:00001ca8 00004450H .data$rs                DATA
 0003:000060f8 00004c8cH .bss                    DATA
 0004:00000000 00001020H .rsrc$01                DATA
 0004:00001020 0000a368H .rsrc$02                DATA

  Address         Publics by Value              Rva+Base       Lib:Object

 0000:00000000       ___AbsoluteZero            00000000     <absolute>
 0000:00000000       ___arm64x_extra_rfe_table  00000000     <absolute>
 0000:00000000       ___arm64x_extra_rfe_table_size 00000000     <absolute>
 0000:00000000       ___arm64x_native_entrypoint 00000000     <absolute>
 0000:00000000       ___arm64x_redirection_metadata 00000000     <absolute>
 0000:00000000       ___arm64x_redirection_metadata_count 00000000     <absolute>
 0000:00000000       ___dynamic_value_reloc_table 00000000     <absolute>
 0000:00000000       ___enclave_config          00000000     <absolute>
 0000:00000000       ___guard_check_icall_a64n_fptr 00000000     <absolute>
 0000:00000000       ___guard_eh_cont_count     00000000     <absolute>
 0000:00000000       ___guard_eh_cont_table     00000000     <absolute>
 0000:00000000       ___guard_fids_count        00000000     <absolute>
 0000:00000000       ___guard_fids_table        00000000     <absolute>
 0000:00000000       ___guard_iat_count         00000000     <absolute>
 0000:00000000       ___guard_iat_table         00000000     <absolute>
 0000:00000000       ___guard_longjmp_count     00000000     <absolute>
 0000:00000000       ___guard_longjmp_table     00000000     <absolute>
 0000:00000000       ___hybrid_auxiliary_iat    00000000     <absolute>
 0000:00000000       ___hybrid_auxiliary_iat_copy 00000000     <absolute>
 0000:00000000       ___hybrid_code_map         00000000     <absolute>
 0000:00000000       ___hybrid_code_map_count   00000000     <absolute>
 0000:00000000       ___x64_code_ranges_to_entry_points 00000000     <absolute>
 0000:00000000       ___x64_code_ranges_to_entry_points_count 00000000     <absolute>
 0000:00000000       __except_list              00000000     <absolute>
 0000:0000002c       __tls_array                0000002c     <absolute>
 0000:00000100       ___guard_flags             00000100     <absolute>
 0000:0000039e       ___safe_se_handler_count   0000039e     <absolute>
 0000:00000000       ___ImageBase               00400000     <linker-defined>
 0001:00000cd0       ??0?$CSimpleStringT@D$0A@@ATL@@QAE@PAUIAtlStringMgr@1@@Z 00401cd0 f i DlgIPSet.obj
 0001:00000cd0       ??0?$CSimpleStringT@_W$0A@@ATL@@QAE@PAUIAtlStringMgr@1@@Z 00401cd0 f i DlgFindRider.obj
 0001:00000d40       ??0?$CStringT@_WV?$StrTraitMFC@_WV?$ChTraitsCRT@_W@ATL@@@@@ATL@@QAE@PB_W@Z 00401d40 f i DlgFindRider.obj
 0001:00000de0       ??0CDlgFindRider@@QAE@PAVCWnd@@@Z 00401de0 f   DlgFindRider.obj
 0001:00000e70       ??1?$CSimpleStringT@D$0A@@ATL@@QAE@XZ 00401e70 f i DlgIPSet.obj
 0001:00000e70       ??1?$CSimpleStringT@_W$0A@@ATL@@QAE@XZ 00401e70 f i DlgFindRider.obj
 0001:00000e70       ??1?$CStringT@DV?$StrTraitMFC@DV?$ChTraitsCRT@D@ATL@@@@@ATL@@QAE@XZ 00401e70 f i DlgIPSet.obj
 0001:00000e70       ??1?$CStringT@_WV?$StrTraitMFC@_WV?$ChTraitsCRT@_W@ATL@@@@@ATL@@QAE@XZ 00401e70 f i DlgFindRider.obj
 0001:00000e90       ??1CDlgFindRider@@UAE@XZ   00401e90 f   DlgFindRider.obj
 0001:00000ee0       ??_ECDlgFindRider@@UAEPAXI@Z 00401ee0 f i DlgFindRider.obj
 0001:00000ee0       ??_GCDlgFindRider@@UAEPAXI@Z 00401ee0 f i DlgFindRider.obj
 0001:00000f30       ?AtlGetStringResourceImage@ATL@@YAPBUATLSTRINGRESOURCEIMAGE@1@PAUHINSTANCE__@@I@Z 00401f30 f i DlgFindRider.obj
 0001:00000f80       ?AtlThrowImpl@ATL@@YGXJ@Z  00401f80 f i DlgFindRider.obj
 0001:00000fa0       ?BeginModalState@CWnd@@UAEXXZ 00401fa0 f i DlgFindRider.obj
 0001:00000fc0       ?CheckImplicitLoad@?$CStringT@_WV?$StrTraitMFC@_WV?$ChTraitsCRT@_W@ATL@@@@@ATL@@AAE_NPBX@Z 00401fc0 f i DlgFindRider.obj
 0001:00001030       ?ConvertToBaseType@?$ChTraitsCRT@_W@ATL@@SAXPA_WHPB_WH@Z 00402030 f i DlgFindRider.obj
 0001:00001120       ?Create@CDialog@@UAEHIPAVCWnd@@@Z 00402120 f i DlgFindRider.obj
 0001:00001140       ?DoDataExchange@CDlgFindRider@@MAEXPAVCDataExchange@@@Z 00402140 f   DlgFindRider.obj
 0001:00001180       ?Empty@?$CSimpleStringT@_W$0A@@ATL@@QAEXXZ 00402180 f i DlgFindRider.obj
 0001:00001200       ?EndModalState@CWnd@@UAEXXZ 00402200 f i DlgFindRider.obj
 0001:00001220       ?Fork@?$CSimpleStringT@_W$0A@@ATL@@AAEXH@Z 00402220 f i DlgFindRider.obj
 0001:000012e0       ?GetMessageMap@CDlgFindRider@@MBEPBUAFX_MSGMAP@@XZ 004022e0 f   DlgFindRider.obj
 0001:000012f0       ?GetRuntimeClass@CDlgFindRider@@UBEPAUCRuntimeClass@@XZ 004022f0 f   DlgFindRider.obj
 0001:00001300       ?GetThisMessageMap@CDlgFindRider@@KGPBUAFX_MSGMAP@@XZ 00402300 f   DlgFindRider.obj
 0001:00001310       ?LoadStringW@?$CStringT@_WV?$StrTraitMFC@_WV?$ChTraitsCRT@_W@ATL@@@@@ATL@@QAEHPAUHINSTANCE__@@I@Z 00402310 f i DlgFindRider.obj
 0001:00001390       ?PrepareWrite2@?$CSimpleStringT@_W$0A@@ATL@@AAEXH@Z 00402390 f i DlgFindRider.obj
 0001:00001440       ?PrepareWrite@?$CSimpleStringT@_W$0A@@ATL@@AAEPA_WH@Z 00402440 f i DlgFindRider.obj
 0001:000014a0       ?Reallocate@?$CSimpleStringT@_W$0A@@ATL@@AAEXH@Z 004024a0 f i DlgFindRider.obj
 0001:00001510       ?Release@CStringData@ATL@@QAEXXZ 00402510 f i DlgFindRider.obj
 0001:00001550       ?DoDataExchange@CAboutDlg@@MAEXPAVCDataExchange@@@Z 00402550 f i VServer.obj
 0001:00001550       ?DoDataExchange@CWnd@@MAEXPAVCDataExchange@@@Z 00402550 f i DlgIPSet.obj
 0001:00001550       ?Serialize@CObject@@UAEXAAVCArchive@@@Z 00402550 f i DlgFindRider.obj
 0001:00001560       ?SetLength@?$CSimpleStringT@_W$0A@@ATL@@AAEXH@Z 00402560 f i DlgFindRider.obj
 0001:000015b0       ?SetString@?$CSimpleStringT@_W$0A@@ATL@@QAEXPB_WH@Z 004025b0 f i DlgFindRider.obj
 0001:00001680       ?ThrowMemoryException@?$CSimpleStringT@D$0A@@ATL@@KAXXZ 00402680 f i DlgIPSet.obj
 0001:00001680       ?ThrowMemoryException@?$CSimpleStringT@_W$0A@@ATL@@KAXXZ 00402680 f i DlgFindRider.obj
 0001:00001690       ?_AtlGetStringResourceImage@ATL@@YAPBUATLSTRINGRESOURCEIMAGE@1@PAUHINSTANCE__@@PAUHRSRC__@@I@Z 00402690 f i DlgFindRider.obj
 0001:00001740       ?__empty_global_delete@@YAXPAXI@Z 00402740 f i DlgFindRider.obj
 0001:00001740       ?__global_delete@@YAXPAXI@Z 00402740 f i DlgFindRider.obj
 0001:00001940       ??0?$CStringT@DV?$StrTraitMFC@DV?$ChTraitsCRT@D@ATL@@@@@ATL@@QAE@PB_W@Z 00402940 f i DlgIPSet.obj
 0001:000019c0       ??0?$CStringT@_WV?$StrTraitMFC@_WV?$ChTraitsCRT@_W@ATL@@@@@ATL@@QAE@PB_WPAUIAtlStringMgr@1@@Z 004029c0 f i DlgIPSet.obj
 0001:00001a60       ??0CDlgIPSet@@QAE@PAVCWnd@@@Z 00402a60 f   DlgIPSet.obj
 0001:00001b40       ??1CDlgIPSet@@UAE@XZ       00402b40 f   DlgIPSet.obj
 0001:00001bb0       ??4?$CSimpleStringT@D$0A@@ATL@@QAEAAV01@ABV01@@Z 00402bb0 f i DlgIPSet.obj
 0001:00001c60       ??4?$CSimpleStringT@_W$0A@@ATL@@QAEAAV01@ABV01@@Z 00402c60 f i DlgIPSet.obj
 0001:00001d10       ??4?$CStringT@DV?$StrTraitMFC@DV?$ChTraitsCRT@D@ATL@@@@@ATL@@QAEAAV01@PB_W@Z 00402d10 f i DlgIPSet.obj
 0001:00001da0       ??_ECDlgIPSet@@UAEPAXI@Z   00402da0 f i DlgIPSet.obj
 0001:00001da0       ??_GCDlgIPSet@@UAEPAXI@Z   00402da0 f i DlgIPSet.obj
 0001:00001df0       ??_ECIPAddressCtrl@@UAEPAXI@Z 00402df0 f i DlgIPSet.obj
 0001:00001df0       ??_GCIPAddressCtrl@@UAEPAXI@Z 00402df0 f i DlgIPSet.obj
 0001:00001e40       ?CheckImplicitLoad@?$CStringT@DV?$StrTraitMFC@DV?$ChTraitsCRT@D@ATL@@@@@ATL@@AAE_NPBX@Z 00402e40 f i DlgIPSet.obj
 0001:00001eb0       ?CloneData@?$CSimpleStringT@D$0A@@ATL@@CAPAUCStringData@2@PAU32@@Z 00402eb0 f i DlgIPSet.obj
 0001:00001f70       ?CloneData@?$CSimpleStringT@_W$0A@@ATL@@CAPAUCStringData@2@PAU32@@Z 00402f70 f i DlgIPSet.obj
 0001:00002030       ?DoDataExchange@CDlgIPSet@@MAEXPAVCDataExchange@@@Z 00403030 f   DlgIPSet.obj
 0001:00002070       ?Empty@?$CSimpleStringT@D$0A@@ATL@@QAEXXZ 00403070 f i DlgIPSet.obj
 0001:000020f0       ?Fork@?$CSimpleStringT@D$0A@@ATL@@AAEXH@Z 004030f0 f i DlgIPSet.obj
 0001:000021a0       ?Format@?$CStringT@_WV?$StrTraitMFC@_WV?$ChTraitsCRT@_W@ATL@@@@@ATL@@QAAXPB_WZZ 004031a0 f i DlgIPSet.obj
 0001:000021d0       ?FormatV@?$CStringT@_WV?$StrTraitMFC@_WV?$ChTraitsCRT@_W@ATL@@@@@ATL@@QAEXPB_WPAD@Z 004031d0 f i DlgIPSet.obj
 0001:000022e0       ?GetFormattedLength@?$ChTraitsCRT@_W@ATL@@SAHPB_WPAD@Z 004032e0 f i DlgIPSet.obj
 0001:00002330       ?GetManager@?$CStringT@_WV?$StrTraitMFC@_WV?$ChTraitsCRT@_W@ATL@@@@@ATL@@QBEPAUIAtlStringMgr@2@XZ 00403330 f i DlgIPSet.obj
 0001:00002390       ?GetMessageMap@CDlgIPSet@@MBEPBUAFX_MSGMAP@@XZ 00403390 f   DlgIPSet.obj
 0001:000023a0       ?GetRuntimeClass@CDlgIPSet@@UBEPAUCRuntimeClass@@XZ 004033a0 f   DlgIPSet.obj
 0001:000023b0       ?GetThisMessageMap@CDlgIPSet@@KGPBUAFX_MSGMAP@@XZ 004033b0 f   DlgIPSet.obj
 0001:000023c0       ?LoadStringW@?$CStringT@DV?$StrTraitMFC@DV?$ChTraitsCRT@D@ATL@@@@@ATL@@QAEHPAUHINSTANCE__@@I@Z 004033c0 f i DlgIPSet.obj
 0001:00002460       ?OnBnClickedCancel@CDlgIPSet@@QAEXXZ 00403460 f   DlgIPSet.obj
 0001:00002480       ?OnBnClickedOk@CDlgIPSet@@QAEXXZ 00403480 f   DlgIPSet.obj
 0001:000026f0       ?OnInitDialog@CDlgIPSet@@UAEHXZ 004036f0 f   DlgIPSet.obj
 0001:00002970       ?PrepareWrite2@?$CSimpleStringT@D$0A@@ATL@@AAEXH@Z 00403970 f i DlgIPSet.obj
 0001:00002a20       ?PrepareWrite@?$CSimpleStringT@D$0A@@ATL@@AAEPADH@Z 00403a20 f i DlgIPSet.obj
 0001:00002a80       ?Reallocate@?$CSimpleStringT@D$0A@@ATL@@AAEXH@Z 00403a80 f i DlgIPSet.obj
 0001:00002af0       ?SetLength@?$CSimpleStringT@D$0A@@ATL@@AAEXH@Z 00403af0 f i DlgIPSet.obj
 0001:00002b40       ?SetString@?$CSimpleStringT@D$0A@@ATL@@QAEXPBDH@Z 00403b40 f i DlgIPSet.obj
 0001:00002c10       ___local_stdio_printf_options 00403c10 f i DlgIPSet.obj
 0001:00002c20       ??0CMainFrame@@IAE@XZ      00403c20 f   MainFrm.obj
 0001:00002ca0       ??1CMainFrame@@UAE@XZ      00403ca0 f   MainFrm.obj
 0001:00002ce0       ??3CObject@@SGXPAX@Z       00403ce0 f i MainFrm.obj
 0001:00002d00       ??_ECMainFrame@@UAEPAXI@Z  00403d00 f i MainFrm.obj
 0001:00002d00       ??_GCMainFrame@@UAEPAXI@Z  00403d00 f i MainFrm.obj
 0001:00002d50       ?CreateObject@CMainFrame@@SGPAVCObject@@XZ 00403d50 f   MainFrm.obj
 0001:00002dd0       ?GetMessageMap@CMainFrame@@MBEPBUAFX_MSGMAP@@XZ 00403dd0 f   MainFrm.obj
 0001:00002de0       ?GetRuntimeClass@CMainFrame@@UBEPAUCRuntimeClass@@XZ 00403de0 f   MainFrm.obj
 0001:00002df0       ?GetThisMessageMap@CMainFrame@@KGPBUAFX_MSGMAP@@XZ 00403df0 f   MainFrm.obj
 0001:00002e00       ?GetTrackingID@CFrameWnd@@UAEIXZ 00403e00 f i MainFrm.obj
 0001:00002e20       ?OnCreate@CMainFrame@@IAEHPAUtagCREATESTRUCTW@@@Z 00403e20 f   MainFrm.obj
 0001:00002f90       ?PreCreateWindow@CMainFrame@@UAEHAAUtagCREATESTRUCTW@@@Z 00403f90 f   MainFrm.obj
 0001:00002fc0       ??$?0K@?$_Tree_temp_node@V?$allocator@U?$_Tree_node@KPAX@std@@@std@@@std@@QAE@AAV?$allocator@U?$_Tree_node@KPAX@std@@@1@PAU?$_Tree_node@KPAX@1@$$QAK@Z 00403fc0 f i QBuffer.obj
 0001:00003110       ??$_Alloc_proxy@V?$allocator@U_Container_proxy@std@@@std@@@_Container_base12@std@@QAEX$$QAV?$allocator@U_Container_proxy@std@@@1@@Z 00404110 f i QBuffer.obj
 0001:00003180       ??$_Allocate_manually_vector_aligned@U_Default_allocate_traits@std@@@std@@YAPAXI@Z 00404180 f i QBuffer.obj
 0001:000031f0       ??$_Buyheadnode@V?$allocator@U?$_Tree_node@HPAX@std@@@std@@@?$_Tree_node@HPAX@std@@SAPAU01@AAV?$allocator@U?$_Tree_node@HPAX@std@@@1@@Z 004041f0 f i QBuffer.obj
 0001:000031f0       ??$_Buyheadnode@V?$allocator@U?$_Tree_node@KPAX@std@@@std@@@?$_Tree_node@KPAX@std@@SAPAU01@AAV?$allocator@U?$_Tree_node@KPAX@std@@@1@@Z 004041f0 f i QBuffer.obj
 0001:000032a0       ??$_Copy_memmove@PAPAPADPAPAPAD@std@@YAPAPAPADPAPAPAD00@Z 004042a0 f i QBuffer.obj
 0001:000032a0       ??$_Copy_memmove@PAPAPAVCClient@@PAPAPAV1@@std@@YAPAPAPAVCClient@@PAPAPAV1@00@Z 004042a0 f i QBuffer.obj
 0001:000032a0       ??$_Copy_memmove@PAPAPAVCQBuffer@@PAPAPAV1@@std@@YAPAPAPAVCQBuffer@@PAPAPAV1@00@Z 004042a0 f i QBuffer.obj
 0001:000032a0       ??$_Copy_memmove@PAPAPAVCQUdpSendOver@@PAPAPAV1@@std@@YAPAPAPAVCQUdpSendOver@@PAPAPAV1@00@Z 004042a0 f i QBuffer.obj
 0001:00003300       ??$_Emplace@K@?$_Tree@V?$_Tset_traits@KU?$less@K@std@@V?$allocator@K@2@$0A@@std@@@std@@IAE?AU?$pair@PAU?$_Tree_node@KPAX@std@@_N@1@$$QAK@Z 00404300 f i QBuffer.obj
 0001:00003480       ??$_Emplace_back_internal@ABQAD@?$deque@PADV?$allocator@PAD@std@@@std@@AAEXABQAD@Z 00404480 f i QBuffer.obj
 0001:00003480       ??$_Emplace_back_internal@PAVCClient@@@?$deque@PAVCClient@@V?$allocator@PAVCClient@@@std@@@std@@AAEX$$QAPAVCClient@@@Z 00404480 f i QBuffer.obj
 0001:00003480       ??$_Emplace_back_internal@PAVCQBuffer@@@?$deque@PAVCQBuffer@@V?$allocator@PAVCQBuffer@@@std@@@std@@AAEX$$QAPAVCQBuffer@@@Z 00404480 f i QBuffer.obj
 0001:00003480       ??$_Emplace_back_internal@PAVCQUdpSendOver@@@?$deque@PAVCQUdpSendOver@@V?$allocator@PAVCQUdpSendOver@@@std@@@std@@AAEX$$QAPAVCQUdpSendOver@@@Z 00404480 f i QBuffer.obj
 0001:00003660       ??$_Erase_head@V?$allocator@U?$_Tree_node@HPAX@std@@@std@@@?$_Tree_val@U?$_Tree_simple_types@H@std@@@std@@QAEXAAV?$allocator@U?$_Tree_node@HPAX@std@@@1@@Z 00404660 f i QBuffer.obj
 0001:00003660       ??$_Erase_head@V?$allocator@U?$_Tree_node@KPAX@std@@@std@@@?$_Tree_val@U?$_Tree_simple_types@K@std@@@std@@QAEXAAV?$allocator@U?$_Tree_node@KPAX@std@@@1@@Z 00404660 f i QBuffer.obj
 0001:00003710       ??$_Erase_tree@V?$allocator@U?$_Tree_node@HPAX@std@@@std@@@?$_Tree_val@U?$_Tree_simple_types@H@std@@@std@@QAEXAAV?$allocator@U?$_Tree_node@HPAX@std@@@1@PAU?$_Tree_node@HPAX@1@@Z 00404710 f i QBuffer.obj
 0001:00003710       ??$_Erase_tree@V?$allocator@U?$_Tree_node@KPAX@std@@@std@@@?$_Tree_val@U?$_Tree_simple_types@K@std@@@std@@QAEXAAV?$allocator@U?$_Tree_node@KPAX@std@@@1@PAU?$_Tree_node@KPAX@1@@Z 00404710 f i QBuffer.obj
 0001:000037e0       ??$_Find_lower_bound@K@?$_Tree@V?$_Tset_traits@KU?$less@K@std@@V?$allocator@K@2@$0A@@std@@@std@@IBE?AU?$_Tree_find_result@PAU?$_Tree_node@KPAX@std@@@1@ABK@Z 004047e0 f i QBuffer.obj
 0001:000038b0       ??$_Uninitialized_copy_unchecked@PAPAPADPAPAPAD@std@@YAPAPAPADPAPAPADQAPAPAD0@Z 004048b0 f i QBuffer.obj
 0001:000038b0       ??$_Uninitialized_copy_unchecked@PAPAPAVCClient@@PAPAPAV1@@std@@YAPAPAPAVCClient@@PAPAPAV1@QAPAPAV1@0@Z 004048b0 f i QBuffer.obj
 0001:000038b0       ??$_Uninitialized_copy_unchecked@PAPAPAVCQBuffer@@PAPAPAV1@@std@@YAPAPAPAVCQBuffer@@PAPAPAV1@QAPAPAV1@0@Z 004048b0 f i QBuffer.obj
 0001:000038b0       ??$_Uninitialized_copy_unchecked@PAPAPAVCQUdpSendOver@@PAPAPAV1@@std@@YAPAPAPAVCQUdpSendOver@@PAPAPAV1@QAPAPAV1@0@Z 004048b0 f i QBuffer.obj
 0001:00003950       ??$_Uninitialized_value_construct_n_unchecked1@PAPAPADI@std@@YAPAPAPADPAPAPADI@Z 00404950 f i QBuffer.obj
 0001:00003950       ??$_Uninitialized_value_construct_n_unchecked1@PAPAPAVCClient@@I@std@@YAPAPAPAVCClient@@PAPAPAV1@I@Z 00404950 f i QBuffer.obj
 0001:00003950       ??$_Uninitialized_value_construct_n_unchecked1@PAPAPAVCQBuffer@@I@std@@YAPAPAPAVCQBuffer@@PAPAPAV1@I@Z 00404950 f i QBuffer.obj
 0001:00003950       ??$_Uninitialized_value_construct_n_unchecked1@PAPAPAVCQUdpSendOver@@I@std@@YAPAPAPAVCQUdpSendOver@@PAPAPAV1@I@Z 00404950 f i QBuffer.obj
 0001:00003970       ??$_Zero_range@PAPAPAD@std@@YAPAPAPADQAPAPAD0@Z 00404970 f i QBuffer.obj
 0001:00003970       ??$_Zero_range@PAPAPAVCClient@@@std@@YAPAPAPAVCClient@@QAPAPAV1@0@Z 00404970 f i QBuffer.obj
 0001:00003970       ??$_Zero_range@PAPAPAVCQBuffer@@@std@@YAPAPAPAVCQBuffer@@QAPAPAV1@0@Z 00404970 f i QBuffer.obj
 0001:00003970       ??$_Zero_range@PAPAPAVCQUdpSendOver@@@std@@YAPAPAPAVCQUdpSendOver@@QAPAPAV1@0@Z 00404970 f i QBuffer.obj
 0001:000039a0       ??$insert@$0A@$0A@@?$_Tree@V?$_Tset_traits@KU?$less@K@std@@V?$allocator@K@2@$0A@@std@@@std@@QAE?AU?$pair@V?$_Tree_const_iterator@V?$_Tree_val@U?$_Tree_simple_types@K@std@@@std@@@std@@_N@1@$$QAK@Z 004049a0 f i QBuffer.obj
 0001:00003a10       ??$uninitialized_copy@PAPAPADPAPAPAD@std@@YAPAPAPADQAPAPAD0PAPAPAD@Z 00404a10 f i QBuffer.obj
 0001:00003a10       ??$uninitialized_copy@PAPAPAVCClient@@PAPAPAV1@@std@@YAPAPAPAVCClient@@QAPAPAV1@0PAPAPAV1@@Z 00404a10 f i QBuffer.obj
 0001:00003a10       ??$uninitialized_copy@PAPAPAVCQBuffer@@PAPAPAV1@@std@@YAPAPAPAVCQBuffer@@QAPAPAV1@0PAPAPAV1@@Z 00404a10 f i QBuffer.obj
 0001:00003a10       ??$uninitialized_copy@PAPAPAVCQUdpSendOver@@PAPAPAV1@@std@@YAPAPAPAVCQUdpSendOver@@QAPAPAV1@0PAPAPAV1@@Z 00404a10 f i QBuffer.obj
 0001:00003a60       ??0?$deque@PADV?$allocator@PAD@std@@@std@@QAE@XZ 00404a60 f i QBuffer.obj
 0001:00003a60       ??0?$deque@PAVCClient@@V?$allocator@PAVCClient@@@std@@@std@@QAE@XZ 00404a60 f i QBuffer.obj
 0001:00003a60       ??0?$deque@PAVCQBuffer@@V?$allocator@PAVCQBuffer@@@std@@@std@@QAE@XZ 00404a60 f i QBuffer.obj
 0001:00003a60       ??0?$deque@PAVCQUdpSendOver@@V?$allocator@PAVCQUdpSendOver@@@std@@@std@@QAE@XZ 00404a60 f i QBuffer.obj
 0001:00003ad0       ??0?$set@HU?$less@H@std@@V?$allocator@H@2@@std@@QAE@XZ 00404ad0 f i QBuffer.obj
 0001:00003ad0       ??0?$set@KU?$less@K@std@@V?$allocator@K@2@@std@@QAE@XZ 00404ad0 f i QBuffer.obj
 0001:00003b20       ??0CClient@@QAE@XZ         00404b20 f   QBuffer.obj
 0001:00003b60       ??0CQBuffer@@AAE@HPBX@Z    00404b60 f   QBuffer.obj
 0001:00003be0       ??0CQUdpSendOver@@AAE@PAVCQBuffer@@@Z 00404be0 f   QBuffer.obj
 0001:00003c40       ??0CRecvOver@@QAE@XZ       00404c40 f   QBuffer.obj
 0001:00003c80       ??0bad_alloc@std@@QAE@ABV01@@Z 00404c80 f i QBuffer.obj
 0001:00003cd0       ??0bad_array_new_length@std@@QAE@ABV01@@Z 00404cd0 f i QBuffer.obj
 0001:00003d20       ??0bad_array_new_length@std@@QAE@XZ 00404d20 f i QBuffer.obj
 0001:00003d60       ??0exception@std@@QAE@ABV01@@Z 00404d60 f i QBuffer.obj
 0001:00003da0       ??1?$_Alloc_construct_ptr@V?$allocator@U?$_Tree_node@KPAX@std@@@std@@@std@@QAE@XZ 00404da0 f i QBuffer.obj
 0001:00003e40       ??1?$_Tree@V?$_Tset_traits@HU?$less@H@std@@V?$allocator@H@2@$0A@@std@@@std@@QAE@XZ 00404e40 f i QBuffer.obj
 0001:00003e40       ??1?$_Tree@V?$_Tset_traits@KU?$less@K@std@@V?$allocator@K@2@$0A@@std@@@std@@QAE@XZ 00404e40 f i QBuffer.obj
 0001:00003e80       ??1?$_Tree_temp_node@V?$allocator@U?$_Tree_node@KPAX@std@@@std@@@std@@QAE@XZ 00404e80 f i QBuffer.obj
 0001:00003ee0       ??1?$deque@PADV?$allocator@PAD@std@@@std@@QAE@XZ 00404ee0 f i QBuffer.obj
 0001:00003ee0       ??1?$deque@PAVCClient@@V?$allocator@PAVCClient@@@std@@@std@@QAE@XZ 00404ee0 f i QBuffer.obj
 0001:00003ee0       ??1?$deque@PAVCQBuffer@@V?$allocator@PAVCQBuffer@@@std@@@std@@QAE@XZ 00404ee0 f i QBuffer.obj
 0001:00003ee0       ??1?$deque@PAVCQUdpSendOver@@V?$allocator@PAVCQUdpSendOver@@@std@@@std@@QAE@XZ 00404ee0 f i QBuffer.obj
 0001:00003fa0       ??1CClient@@QAE@XZ         00404fa0 f   QBuffer.obj
 0001:00003fc0       ??1CQBuffer@@QAE@XZ        00404fc0 f   QBuffer.obj
 0001:00004000       ??1CQUdpSendOver@@QAE@XZ   00405000 f   QBuffer.obj
 0001:00004000       ?InitializeSearchContent@CDocument@@UAEXXZ 00405000 f   VServerDoc.obj
 0001:00004000       ?OnBeforeRichPreviewFontChanged@CDocument@@UAEXXZ 00405000 f   VServerDoc.obj
 0001:00004000       ?OnFindRiderMessage@CVServerView@@QAEXXZ 00405000 f   VServerView.obj
 0001:00004000       ?OnRichPreviewBackColorChanged@CDocument@@UAEXXZ 00405000 f   VServerDoc.obj
 0001:00004000       ?OnRichPreviewFontChanged@CDocument@@UAEXXZ 00405000 f   VServerDoc.obj
 0001:00004000       ?OnRichPreviewSiteChanged@CDocument@@UAEXXZ 00405000 f   VServerDoc.obj
 0001:00004000       ?OnRichPreviewTextColorChanged@CDocument@@UAEXXZ 00405000 f   VServerDoc.obj
 0001:00004000       ?OnRidersExit@CVServerView@@QAEXXZ 00405000 f   VServerView.obj
 0001:00004010       ??1CRecvOver@@QAE@XZ       00405010 f   QBuffer.obj
 0001:00004040       ??1bad_array_new_length@std@@UAE@XZ 00405040 f i QBuffer.obj
 0001:00004070       ??D?$_Deque_unchecked_iterator@V?$_Deque_val@U?$_Deque_simple_types@PAD@std@@@std@@@std@@QBEAAPADXZ 00405070 f i QBuffer.obj
 0001:00004070       ??D?$_Deque_unchecked_iterator@V?$_Deque_val@U?$_Deque_simple_types@PAVCClient@@@std@@@std@@@std@@QBEAAPAVCClient@@XZ 00405070 f i QBuffer.obj
 0001:00004070       ??D?$_Deque_unchecked_iterator@V?$_Deque_val@U?$_Deque_simple_types@PAVCQBuffer@@@std@@@std@@@std@@QBEAAPAVCQBuffer@@XZ 00405070 f i QBuffer.obj
 0001:00004070       ??D?$_Deque_unchecked_iterator@V?$_Deque_val@U?$_Deque_simple_types@PAVCQUdpSendOver@@@std@@@std@@@std@@QBEAAPAVCQUdpSendOver@@XZ 00405070 f i QBuffer.obj
 0001:000040d0       ??E?$_Tree_unchecked_const_iterator@V?$_Tree_val@U?$_Tree_simple_types@K@std@@@std@@U_Iterator_base0@2@@std@@QAEAAV01@XZ 004050d0 f i QBuffer.obj
 0001:00004160       ??_Ebad_alloc@std@@UAEPAXI@Z 00405160 f i QBuffer.obj
 0001:00004160       ??_Ebad_array_new_length@std@@UAEPAXI@Z 00405160 f i QBuffer.obj
 0001:00004160       ??_Eexception@std@@UAEPAXI@Z 00405160 f i QBuffer.obj
 0001:00004160       ??_Gbad_alloc@std@@UAEPAXI@Z 00405160 f i QBuffer.obj
 0001:00004160       ??_Gbad_array_new_length@std@@UAEPAXI@Z 00405160 f i QBuffer.obj
 0001:00004160       ??_Gexception@std@@UAEPAXI@Z 00405160 f i QBuffer.obj
 0001:000041a0       ?FindClient@CClient@@SAPAV1@PAUsockaddr_in@@@Z 004051a0 f   QBuffer.obj
 0001:000042c0       ?GetNewBuffer@CQBuffer@@AAEPADH@Z 004052c0 f   QBuffer.obj
 0001:00004470       ?Init@CRecvOver@@QAEXXZ    00405470 f   QBuffer.obj
 0001:000044f0       ?InitBuffer@CQBuffer@@AAEXHPBX@Z 004054f0 f   QBuffer.obj
 0001:00004580       ?InitQBuffer@CQUdpSendOver@@AAEXPAVCQBuffer@@@Z 00405580 f   QBuffer.obj
 0001:000045f0       ?PopCQBuffer@CQBuffer@@CAPAV1@HPBX@Z 004055f0 f   QBuffer.obj
 0001:00004710       ?PopClient@CClient@@SAPAV1@PAUsockaddr_in@@@Z 00405710 f   QBuffer.obj
 0001:00004860       ?PopQSendOver@CQUdpSendOver@@SAPAV1@PAVCMBuffer@@PAVCClient@@@Z 00405860 f   QBuffer.obj
 0001:00004990       ?Release@CQBuffer@@AAEJXZ  00405990 f   QBuffer.obj
 0001:00004a10       ?ReleaseClient@CClient@@QAEXXZ 00405a10 f   QBuffer.obj
 0001:00004a70       ?ReleaseOldBuffer@CQBuffer@@AAEXXZ 00405a70 f   QBuffer.obj
 0001:00004b30       ?ReleaseOver@CQUdpSendOver@@QAEXXZ 00405b30 f   QBuffer.obj
 0001:00004ba0       ?Send@CQUdpSendOver@@AAEHPAVCClient@@@Z 00405ba0 f   QBuffer.obj
 0001:00004d10       ?SendAllMember@CQUdpSendOver@@SAHPAVCMBuffer@@PAVCClient@@E@Z 00405d10 f   QBuffer.obj
 0001:00004f40       ?SetBufferData@CQBuffer@@AAEXHQBX@Z 00405f40 f   QBuffer.obj
 0001:00004f80       ?_Adjust_manually_vector_aligned@std@@YAXAAPAXAAI@Z 00405f80 f i QBuffer.obj
 0001:00004ff0       ?_Alloc_sentinel_and_proxy@?$_Tree@V?$_Tset_traits@HU?$less@H@std@@V?$allocator@H@2@$0A@@std@@@std@@IAEXXZ 00405ff0 f i QBuffer.obj
 0001:00004ff0       ?_Alloc_sentinel_and_proxy@?$_Tree@V?$_Tset_traits@KU?$less@K@std@@V?$allocator@K@2@$0A@@std@@@std@@IAEXXZ 00405ff0 f i QBuffer.obj
 0001:00005030       ?_Check_grow_by_1@?$_Tree@V?$_Tset_traits@KU?$less@K@std@@V?$allocator@K@2@$0A@@std@@@std@@IAEXXZ 00406030 f i QBuffer.obj
 0001:000050b0       ?_Erase_unchecked@?$_Tree@V?$_Tset_traits@KU?$less@K@std@@V?$allocator@K@2@$0A@@std@@@std@@AAEPAU?$_Tree_node@KPAX@2@V?$_Tree_unchecked_const_iterator@V?$_Tree_val@U?$_Tree_simple_types@K@std@@@std@@U_Iterator_base0@2@@2@@Z 004060b0 f i QBuffer.obj
 0001:00005180       ?_Extract@?$_Tree_val@U?$_Tree_simple_types@K@std@@@std@@QAEPAU?$_Tree_node@KPAX@2@V?$_Tree_unchecked_const_iterator@V?$_Tree_val@U?$_Tree_simple_types@K@std@@@std@@U_Iterator_base0@2@@2@@Z 00406180 f i QBuffer.obj
 0001:00005610       ?_Growmap@?$deque@PADV?$allocator@PAD@std@@@std@@AAEXI@Z 00406610 f i QBuffer.obj
 0001:00005610       ?_Growmap@?$deque@PAVCClient@@V?$allocator@PAVCClient@@@std@@@std@@AAEXI@Z 00406610 f i QBuffer.obj
 0001:00005610       ?_Growmap@?$deque@PAVCQBuffer@@V?$allocator@PAVCQBuffer@@@std@@@std@@AAEXI@Z 00406610 f i QBuffer.obj
 0001:00005610       ?_Growmap@?$deque@PAVCQUdpSendOver@@V?$allocator@PAVCQUdpSendOver@@@std@@@std@@AAEXI@Z 00406610 f i QBuffer.obj
 0001:00005a40       ?_Insert_node@?$_Tree_val@U?$_Tree_simple_types@K@std@@@std@@QAEPAU?$_Tree_node@KPAX@2@U?$_Tree_id@PAU?$_Tree_node@KPAX@std@@@2@QAU32@@Z 00406a40 f i QBuffer.obj
 0001:00005c50       ?_Lrotate@?$_Tree_val@U?$_Tree_simple_types@K@std@@@std@@QAEXPAU?$_Tree_node@KPAX@2@@Z 00406c50 f i QBuffer.obj
 0001:00005cf0       ?_Rrotate@?$_Tree_val@U?$_Tree_simple_types@K@std@@@std@@QAEXPAU?$_Tree_node@KPAX@2@@Z 00406cf0 f i QBuffer.obj
 0001:00005d90       ?_Throw_bad_array_new_length@std@@YAXXZ 00406d90 f i QBuffer.obj
 0001:00005db0       ?_Throw_tree_length_error@std@@YAXXZ 00406db0 f i QBuffer.obj
 0001:00005dc0       ?_Tidy@?$deque@PADV?$allocator@PAD@std@@@std@@AAEXXZ 00406dc0 f i QBuffer.obj
 0001:00005dc0       ?_Tidy@?$deque@PAVCClient@@V?$allocator@PAVCClient@@@std@@@std@@AAEXXZ 00406dc0 f i QBuffer.obj
 0001:00005dc0       ?_Tidy@?$deque@PAVCQBuffer@@V?$allocator@PAVCQBuffer@@@std@@@std@@AAEXXZ 00406dc0 f i QBuffer.obj
 0001:00005dc0       ?_Tidy@?$deque@PAVCQUdpSendOver@@V?$allocator@PAVCQUdpSendOver@@@std@@@std@@AAEXXZ 00406dc0 f i QBuffer.obj
 0001:00005ff0       ?_Xlen@?$deque@PADV?$allocator@PAD@std@@@std@@ABEXXZ 00406ff0 f i QBuffer.obj
 0001:00005ff0       ?_Xlen@?$deque@PAVCClient@@V?$allocator@PAVCClient@@@std@@@std@@ABEXXZ 00406ff0 f i QBuffer.obj
 0001:00005ff0       ?_Xlen@?$deque@PAVCQBuffer@@V?$allocator@PAVCQBuffer@@@std@@@std@@ABEXXZ 00406ff0 f i QBuffer.obj
 0001:00005ff0       ?_Xlen@?$deque@PAVCQUdpSendOver@@V?$allocator@PAVCQUdpSendOver@@@std@@@std@@ABEXXZ 00406ff0 f i QBuffer.obj
 0001:00006010       ?allocate@?$allocator@PAD@std@@QAEPAPADI@Z 00407010 f i QBuffer.obj
 0001:00006010       ?allocate@?$allocator@PAPAD@std@@QAEPAPAPADI@Z 00407010 f i QBuffer.obj
 0001:00006010       ?allocate@?$allocator@PAPAVCClient@@@std@@QAEPAPAPAVCClient@@I@Z 00407010 f i QBuffer.obj
 0001:00006010       ?allocate@?$allocator@PAPAVCQBuffer@@@std@@QAEPAPAPAVCQBuffer@@I@Z 00407010 f i QBuffer.obj
 0001:00006010       ?allocate@?$allocator@PAPAVCQUdpSendOver@@@std@@QAEPAPAPAVCQUdpSendOver@@I@Z 00407010 f i QBuffer.obj
 0001:00006010       ?allocate@?$allocator@PAVCClient@@@std@@QAEPAPAVCClient@@I@Z 00407010 f i QBuffer.obj
 0001:00006010       ?allocate@?$allocator@PAVCQBuffer@@@std@@QAEPAPAVCQBuffer@@I@Z 00407010 f i QBuffer.obj
 0001:00006010       ?allocate@?$allocator@PAVCQUdpSendOver@@@std@@QAEPAPAVCQUdpSendOver@@I@Z 00407010 f i QBuffer.obj
 0001:00006080       ?allocate@?$allocator@U?$_Tree_node@HPAX@std@@@std@@QAEPAU?$_Tree_node@HPAX@2@I@Z 00407080 f i QBuffer.obj
 0001:00006080       ?allocate@?$allocator@U?$_Tree_node@KPAX@std@@@std@@QAEPAU?$_Tree_node@KPAX@2@I@Z 00407080 f i QBuffer.obj
 0001:000060f0       ?allocate@?$allocator@U_Container_proxy@std@@@std@@QAEPAU_Container_proxy@2@I@Z 004070f0 f i QBuffer.obj
 0001:00006160       ?front@?$deque@PADV?$allocator@PAD@std@@@std@@QAEAAPADXZ 00407160 f i QBuffer.obj
 0001:00006160       ?front@?$deque@PAVCClient@@V?$allocator@PAVCClient@@@std@@@std@@QAEAAPAVCClient@@XZ 00407160 f i QBuffer.obj
 0001:00006160       ?front@?$deque@PAVCQBuffer@@V?$allocator@PAVCQBuffer@@@std@@@std@@QAEAAPAVCQBuffer@@XZ 00407160 f i QBuffer.obj
 0001:00006160       ?front@?$deque@PAVCQUdpSendOver@@V?$allocator@PAVCQUdpSendOver@@@std@@@std@@QAEAAPAVCQUdpSendOver@@XZ 00407160 f i QBuffer.obj
 0001:000061b0       ?pop_back@?$deque@PADV?$allocator@PAD@std@@@std@@QAEXXZ 004071b0 f i QBuffer.obj
 0001:000061b0       ?pop_back@?$deque@PAVCClient@@V?$allocator@PAVCClient@@@std@@@std@@QAEXXZ 004071b0 f i QBuffer.obj
 0001:000061b0       ?pop_back@?$deque@PAVCQBuffer@@V?$allocator@PAVCQBuffer@@@std@@@std@@QAEXXZ 004071b0 f i QBuffer.obj
 0001:000061b0       ?pop_back@?$deque@PAVCQUdpSendOver@@V?$allocator@PAVCQUdpSendOver@@@std@@@std@@QAEXXZ 004071b0 f i QBuffer.obj
 0001:00006290       ?pop_front@?$deque@PADV?$allocator@PAD@std@@@std@@QAEXXZ 00407290 f i QBuffer.obj
 0001:00006290       ?pop_front@?$deque@PAVCClient@@V?$allocator@PAVCClient@@@std@@@std@@QAEXXZ 00407290 f i QBuffer.obj
 0001:00006290       ?pop_front@?$deque@PAVCQBuffer@@V?$allocator@PAVCQBuffer@@@std@@@std@@QAEXXZ 00407290 f i QBuffer.obj
 0001:00006290       ?pop_front@?$deque@PAVCQUdpSendOver@@V?$allocator@PAVCQUdpSendOver@@@std@@@std@@QAEXXZ 00407290 f i QBuffer.obj
 0001:00006390       ?what@exception@std@@UBEPBDXZ 00407390 f i QBuffer.obj
 0001:000063c0       ??_H@YGXPAXIIP6EPAX0@Z@Z   004073c0 f i stdafx.obj
 0001:000063f0       ?GetLocalTm@CTime@ATL@@QBEPAUtm@@PAU3@@Z 004073f0 f i stdafx.obj
 0001:00006490       ?Init@CComCriticalSection@ATL@@QAEJXZ 00407490 f i stdafx.obj
 0001:000064f0       ?Log@@YAXPA_W@Z            004074f0 f   stdafx.obj
 0001:00006540       ?itos@@YAPB_WJPA_W@Z       00407540 f   stdafx.obj
 0001:00006560       ??$_Find@K@?$_Tree@V?$_Tset_traits@KU?$less@K@std@@V?$allocator@K@2@$0A@@std@@@std@@ABEPAU?$_Tree_node@KPAX@1@ABK@Z 00407560 f i ThreadWork.obj
 0001:00006600       ??0CThreadWork@@IAE@XZ     00407600 f   ThreadWork.obj
 0001:000066c0       ??1CMBuffer@@QAE@XZ        004076c0 f i ThreadWork.obj
 0001:00006710       ??1CThreadWork@@UAE@XZ     00407710 f   ThreadWork.obj
 0001:00006760       ??_ECListBox@@UAEPAXI@Z    00407760 f i ThreadWork.obj
 0001:00006760       ??_GCListBox@@UAEPAXI@Z    00407760 f i ThreadWork.obj
 0001:000067b0       ??_ECListCtrl@@UAEPAXI@Z   004077b0 f i ThreadWork.obj
 0001:000067b0       ??_GCListCtrl@@UAEPAXI@Z   004077b0 f i ThreadWork.obj
 0001:00006800       ??_ECThreadWork@@UAEPAXI@Z 00407800 f i ThreadWork.obj
 0001:00006800       ??_GCThreadWork@@UAEPAXI@Z 00407800 f i ThreadWork.obj
 0001:00006850       ?CreateObject@CThreadWork@@SGPAVCObject@@XZ 00407850 f   ThreadWork.obj
 0001:000068d0       ?GetMessageMap@CThreadWork@@MBEPBUAFX_MSGMAP@@XZ 004078d0 f   ThreadWork.obj
 0001:000068e0       ?GetRuntimeClass@CThreadWork@@UBEPAUCRuntimeClass@@XZ 004078e0 f   ThreadWork.obj
 0001:000068f0       ?GetThisMessageMap@CThreadWork@@KGPBUAFX_MSGMAP@@XZ 004078f0 f   ThreadWork.obj
 0001:00006900       ?InitInstance@CThreadWork@@UAEHXZ 00407900 f   ThreadWork.obj
 0001:00006a30       ?Process@CThreadWork@@QAEXXZ 00407a30 f   ThreadWork.obj
 0001:00006bd0       ?RecvAlive@CThreadWork@@QAEXPAVCRecvOver@@H@Z 00407bd0 f   ThreadWork.obj
 0001:00006d20       ?RecvConnect@CThreadWork@@QAEXPAVCRecvOver@@H@Z 00407d20 f   ThreadWork.obj
 0001:00006dc0       ?RecvData@CThreadWork@@QAEXPAVCRecvOver@@K@Z 00407dc0 f   ThreadWork.obj
 0001:00006e80       ?RecvRequest@CThreadWork@@QAEXPAVCRecvOver@@H@Z 00407e80 f   ThreadWork.obj
 0001:00007250       ?RecvVoice@CThreadWork@@QAEXPAVCRecvOver@@H@Z 00408250 f   ThreadWork.obj
 0001:00007580       ?SendCommand@CThreadWork@@QAEXPAVCClient@@E@Z 00408580 f   ThreadWork.obj
 0001:00007640       ?UDPRecvFrom@CThreadWork@@QAEHPAVCRecvOver@@@Z 00408640 f   ThreadWork.obj
 0001:00007740       ?WorkUdp@CThreadWork@@QAEXKPAU_OVERLAPPED_BASE@@@Z 00408740 f   ThreadWork.obj
 0001:000078f0       ??0CAboutDlg@@QAE@XZ       004088f0 f   VServer.obj
 0001:00007920       ??0CVServerApp@@QAE@XZ     00408920 f   VServer.obj
 0001:00007980       ??1CAboutDlg@@UAE@XZ       00408980 f i VServer.obj
 0001:000079a0       ??1CVServerApp@@UAE@XZ     004089a0 f i VServer.obj
 0001:000079f0       ??_ECAboutDlg@@UAEPAXI@Z   004089f0 f i VServer.obj
 0001:000079f0       ??_GCAboutDlg@@UAEPAXI@Z   004089f0 f i VServer.obj
 0001:00007a40       ??_ECVServerApp@@UAEPAXI@Z 00408a40 f i VServer.obj
 0001:00007a40       ??_GCVServerApp@@UAEPAXI@Z 00408a40 f i VServer.obj
 0001:00007a90       ?GetApplicationRecoveryParameter@CWinApp@@UAEPAXXZ 00408a90 f i VServer.obj
 0001:00007a90       ?GetApplicationRestartFlags@CWinApp@@UAEKXZ 00408a90 f i VServer.obj
 0001:00007aa0       ?GetApplicationRecoveryPingInterval@CWinApp@@UAEKXZ 00408aa0 f i VServer.obj
 0001:00007ab0       ?GetMessageMap@CAboutDlg@@MBEPBUAFX_MSGMAP@@XZ 00408ab0 f   VServer.obj
 0001:00007ac0       ?GetMessageMap@CVServerApp@@MBEPBUAFX_MSGMAP@@XZ 00408ac0 f   VServer.obj
 0001:00007ad0       ?GetThisMessageMap@CAboutDlg@@KGPBUAFX_MSGMAP@@XZ 00408ad0 f   VServer.obj
 0001:00007ae0       ?GetThisMessageMap@CVServerApp@@KGPBUAFX_MSGMAP@@XZ 00408ae0 f   VServer.obj
 0001:00007af0       ?InitInstance@CVServerApp@@UAEHXZ 00408af0 f   VServer.obj
 0001:00007ce0       ?OnAppAbout@CVServerApp@@QAEXXZ 00408ce0 f   VServer.obj
 0001:00007d50       ?ReopenPreviousFilesAtRestart@CWinApp@@UBEHXZ 00408d50 f i VServer.obj
 0001:00007d70       ?RestoreAutosavedFilesAtRestart@CWinApp@@UBEHXZ 00408d70 f i VServer.obj
 0001:00007d90       ?SupportsApplicationRecovery@CWinApp@@UBEHXZ 00408d90 f i VServer.obj
 0001:00007db0       ?SupportsAutosaveAtInterval@CWinApp@@UBEHXZ 00408db0 f i VServer.obj
 0001:00007dd0       ?SupportsAutosaveAtRestart@CWinApp@@UBEHXZ 00408dd0 f i VServer.obj
 0001:00007df0       ?SupportsRestartManager@CWinApp@@UBEHXZ 00408df0 f i VServer.obj
 0001:00007e10       ??0CVServerDoc@@IAE@XZ     00408e10 f   VServerDoc.obj
 0001:00007ea0       ??1CDocumentAdapter@CDocument@@UAE@XZ 00408ea0 f i VServerDoc.obj
 0001:00007f00       ??1CVServerDoc@@UAE@XZ     00408f00 f   VServerDoc.obj
 0001:000081e0       ??_ECDocumentAdapter@CDocument@@UAEPAXI@Z 004091e0 f i VServerDoc.obj
 0001:000081e0       ??_GCDocumentAdapter@CDocument@@UAEPAXI@Z 004091e0 f i VServerDoc.obj
 0001:00008210       ??_ECVServerDoc@@UAEPAXI@Z 00409210 f i VServerDoc.obj
 0001:00008210       ??_GCVServerDoc@@UAEPAXI@Z 00409210 f i VServerDoc.obj
 0001:00008260       ??_EIDocument@ATL@@UAEPAXI@Z 00409260 f i VServerDoc.obj
 0001:00008260       ??_GIDocument@ATL@@UAEPAXI@Z 00409260 f i VServerDoc.obj
 0001:00008290       ?AddRef@IDocument@ATL@@UAEJXZ 00409290 f i VServerDoc.obj
 0001:000082b0       ?BeginReadChunks@CDocumentAdapter@CDocument@@UAEXXZ 004092b0 f i VServerDoc.obj
 0001:000082e0       ?ClearChunkList@CDocumentAdapter@CDocument@@UAEXXZ 004092e0 f i VServerDoc.obj
 0001:00008310       ?CreateObject@CVServerDoc@@SGPAVCObject@@XZ 00409310 f   VServerDoc.obj
 0001:00008390       ?FindChunk@CDocumentAdapter@CDocument@@UAEPAU__POSITION@@ABU_GUID@@K@Z 00409390 f i VServerDoc.obj
 0001:000083d0       ?GetAdapter@CDocument@@UAEPAUIDocument@ATL@@XZ 004093d0 f i VServerDoc.obj
 0001:000084e0       ?GetContainer@CDocumentAdapter@CDocument@@UBEPAXXZ 004094e0 f i VServerDoc.obj
 0001:00008500       ?GetMessageMap@CVServerDoc@@MBEPBUAFX_MSGMAP@@XZ 00409500 f   VServerDoc.obj
 0001:00008510       ?GetRuntimeClass@CVServerDoc@@UBEPAUCRuntimeClass@@XZ 00409510 f   VServerDoc.obj
 0001:00008520       ?GetThisMessageMap@CVServerDoc@@KGPBUAFX_MSGMAP@@XZ 00409520 f   VServerDoc.obj
 0001:00008530       ?GetThumbnail@CDocumentAdapter@CDocument@@UAEHIPAPAUHBITMAP__@@PAW4WTS_ALPHATYPE@@@Z 00409530 f i VServerDoc.obj
 0001:00008570       ?InitializeSearchContent@CDocumentAdapter@CDocument@@UAEXXZ 00409570 f i VServerDoc.obj
 0001:000085a0       ?IsModified@CDocument@@UAEHXZ 004095a0 f i VServerDoc.obj
 0001:000085c0       ?LoadFromStream@CDocumentAdapter@CDocument@@UAEJPAUIStream@@K@Z 004095c0 f i VServerDoc.obj
 0001:00008630       ?OnCloseDocument@CVServerDoc@@UAEXXZ 00409630 f   VServerDoc.obj
 0001:00008650       ?OnNewDocument@CVServerDoc@@UAEHXZ 00409650 f   VServerDoc.obj
 0001:00008670       ?ReadNextChunkValue@CDocumentAdapter@CDocument@@UAEHPAPAUIFilterChunkValue@ATL@@@Z 00409670 f i VServerDoc.obj
 0001:000086b0       ?Release@IDocument@ATL@@UAEJXZ 004096b0 f i VServerDoc.obj
 0001:00008700       ?RemoveChunk@CDocumentAdapter@CDocument@@UAEXABU_GUID@@K@Z 00409700 f i VServerDoc.obj
 0001:00008740       ?SetChunkValue@CDocumentAdapter@CDocument@@UAEHPAUIFilterChunkValue@ATL@@@Z 00409740 f i VServerDoc.obj
 0001:00008780       ?SetModifiedFlag@CDocument@@UAEXH@Z 00409780 f i VServerDoc.obj
 0001:000087a0       ??$CompareElements@KK@@YGHPBK0@Z 004097a0 f i VServerView.obj
 0001:00008800       ??$SerializeElements@K@@YGXAAVCArchive@@PAKH@Z 00409800 f i VServerView.obj
 0001:00008800       ??$SerializeElements@PAD@@YGXAAVCArchive@@PAPADH@Z 00409800 f i VServerView.obj
 0001:00008930       ??0?$CMap@KKKK@@QAE@H@Z    00409930 f i VServerView.obj
 0001:00008990       ??0?$CMap@KKPADAAPAD@@QAE@H@Z 00409990 f i VServerView.obj
 0001:000089f0       ??0CVServerView@@IAE@XZ    004099f0 f   VServerView.obj
 0001:00008b70       ??1?$CMap@KKKK@@UAE@XZ     00409b70 f i VServerView.obj
 0001:00008bc0       ??1?$CMap@KKPADAAPAD@@UAE@XZ 00409bc0 f i VServerView.obj
 0001:00008c10       ??1CVServerView@@UAE@XZ    00409c10 f   VServerView.obj
 0001:00008d30       ??A?$CMap@KKKK@@QAEAAKK@Z  00409d30 f i VServerView.obj
 0001:00008d30       ??A?$CMap@KKPADAAPAD@@QAEAAPADK@Z 00409d30 f i VServerView.obj
 0001:00008df0       ??_E?$CMap@KKKK@@UAEPAXI@Z 00409df0 f i VServerView.obj
 0001:00008df0       ??_G?$CMap@KKKK@@UAEPAXI@Z 00409df0 f i VServerView.obj
 0001:00008e40       ??_E?$CMap@KKPADAAPAD@@UAEPAXI@Z 00409e40 f i VServerView.obj
 0001:00008e40       ??_G?$CMap@KKPADAAPAD@@UAEPAXI@Z 00409e40 f i VServerView.obj
 0001:00008e90       ??_ECVServerView@@UAEPAXI@Z 00409e90 f i VServerView.obj
 0001:00008e90       ??_GCVServerView@@UAEPAXI@Z 00409e90 f i VServerView.obj
 0001:00008ee0       ?AfxGetMainWnd@@YGPAVCWnd@@XZ 00409ee0 f i VServerView.obj
 0001:00008f20       ?ChangeView@CVServerView@@QAEXH@Z 00409f20 f   VServerView.obj
 0001:00008fc0       ?Compare@?$CStringT@_WV?$StrTraitMFC@_WV?$ChTraitsCRT@_W@ATL@@@@@ATL@@QBEHPB_W@Z 00409fc0 f i VServerView.obj
 0001:00009040       ?CreateObject@CVServerView@@SGPAVCObject@@XZ 0040a040 f   VServerView.obj
 0001:000090c0       ?DoDataExchange@CVServerView@@MAEXPAVCDataExchange@@@Z 0040a0c0 f   VServerView.obj
 0001:00009130       ?GetAssocAt@?$CMap@KKKK@@IBEPAVCAssoc@1@KAAI0@Z 0040a130 f i VServerView.obj
 0001:00009130       ?GetAssocAt@?$CMap@KKPADAAPAD@@IBEPAVCAssoc@1@KAAI0@Z 0040a130 f i VServerView.obj
 0001:00009200       ?GetMessageMap@CVServerView@@MBEPBUAFX_MSGMAP@@XZ 0040a200 f   VServerView.obj
 0001:00009210       ?GetNextAssoc@?$CMap@KKPADAAPAD@@QBEXAAPAU__POSITION@@AAKAAPAD@Z 0040a210 f i VServerView.obj
 0001:00009360       ?GetRuntimeClass@CVServerView@@UBEPAUCRuntimeClass@@XZ 0040a360 f   VServerView.obj
 0001:00009370       ?GetThisMessageMap@CVServerView@@KGPBUAFX_MSGMAP@@XZ 0040a370 f   VServerView.obj
 0001:00009380       ?InitHashTable@?$CMap@KKKK@@QAEXIH@Z 0040a380 f i VServerView.obj
 0001:00009380       ?InitHashTable@?$CMap@KKPADAAPAD@@QAEXIH@Z 0040a380 f i VServerView.obj
 0001:00009440       ?InitHeaders@CVServerView@@QAEXXZ 0040a440 f   VServerView.obj
 0001:00009880       ?KillThreads@CVServerView@@QAEXXZ 0040a880 f   VServerView.obj
 0001:000099c0       ?NetworkStart@CVServerView@@QAEJXZ 0040a9c0 f   VServerView.obj
 0001:00009a20       ?NewAssoc@?$CMap@KKKK@@IAEPAVCAssoc@1@K@Z 0040aa20 f i VServerView.obj
 0001:00009a20       ?NewAssoc@?$CMap@KKPADAAPAD@@IAEPAVCAssoc@1@K@Z 0040aa20 f i VServerView.obj
 0001:00009b30       ?OnDestroy@CVServerView@@QAEXXZ 0040ab30 f   VServerView.obj
 0001:00009b60       ?OnFindRider@CVServerView@@QAEXXZ 0040ab60 f   VServerView.obj
 0001:00009e90       ?OnIPSet@CVServerView@@QAEXXZ 0040ae90 f   VServerView.obj
 0001:00009f20       ?OnInitialUpdate@CVServerView@@MAEXXZ 0040af20 f   VServerView.obj
 0001:00009f80       ?OnLbnDblclkListLog@CVServerView@@QAEXXZ 0040af80 f   VServerView.obj
 0001:0000a000       ?OnNetStart@CVServerView@@QAEXXZ 0040b000 f   VServerView.obj
 0001:0000a020       ?OnSize@CVServerView@@QAEXIHH@Z 0040b020 f   VServerView.obj
 0001:0000a500       ?OnTimer@CVServerView@@QAEXI@Z 0040b500 f   VServerView.obj
 0001:0000a700       ?OnViewAll@CVServerView@@QAEXXZ 0040b700 f   VServerView.obj
 0001:0000a720       ?OnViewLog@CVServerView@@QAEXXZ 0040b720 f   VServerView.obj
 0001:0000a740       ?OnViewMember@CVServerView@@QAEXXZ 0040b740 f   VServerView.obj
 0001:0000a760       ?OnViewOrder@CVServerView@@QAEXXZ 0040b760 f   VServerView.obj
 0001:0000a780       ?OnViewQueue@CVServerView@@QAEXXZ 0040b780 f   VServerView.obj
 0001:0000a7a0       ?OnViewThread@CVServerView@@QAEXXZ 0040b7a0 f   VServerView.obj
 0001:0000a7c0       ?PreCreateWindow@CVServerView@@UAEHAAUtagCREATESTRUCTW@@@Z 0040b7c0 f   VServerView.obj
 0001:0000a7e0       ?RemoveAll@?$CMap@KKKK@@QAEXXZ 0040b7e0 f i VServerView.obj
 0001:0000a7e0       ?RemoveAll@?$CMap@KKPADAAPAD@@QAEXXZ 0040b7e0 f i VServerView.obj
 0001:0000a880       ?Serialize@?$CMap@KKKK@@UAEXAAVCArchive@@@Z 0040b880 f i VServerView.obj
 0001:0000a9c0       ?Serialize@?$CMap@KKPADAAPAD@@UAEXAAVCArchive@@@Z 0040b9c0 f i VServerView.obj
 0001:0000ab00       ?ServerStart@CVServerView@@QAEJXZ 0040bb00 f   VServerView.obj
 0001:0000abf0       ?ThreadStart@CVServerView@@QAEXXZ 0040bbf0 f   VServerView.obj
 0001:0000aed0       ?accHitTest@CFormView@@UAEJJJPAUtagVARIANT@@@Z 0040bed0 f i VServerView.obj
 0001:0000af00       ?accLocation@CFormView@@UAEJPAJ000UtagVARIANT@@@Z 0040bf00 f i VServerView.obj
 0001:0000af50       ?get_accChild@CFormView@@UAEJUtagVARIANT@@PAPAUIDispatch@@@Z 0040bf50 f i VServerView.obj
 0001:0000af90       ?get_accChildCount@CFormView@@UAEJPAJ@Z 0040bf90 f i VServerView.obj
 0001:0000afb0       ?get_accName@CFormView@@UAEJUtagVARIANT@@PAPA_W@Z 0040bfb0 f i VServerView.obj
 0001:0000afe5       ??3@YAXPAX@Z               0040bfe5 f   uafxcw:afx_delete_scalar.obj
 0001:0000afea       ??0CException@@QAE@H@Z     0040bfea f   uafxcw:except.obj
 0001:0000aff9       ??0CException@@QAE@XZ      0040bff9 f   uafxcw:except.obj
 0001:0000b003       ??_ECInvalidArgException@@UAEPAXI@Z 0040c003 f i uafxcw:except.obj
 0001:0000b003       ??_ECMemoryException@@UAEPAXI@Z 0040c003 f i uafxcw:except.obj
 0001:0000b003       ??_ECNotSupportedException@@UAEPAXI@Z 0040c003 f i uafxcw:except.obj
 0001:0000b003       ??_ECResourceException@@UAEPAXI@Z 0040c003 f i uafxcw:wingdi.obj
 0001:0000b003       ??_ECUserException@@UAEPAXI@Z 0040c003 f i uafxcw:wingdi.obj
 0001:0000b003       ??_GCInvalidArgException@@UAEPAXI@Z 0040c003 f i uafxcw:except.obj
 0001:0000b003       ??_GCMemoryException@@UAEPAXI@Z 0040c003 f i uafxcw:except.obj
 0001:0000b003       ??_GCNotSupportedException@@UAEPAXI@Z 0040c003 f i uafxcw:except.obj
 0001:0000b003       ??_GCResourceException@@UAEPAXI@Z 0040c003 f i uafxcw:wingdi.obj
 0001:0000b003       ??_GCUserException@@UAEPAXI@Z 0040c003 f i uafxcw:wingdi.obj
 0001:0000b037       ?AfxCrtErrorCheck@@YAHH@Z  0040c037 f i uafxcw:except.obj
 0001:0000b061       ?AfxThrowInvalidArgException@@YGXXZ 0040c061 f   uafxcw:except.obj
 0001:0000b07b       ?AfxThrowMemoryException@@YGXXZ 0040c07b f   uafxcw:except.obj
 0001:0000b095       ?AfxThrowNotSupportedException@@YGXXZ 0040c095 f   uafxcw:except.obj
 0001:0000b0af       ?CreateObject@?$CThreadLocal@V_AFX_THREAD_STATE@@@@SGPAVCNoTrackObject@@XZ 0040c0af f i uafxcw:except.obj
 0001:0000b0de       ?Delete@CException@@QAEXXZ 0040c0de f   uafxcw:except.obj
 0001:0000b0fe       ?GetErrorMessage@CException@@UAEHPA_WIPAI@Z 0040c0fe f   uafxcw:except.obj
 0001:0000b125       ?GetErrorMessage@CSimpleException@@UBEHPA_WIPAI@Z 0040c125 f   uafxcw:except.obj
 0001:0000b180       ?GetRuntimeClass@CInvalidArgException@@UBEPAUCRuntimeClass@@XZ 0040c180 f   uafxcw:except.obj
 0001:0000b186       ?GetRuntimeClass@CMemoryException@@UBEPAUCRuntimeClass@@XZ 0040c186 f   uafxcw:except.obj
 0001:0000b18c       ?GetRuntimeClass@CNotSupportedException@@UBEPAUCRuntimeClass@@XZ 0040c18c f   uafxcw:except.obj
 0001:0000b192       ?GetRuntimeClass@CSimpleException@@UBEPAUCRuntimeClass@@XZ 0040c192 f   uafxcw:except.obj
 0001:0000b198       ?InitString@CSimpleException@@QAEXXZ 0040c198 f   uafxcw:except.obj
 0001:0000b1c1       ?ReportError@CException@@UAEHII@Z 0040c1c1 f   uafxcw:except.obj
 0001:0000b242       ??$AtlMultiply@I@ATL@@YAJPAIII@Z 0040c242 f i uafxcw:olemisc.obj
 0001:0000b242       ??$AtlMultiply@K@ATL@@YAJPAKKK@Z 0040c242 f i uafxcw:olemisc.obj
 0001:0000b264       ??0?$CStringT@_WV?$StrTraitMFC@_WV?$ChTraitsCRT@_W@ATL@@@@@ATL@@QAE@XZ 0040c264 f i uafxcw:olemisc.obj
 0001:0000b2b3       ??0COleException@@QAE@XZ   0040c2b3 f i uafxcw:olemisc.obj
 0001:0000b2c9       ??2CObject@@SGPAXI@Z       0040c2c9 f i uafxcw:olemisc.obj
 0001:0000b2d9       ??4?$CStringT@_WV?$StrTraitMFC@_WV?$ChTraitsCRT@_W@ATL@@@@@ATL@@QAEAAV01@PB_W@Z 0040c2d9 f i uafxcw:olemisc.obj
 0001:0000b304       ??B?$CSimpleStringT@_W$0A@@ATL@@QBEPB_WXZ 0040c304 f i uafxcw:olemisc.obj
 0001:0000b307       ??_ECOleException@@UAEPAXI@Z 0040c307 f i uafxcw:olemisc.obj
 0001:0000b307       ??_GCOleException@@UAEPAXI@Z 0040c307 f i uafxcw:olemisc.obj
 0001:0000b338       ?AfxMergeMenus@@YGPAUHMENU__@@PAU1@0PAJHH@Z 0040c338 f   uafxcw:olemisc.obj
 0001:0000b5b1       ?AfxThrowOleException@@YGXJ@Z 0040c5b1 f   uafxcw:olemisc.obj
 0001:0000b5f5       ?AfxUnmergeMenus@@YGXPAUHMENU__@@00@Z 0040c5f5 f   uafxcw:olemisc.obj
 0001:0000b6a3       ?Append@?$CSimpleStringT@_W$0A@@ATL@@QAEXPB_WH@Z 0040c6a3 f i uafxcw:olemisc.obj
 0001:0000b734       ?AppendChar@?$CSimpleStringT@_W$0A@@ATL@@QAEX_W@Z 0040c734 f i uafxcw:olemisc.obj
 0001:0000b761       ?AtlCoTaskMemCAlloc@ATL@@YAPAXKK@Z 0040c761 f i uafxcw:olemisc.obj
 0001:0000b78e       ?AtlCrtErrorCheck@ATL@@YAHH@Z 0040c78e f i uafxcw:olemisc.obj
 0001:0000b7c9       ?CopyCharsOverlapped@?$CSimpleStringT@_W$0A@@ATL@@SAXPA_WIPB_WH@Z 0040c7c9 f i uafxcw:olemisc.obj
 0001:0000b81a       ?GetErrorMessage@COleException@@UBEHPA_WIPAI@Z 0040c81a f   uafxcw:olemisc.obj
 0001:0000b87c       ?GetRuntimeClass@COleException@@UBEPAUCRuntimeClass@@XZ 0040c87c f   uafxcw:olemisc.obj
 0001:0000b882       ?LoadStringW@?$CStringT@_WV?$StrTraitMFC@_WV?$ChTraitsCRT@_W@ATL@@@@@ATL@@QAEHI@Z 0040c882 f i uafxcw:olemisc.obj
 0001:0000b8bc       ?Process@COleException@@SGJPBVCException@@@Z 0040c8bc f   uafxcw:olemisc.obj
 0001:0000b90e       ?_AfxCopyGlobalMemory@@YGPAXPAX0@Z 0040c90e f   uafxcw:olemisc.obj
 0001:0000b98d       ?_AfxCopyStgMedium@@YGHGPAUtagSTGMEDIUM@@0@Z 0040c98d f   uafxcw:olemisc.obj
 0001:0000bc6e       ?_AfxFillFormatEtc@@YGPAUtagFORMATETC@@PAU1@G0@Z 0040cc6e f   uafxcw:olemisc.obj
 0001:0000bcac       ?_AfxOleCopyFormatEtc@@YGXPAUtagFORMATETC@@0@Z 0040ccac f   uafxcw:olemisc.obj
 0001:0000bce0       ?_AfxOleCopyTargetDevice@@YGPAUtagDVTARGETDEVICE@@PAU1@@Z 0040cce0 f   uafxcw:olemisc.obj
 0001:0000bd14       ?memcpy_s@Checked@ATL@@YAXPAXIPBXI@Z 0040cd14 f i uafxcw:olemisc.obj
 0001:0000bd33       __snwprintf_s              0040cd33 f i uafxcw:olemisc.obj
 0001:0000bd52       __vsnwprintf_s_l           0040cd52 f i uafxcw:olemisc.obj
 0001:0000be01       ?AfxExtractSubString@@YGHAAV?$CStringT@_WV?$StrTraitMFC@_WV?$ChTraitsCRT@_W@ATL@@@@@ATL@@PB_WH_W@Z 0040ce01 f   uafxcw:winstr.obj
 0001:0000be86       ?AfxFindStringResourceHandle@@YGPAUHINSTANCE__@@I@Z 0040ce86 f   uafxcw:winstr.obj
 0001:0000be91       ?AfxLoadString@@YGHIPA_WI@Z 0040ce91 f   uafxcw:winstr.obj
 0001:0000bef9       ?GetBufferSetLength@?$CSimpleStringT@_W$0A@@ATL@@QAEPA_WH@Z 0040cef9 f i uafxcw:winstr.obj
 0001:0000bf1c       ?ReleaseBuffer@?$CSimpleStringT@_W$0A@@ATL@@QAEXH@Z 0040cf1c f i uafxcw:winstr.obj
 0001:0000bf48       ??$?5_WV?$StrTraitMFC@_WV?$ChTraitsCRT@_W@ATL@@@@@CArchive@@QAEAAV0@AAV?$CStringT@_WV?$StrTraitMFC@_WV?$ChTraitsCRT@_W@ATL@@@@@ATL@@@Z 0040cf48 f i uafxcw:strcore.obj
 0001:0000c09d       ??$?6_WV?$StrTraitMFC@_WV?$ChTraitsCRT@_W@ATL@@@@@CArchive@@QAEAAV0@ABV?$CStringT@_WV?$StrTraitMFC@_WV?$ChTraitsCRT@_W@ATL@@@@@ATL@@@Z 0040d09d f i uafxcw:strcore.obj
 0001:0000c0cc       ??$AtlMultiplyThrow@I@ATL@@YAIII@Z 0040d0cc f i uafxcw:strcore.obj
 0001:0000c0f2       ??$HashKey@PB_W@@YGIPB_W@Z 0040d0f2 f   uafxcw:strcore.obj
 0001:0000c14d       ??$SerializeElements@V?$CStringT@_WV?$StrTraitMFC@_WV?$ChTraitsCRT@_W@ATL@@@@@ATL@@@@YGXAAVCArchive@@PAV?$CStringT@_WV?$StrTraitMFC@_WV?$ChTraitsCRT@_W@ATL@@@@@ATL@@H@Z 0040d14d f   uafxcw:strcore.obj
 0001:0000c152       ??$SerializeElementsInsertExtract@V?$CStringT@_WV?$StrTraitMFC@_WV?$ChTraitsCRT@_W@ATL@@@@@ATL@@@@YGXAAVCArchive@@PAV?$CStringT@_WV?$StrTraitMFC@_WV?$ChTraitsCRT@_W@ATL@@@@@ATL@@H@Z 0040d152 f i uafxcw:strcore.obj
 0001:0000c1a1       ??0?$CSimpleStringT@_W$0A@@ATL@@QAE@PB_WHPAUIAtlStringMgr@1@@Z 0040d1a1 f i uafxcw:strcore.obj
 0001:0000c214       ??0?$CStringT@_WV?$StrTraitMFC@_WV?$ChTraitsCRT@_W@ATL@@@@@ATL@@QAE@PBDH@Z 0040d214 f i uafxcw:strcore.obj
 0001:0000c288       ??1?$CTempBuffer@D$0IA@VCCRTAllocator@ATL@@@ATL@@QAE@XZ 0040d288 f i uafxcw:strcore.obj
 0001:0000c288       ??1?$CTempBuffer@_W$09VCCRTAllocator@ATL@@@ATL@@QAE@XZ 0040d288 f i uafxcw:afxmaskededit.obj
 0001:0000c288       ??1?$CTempBuffer@_W$0IA@VCCRTAllocator@ATL@@@ATL@@QAE@XZ 0040d288 f i uafxcw:strcore.obj
 0001:0000c294       ??1CComBSTR@ATL@@QAE@XZ    0040d294 f i uafxcw:strcore.obj
 0001:0000c29d       ?AfxA2WHelper@@YGPA_WPA_WPBDH@Z 0040d29d f   uafxcw:strcore.obj
 0001:0000c2b4       ?AfxGetStringManager@@YGPAUIAtlStringMgr@ATL@@XZ 0040d2b4 f   uafxcw:strcore.obj
 0001:0000c2ba       ?Allocate@?$CTempBuffer@D$0IA@VCCRTAllocator@ATL@@@ATL@@QAEPADI@Z 0040d2ba f i uafxcw:strcore.obj
 0001:0000c2e9       ?Allocate@?$CTempBuffer@_W$0IA@VCCRTAllocator@ATL@@@ATL@@QAEPA_WI@Z 0040d2e9 f i uafxcw:strcore.obj
 0001:0000c318       ?Allocate@CAfxStringMgr@@UAEPAUCStringData@ATL@@HH@Z 0040d318 f   uafxcw:strcore.obj
 0001:0000c355       ?AllocateHeap@?$CTempBuffer@D$0IA@VCCRTAllocator@ATL@@@ATL@@AAEXI@Z 0040d355 f i uafxcw:strcore.obj
 0001:0000c355       ?AllocateHeap@?$CTempBuffer@_W$09VCCRTAllocator@ATL@@@ATL@@AAEXI@Z 0040d355 f i uafxcw:afxmaskededit.obj
 0001:0000c355       ?AllocateHeap@?$CTempBuffer@_W$0IA@VCCRTAllocator@ATL@@@ATL@@AAEXI@Z 0040d355 f i uafxcw:strcore.obj
 0001:0000c37a       ?AtlA2WHelper@@YGPA_WPA_WPBDHI@Z 0040d37a f i uafxcw:strcore.obj
 0001:0000c3b2       ?Clone@CAfxStringMgr@@UAEPAUIAtlStringMgr@ATL@@XZ 0040d3b2 f   uafxcw:strcore.obj
 0001:0000c3b2       ?GetActiveFrame@CFrameWnd@@UAEPAV1@XZ 0040d3b2 f   uafxcw:winfrm.obj
 0001:0000c3b2       ?GetReBarCtrl@CMFCReBar@@QBEAAVCReBarCtrl@@XZ 0040d3b2 f   uafxcw:afxrebar.obj
 0001:0000c3b5       ?Free@CAfxStringMgr@@UAEXPAUCStringData@ATL@@@Z 0040d3b5 f   uafxcw:strcore.obj
 0001:0000c3b5       ?Free@CMemFile@@MAEXPAE@Z  0040d3b5 f   uafxcw:filemem.obj
 0001:0000c3c5       ?FreeHeap@?$CTempBuffer@D$0IA@VCCRTAllocator@ATL@@@ATL@@AAEXXZ 0040d3c5 f i uafxcw:strcore.obj
 0001:0000c3c5       ?FreeHeap@?$CTempBuffer@_W$09VCCRTAllocator@ATL@@@ATL@@AAEXXZ 0040d3c5 f i uafxcw:afxmaskededit.obj
 0001:0000c3c5       ?FreeHeap@?$CTempBuffer@_W$0IA@VCCRTAllocator@ATL@@@ATL@@AAEXXZ 0040d3c5 f i uafxcw:strcore.obj
 0001:0000c3ce       ?GetNilString@CAfxStringMgr@@UAEPAUCStringData@ATL@@XZ 0040d3ce f   uafxcw:strcore.obj
 0001:0000c3d6       ?Reallocate@CAfxStringMgr@@UAEPAUCStringData@ATL@@PAU23@HH@Z 0040d3d6 f   uafxcw:strcore.obj
 0001:0000c406       ?DDX_CBIndex@@YGXPAVCDataExchange@@HAAH@Z 0040d406 f   uafxcw:dlgdata.obj
 0001:0000c45c       ?DDX_CBString@@YGXPAVCDataExchange@@HAAV?$CStringT@_WV?$StrTraitMFC@_WV?$ChTraitsCRT@_W@ATL@@@@@ATL@@@Z 0040d45c f   uafxcw:dlgdata.obj
 0001:0000c511       ?DDX_Check@@YGXPAVCDataExchange@@HAAH@Z 0040d511 f   uafxcw:dlgdata.obj
 0001:0000c576       ?DDX_Text@@YGXPAVCDataExchange@@HAAH@Z 0040d576 f   uafxcw:dlgdata.obj
 0001:0000c5a1       ?DDX_Text@@YGXPAVCDataExchange@@HAAI@Z 0040d5a1 f   uafxcw:dlgdata.obj
 0001:0000c5d0       ?DDX_Text@@YGXPAVCDataExchange@@HAAV?$CStringT@_WV?$StrTraitMFC@_WV?$ChTraitsCRT@_W@ATL@@@@@ATL@@@Z 0040d5d0 f   uafxcw:dlgdata.obj
 0001:0000c629       ?Fail@CDataExchange@@QAEXXZ 0040d629 f   uafxcw:dlgdata.obj
 0001:0000c679       ?PrepareCtrl@CDataExchange@@QAEPAUHWND__@@H@Z 0040d679 f   uafxcw:dlgdata.obj
 0001:0000c6bb       ?_Afx_DDX_TextWithFormat@@YAXPAVCDataExchange@@HPB_WIZZ 0040d6bb f   uafxcw:dlgdata.obj
 0001:0000c7a0       ___local_stdio_scanf_options 0040d7a0 f i uafxcw:dlgdata.obj
 0001:0000c7a6       __snwscanf_s               0040d7a6 f i uafxcw:dlgdata.obj
 0001:0000c7c2       __vsnwscanf_s_l            0040d7c2 f i uafxcw:dlgdata.obj
 0001:0000c7ec       __vswprintf_s_l            0040d7ec f i uafxcw:dlgdata.obj
 0001:0000c819       _swprintf_s                0040d819 f i uafxcw:dlgdata.obj
 0001:0000c835       ??0CCmdTarget@@QAE@XZ      0040d835 f   uafxcw:cmdtarg.obj
 0001:0000c85b       ??0CCmdUI@@QAE@XZ          0040d85b f   uafxcw:cmdtarg.obj
 0001:0000c881       ??1CCmdTarget@@UAE@XZ      0040d881 f   uafxcw:cmdtarg.obj
 0001:0000c8d7       ?BeginWaitCursor@CCmdTarget@@QAEXXZ 0040d8d7 f   uafxcw:cmdtarg.obj
 0001:0000c8fa       ?DoUpdate@CCmdUI@@QAEHPAVCCmdTarget@@H@Z 0040d8fa f   uafxcw:cmdtarg.obj
 0001:0000c98d       ?Enable@CCmdUI@@UAEXH@Z    0040d98d f   uafxcw:cmdtarg.obj
 0001:0000ca1b       ?EndWaitCursor@CCmdTarget@@QAEXXZ 0040da1b f   uafxcw:cmdtarg.obj
 0001:0000ca3e       ?GetCommandMap@CCmdTarget@@MBEPBUAFX_OLECMDMAP@@XZ 0040da3e f   uafxcw:cmdtarg.obj
 0001:0000ca44       ?CanAcceptPane@CBasePane@@UBEHPBV1@@Z 0040da44 f   uafxcw:afxpropertysheet.obj
 0001:0000ca44       ?CanBeDocked@CBasePane@@UBEHPAV1@@Z 0040da44 f   uafxcw:afxbasepane.obj
 0001:0000ca44       ?CanInPlaceActivate@XOleIPSite@COleControlSite@@UAGJXZ 0040da44 f   uafxcw:occsite.obj
 0001:0000ca44       ?CompareItem@CComboBox@@UAEHPAUtagCOMPAREITEMSTRUCT@@@Z 0040da44 f   uafxcw:winctrl1.obj
 0001:0000ca44       ?CompareItem@CListBox@@UAEHPAUtagCOMPAREITEMSTRUCT@@@Z 0040da44 f   uafxcw:winctrl1.obj
 0001:0000ca44       ?CreateSite@COccManager@@UAEPAVCOleControlSite@@PAVCOleControlContainer@@@Z 0040da44 f   uafxcw:occmgr.obj
 0001:0000ca44       ?DiscardUndoState@XOleIPSite@COleControlSite@@UAGJXZ 0040da44 f   uafxcw:occsite.obj
 0001:0000ca44       ?EnsureVisible@CMFCBaseTabCtrl@@UAEHH@Z 0040da44 f   uafxcw:afxbasetabctrl.obj
 0001:0000ca44       ?GetConnectionHook@CCmdTarget@@MAEPAUIConnectionPoint@@ABU_GUID@@@Z 0040da44 f   uafxcw:cmdtarg.obj
 0001:0000ca44       ?GetDispatchIID@CCmdTarget@@UAEHPAU_GUID@@@Z 0040da44 f   uafxcw:cmdtarg.obj
 0001:0000ca44       ?GetExtraConnectionPoints@CCmdTarget@@MAEHPAVCPtrArray@@@Z 0040da44 f   uafxcw:cmdtarg.obj
 0001:0000ca44       ?GetInterfaceHook@CCmdTarget@@UAEPAUIUnknown@@PBX@Z 0040da44 f   uafxcw:cmdtarg.obj
 0001:0000ca44       ?GetPreferedMenuLocation@CMFCRibbonPanel@@UAEHAAVCRect@@@Z 0040da44 f   uafxcw:afxribbonpanel.obj
 0001:0000ca44       ?GetScrollBarCtrl@CWnd@@UBEPAVCScrollBar@@H@Z 0040da44 f   uafxcw:wincore.obj
 0001:0000ca44       ?GetTabHorzMargin@CMFCVisualManager@@UAEHPBVCMFCBaseTabCtrl@@@Z 0040da44 f   uafxcw:afxvisualmanager.obj
 0001:0000ca44       ?IsAutoRepeatMode@CMFCRibbonBaseElement@@UBEHAAH@Z 0040da44 f   uafxcw:afxbaseribbonelement.obj
 0001:0000ca44       ?IsDefaultWinXPPopupButton@CMFCVisualManager@@UBEHPAVCMFCDesktopAlertWndButton@@@Z 0040da44 f   uafxcw:afxvisualmanager.obj
 0001:0000ca44       ?IsLeftNavigationPane@CPropertySheet@@MBEHPAUHWND__@@@Z 0040da44 f   uafxcw:dlgprop.obj
 0001:0000ca44       ?IsSelected@CView@@UBEHPBVCObject@@@Z 0040da44 f   uafxcw:viewcore.obj
 0001:0000ca44       ?IsToolbarRoundShape@CMFCVisualManager@@UAEHPAVCMFCToolBar@@@Z 0040da44 f   uafxcw:afxvisualmanager.obj
 0001:0000ca44       ?NotifyCommand@CMFCToolBarButton@@UAEHH@Z 0040da44 f   uafxcw:afxcolorbar.obj
 0001:0000ca44       ?OnCommandControlClick@CTaskDialog@@MAEJH@Z 0040da44 f   uafxcw:afxtaskdialog.obj
 0001:0000ca44       ?OnContextHelp@CMFCToolBarButton@@UAEHPAVCWnd@@@Z 0040da44 f   uafxcw:afxcolorbar.obj
 0001:0000ca44       ?OnCustomizeMenu@CMFCToolBarButton@@UAEHPAVCMenu@@@Z 0040da44 f   uafxcw:afxcolorbar.obj
 0001:0000ca44       ?OnEraseBkgnd@CDummyDockablePane@@IAEHPAVCDC@@@Z 0040da44 f   uafxcw:afxdragframeimpl.obj
 0001:0000ca44       ?OnEraseMDIClientBackground@CMDIFrameWndEx@@UAEHPAVCDC@@@Z 0040da44 f   uafxcw:afxmdiframewndex.obj
 0001:0000ca44       ?OnExpandButtonClick@CTaskDialog@@MAEJH@Z 0040da44 f   uafxcw:afxtaskdialog.obj
 0001:0000ca44       ?OnGetCustomToolTipText@CMFCToolBarButton@@UAEHAAV?$CStringT@_WV?$StrTraitMFC@_WV?$ChTraitsCRT@_W@ATL@@@@@ATL@@@Z 0040da44 f   uafxcw:afxcolorbar.obj
 0001:0000ca44       ?OnInPlaceActivate@XOleIPSite@COleControlSite@@UAGJXZ 0040da44 f   uafxcw:occsite.obj
 0001:0000ca44       ?OnKey@CMFCToolBar@@MAEHI@Z 0040da44 f   uafxcw:afxpropertysheet.obj
 0001:0000ca44       ?OnMenuKey@CMFCRibbonBaseElement@@UAEHI@Z 0040da44 f   uafxcw:afxbaseribbonelement.obj
 0001:0000ca44       ?OnProcessKey@CMFCRibbonBaseElement@@MAEHI@Z 0040da44 f   uafxcw:afxbaseribbonelement.obj
 0001:0000ca44       ?OnRadioButtonClick@CTaskDialog@@MAEJH@Z 0040da44 f   uafxcw:afxtaskdialog.obj
 0001:0000ca44       ?OnSendCommand@CMFCToolBar@@MAEHPBVCMFCToolBarButton@@@Z 0040da44 f   uafxcw:afxtoolbar.obj
 0001:0000ca44       ?OnSetAccData@CMFCBaseAccessibleObject@@UAEHJ@Z 0040da44 f   uafxcw:afxbaseribbonelement.obj
 0001:0000ca44       ?OnShareViolation@CFileDialog@@MAEIPB_W@Z 0040da44 f   uafxcw:dlgfile.obj
 0001:0000ca44       ?OnTimer@CTaskDialog@@MAEJJ@Z 0040da44 f   uafxcw:afxtaskdialog.obj
 0001:0000ca44       ?OnVerificationCheckboxClick@CTaskDialog@@MAEJH@Z 0040da44 f   uafxcw:afxtaskdialog.obj
 0001:0000ca44       ?Release@CArchiveStream@@UAGKXZ 0040da44 f   uafxcw:arcstrm.obj
 0001:0000ca44       ?Release@XEventSink@COleControlSite@@UAGKXZ 0040da44 f   uafxcw:occsite.obj
 0001:0000ca44       ?Release@XNotifyDBEvents@COleControlSite@@UAGKXZ 0040da44 f   uafxcw:occsite.obj
 0001:0000ca44       ?Release@XPropertyNotifySink@COleControlSite@@UAGKXZ 0040da44 f   uafxcw:occsite.obj
 0001:0000ca44       ?Release@XRowsetNotify@COleControlSite@@UAGKXZ 0040da44 f   uafxcw:occsite.obj
 0001:0000ca44       ?ResizeByPaneDivider@CDockingPanesRow@@UAEHH@Z 0040da44 f   uafxcw:afxdockingpanesrow.obj
 0001:0000ca44       ?SetOccDialogInfo@CWnd@@MAEHPAU_AFX_OCC_DIALOG_INFO@@@Z 0040da44 f   uafxcw:wincore.obj
 0001:0000ca44       ?TranslateChar@CMFCPopupMenuBar@@MAEHI@Z 0040da44 f   uafxcw:afxcolorbar.obj
 0001:0000ca49       ?GetConnectionMap@CCmdTarget@@MBEPBUAFX_CONNECTIONMAP@@XZ 0040da49 f   uafxcw:cmdtarg.obj
 0001:0000ca4f       ?GetDispatchMap@CCmdTarget@@MBEPBUAFX_DISPMAP@@XZ 0040da4f f   uafxcw:cmdtarg.obj
 0001:0000ca55       ?GetEventSinkMap@CCmdTarget@@MBEPBUAFX_EVENTSINKMAP@@XZ 0040da55 f   uafxcw:cmdtarg.obj
 0001:0000ca5b       ?GetInterfaceMap@CCmdTarget@@MBEPBUAFX_INTERFACEMAP@@XZ 0040da5b f   uafxcw:cmdtarg.obj
 0001:0000ca61       ?GetMessageMap@CCmdTarget@@MBEPBUAFX_MSGMAP@@XZ 0040da61 f   uafxcw:cmdtarg.obj
 0001:0000ca61       ?GetThisMessageMap@CCmdTarget@@KGPBUAFX_MSGMAP@@XZ 0040da61 f   uafxcw:cmdtarg.obj
 0001:0000ca67       ?GetRuntimeClass@CCmdTarget@@UBEPAUCRuntimeClass@@XZ 0040da67 f   uafxcw:cmdtarg.obj
 0001:0000ca6d       ?AllowAltCustomization@CMFCPopupMenuBar@@MBEHXZ 0040da6d f   uafxcw:afxcolorbar.obj
 0001:0000ca6d       ?AllowChangeTextLabels@CMFCColorBar@@MBEHXZ 0040da6d f   uafxcw:afxcolorbar.obj
 0001:0000ca6d       ?AllowChangeTextLabels@CMFCMenuBar@@UBEHXZ 0040da6d f   uafxcw:afxmenubar.obj
 0001:0000ca6d       ?AllowSelectDisabled@CMFCToolBar@@MBEHXZ 0040da6d f   uafxcw:afxpropertysheet.obj
 0001:0000ca6d       ?AllowShowOnList@CMFCOutlookBarPane@@MBEHXZ 0040da6d f   uafxcw:afxpropertysheet.obj
 0001:0000ca6d       ?AllowShowOnList@CMFCOutlookBarToolBar@@UBEHXZ 0040da6d f   uafxcw:afxoutlookbartabctrl.obj
 0001:0000ca6d       ?AllowShowOnList@CMFCPopupMenuBar@@MBEHXZ 0040da6d f   uafxcw:afxpopupmenubar.obj
 0001:0000ca6d       ?AllowShowOnList@CMFCTasksPaneToolBar@@UBEHXZ 0040da6d f   uafxcw:afxtaskspane.obj
 0001:0000ca6d       ?AllowShowOnPaneMenu@CAutoHideDockSite@@UBEHXZ 0040da6d f   uafxcw:afxautohidedocksite.obj
 0001:0000ca6d       ?AllowShowOnPaneMenu@CMFCAutoHideBar@@UBEHXZ 0040da6d f   uafxcw:afxautohidebar.obj
 0001:0000ca6d       ?AllowShowOnPaneMenu@CMFCDropDownToolBar@@UBEHXZ 0040da6d f   uafxcw:afxdropdowntoolbar.obj
 0001:0000ca6d       ?AllowShowOnPaneMenu@CMFCMenuBar@@UBEHXZ 0040da6d f   uafxcw:afxmenubar.obj
 0001:0000ca6d       ?AllowShowOnPaneMenu@CMFCOutlookBarPane@@MBEHXZ 0040da6d f   uafxcw:afxpropertysheet.obj
 0001:0000ca6d       ?AllowShowOnPaneMenu@CMFCOutlookBarToolBar@@UBEHXZ 0040da6d f   uafxcw:afxoutlookbartabctrl.obj
 0001:0000ca6d       ?AllowShowOnPaneMenu@CMFCPopupMenuBar@@MBEHXZ 0040da6d f   uafxcw:afxcolorbar.obj
 0001:0000ca6d       ?AllowShowOnPaneMenu@CMFCPrintPreviewToolBar@@MBEHXZ 0040da6d f   uafxcw:afxpreviewviewex.obj
 0001:0000ca6d       ?AllowShowOnPaneMenu@CMFCTasksPaneToolBar@@UBEHXZ 0040da6d f   uafxcw:afxtaskspane.obj
 0001:0000ca6d       ?AlwaysHighlight3DTabs@CMFCVisualManager@@UBEHXZ 0040da6d f   uafxcw:afxvisualmanager.obj
 0001:0000ca6d       ?AlwaysSaveSelection@CMFCPopupMenuBar@@MBEHXZ 0040da6d f   uafxcw:afxcolorbar.obj
 0001:0000ca6d       ?AlwaysSaveSelection@CMFCToolBar@@MBEHXZ 0040da6d f   uafxcw:afxpropertysheet.obj
 0001:0000ca6d       ?CanBeAddedToQuickAccessToolBar@CMFCRibbonLabel@@MBEHXZ 0040da6d f   uafxcw:afxribbonlabel.obj
 0001:0000ca6d       ?CanBeAttached@CBasePane@@UBEHXZ 0040da6d f   uafxcw:afxbasepane.obj
 0001:0000ca6d       ?CanBeClosed@CMFCMenuBar@@UBEHXZ 0040da6d f   uafxcw:afxmenubar.obj
 0001:0000ca6d       ?CanBeStored@CMFCCustomizeButton@@UBEHXZ 0040da6d f   uafxcw:afxcustomizebutton.obj
 0001:0000ca6d       ?CanBeStored@CMFCToolBarMenuButtonsButton@@UBEHXZ 0040da6d f   uafxcw:afxtoolbarmenubuttonsbutton.obj
 0001:0000ca6d       ?CanBeStored@CMFCToolBarSystemMenuButton@@UBEHXZ 0040da6d f   uafxcw:afxtoolbarsystemmenubutton.obj
 0001:0000ca6d       ?CanBeStretched@CMFCRibbonButtonsGroup@@MAEHXZ 0040da6d f   uafxcw:afxribbonquickaccesstoolbar.obj
 0001:0000ca6d       ?CanBeStretched@CMFCRibbonEdit@@UAEHXZ 0040da6d f   uafxcw:afxribbonedit.obj
 0001:0000ca6d       ?CanBeStretched@CMFCToolBarButton@@UBEHXZ 0040da6d f   uafxcw:afxcolorbar.obj
 0001:0000ca6d       ?CanBeStretchedHorizontally@CMFCRibbonBaseElement@@UAEHXZ 0040da6d f   uafxcw:afxbaseribbonelement.obj
 0001:0000ca6d       ?CanBeTabbedDocument@CBasePane@@UBEHXZ 0040da6d f   uafxcw:afxbasepane.obj
 0001:0000ca6d       ?CanFloat@CMFCOutlookBarPane@@MBEHXZ 0040da6d f   uafxcw:afxpropertysheet.obj
 0001:0000ca6d       ?CanFocus@CMFCToolBar@@UBEHXZ 0040da6d f   uafxcw:afxpropertysheet.obj
 0001:0000ca6d       ?DoesAllowDynInsertBefore@CDockSite@@UBEHXZ 0040da6d f   uafxcw:afxdocksite.obj
 0001:0000ca6d       ?DoesAllowDynInsertBefore@CMFCCaptionBar@@UBEHXZ 0040da6d f   uafxcw:afxcaptionbar.obj
 0001:0000ca6d       ?DoesAllowDynInsertBefore@CMFCOutlookBar@@UBEHXZ 0040da6d f   uafxcw:afxoutlookbar.obj
 0001:0000ca6d       ?GetCaptionHeight@CBasePane@@UBEHXZ 0040da6d f   uafxcw:afxpropertysheet.obj
 0001:0000ca6d       ?GetDefaultAccelerator@CDocument@@UAEPAUHACCEL__@@XZ 0040da6d f   uafxcw:doccore.obj
 0001:0000ca6d       ?GetDefaultMenu@CDocument@@UAEPAUHMENU__@@XZ 0040da6d f   uafxcw:doccore.obj
 0001:0000ca6d       ?GetDockingPaneCaptionExtraHeight@CMFCVisualManager@@UBEHXZ 0040da6d f   uafxcw:afxvisualmanager.obj
 0001:0000ca6d       ?GetGroupOffset@CMFCRibbonGallery@@UBEHXZ 0040da6d f   uafxcw:afxribbonpalettegallery.obj
 0001:0000ca6d       ?GetHwnd@CMFCToolBarButton@@UAEPAUHWND__@@XZ 0040da6d f   uafxcw:afxcolorbar.obj
 0001:0000ca6d       ?GetOccDialogInfo@CWnd@@MAEPAU_AFX_OCC_DIALOG_INFO@@XZ 0040da6d f   uafxcw:wincore.obj
 0001:0000ca6d       ?GetParentWnd@CMFCBaseAccessibleObject@@UBEPAVCWnd@@XZ 0040da6d f   uafxcw:afxbaseribbonelement.obj
 0001:0000ca6d       ?GetPopupMenuGap@CMFCVisualManagerOfficeXP@@MBEHXZ 0040da6d f   uafxcw:afxvisualmanageroffice2007.obj
 0001:0000ca6d       ?GetRibbonQuickAccessToolBarChevronOffset@CMFCVisualManager@@UAEHXZ 0040da6d f   uafxcw:afxvisualmanager.obj
 0001:0000ca6d       ?GetRibbonQuickAccessToolBarRightMargin@CMFCVisualManager@@UAEHXZ 0040da6d f   uafxcw:afxvisualmanager.obj
 0001:0000ca6d       ?GetTypeInfoCount@CCmdTarget@@UAEIXZ 0040da6d f   uafxcw:cmdtarg.obj
 0001:0000ca6d       ?GetTypeLibCache@CCmdTarget@@UAEPAVCTypeLibCache@@XZ 0040da6d f   uafxcw:cmdtarg.obj
 0001:0000ca6d       ?HasAutoHideMode@CBaseTabbedPane@@UBEHXZ 0040da6d f   uafxcw:afxoutlookbar.obj
 0001:0000ca6d       ?HasButton@CMFCToolBarMenuButton@@UBEHXZ 0040da6d f   uafxcw:afxtoolbarmenubutton.obj
 0001:0000ca6d       ?HasCompactMode@CMFCRibbonBaseElement@@UBEHXZ 0040da6d f   uafxcw:afxbaseribbonelement.obj
 0001:0000ca6d       ?HasFocus@CMFCRibbonBaseElement@@UBEHXZ 0040da6d f   uafxcw:afxbaseribbonelement.obj
 0001:0000ca6d       ?HasLargeMode@CMFCRibbonBaseElement@@UBEHXZ 0040da6d f   uafxcw:afxbaseribbonelement.obj
 0001:0000ca6d       ?HasLargeMode@CMFCRibbonEdit@@UBEHXZ 0040da6d f   uafxcw:afxribbonedit.obj
 0001:0000ca6d       ?HasMenu@CMFCRibbonBaseElement@@UBEHXZ 0040da6d f   uafxcw:afxbaseribbonelement.obj
 0001:0000ca6d       ?HasOverlappedAutoHideButtons@CMFCVisualManager@@UBEHXZ 0040da6d f   uafxcw:afxvisualmanager.obj
 0001:0000ca6d       ?HaveHotBorder@CMFCToolBarMenuButton@@UBEHXZ 0040da6d f   uafxcw:afxtoolbarmenubutton.obj
 0001:0000ca6d       ?HaveHotBorder@CMFCToolBarMenuButtonsButton@@UBEHXZ 0040da6d f   uafxcw:afxtoolbarmenubuttonsbutton.obj
 0001:0000ca6d       ?HaveHotBorder@CMFCToolBarSystemMenuButton@@UBEHXZ 0040da6d f   uafxcw:afxtoolbarsystemmenubutton.obj
 0001:0000ca6d       ?InitInstance@CWinThread@@UAEHXZ 0040da6d f   uafxcw:thrdcore.obj
 0001:0000ca6d       ?IsAccessibilityCompatible@CDockSite@@UAEHXZ 0040da6d f   uafxcw:afxdocksite.obj
 0001:0000ca6d       ?IsAccessibilityCompatible@CDockablePane@@UAEHXZ 0040da6d f   uafxcw:afxoutlookbar.obj
 0001:0000ca6d       ?IsActiveTabCloseButton@CMFCBaseTabCtrl@@UBEHXZ 0040da6d f   uafxcw:afxbasetabctrl.obj
 0001:0000ca6d       ?IsAlignByColumn@CMFCRibbonButtonsGroup@@MBEHXZ 0040da6d f   uafxcw:afxribbonquickaccesstoolbar.obj
 0001:0000ca6d       ?IsAlwaysClose@CMFCPopupMenu@@UBEHXZ 0040da6d f   uafxcw:afxcolorbutton.obj
 0001:0000ca6d       ?IsApplicationButton@CMFCRibbonButton@@UBEHXZ 0040da6d f   uafxcw:afxribbonbutton.obj
 0001:0000ca6d       ?IsAutoHideMode@CBasePane@@UBEHXZ 0040da6d f   uafxcw:afxpropertysheet.obj
 0001:0000ca6d       ?IsBlank@CDocItem@@UBEHXZ  0040da6d f   uafxcw:oledoc1.obj
 0001:0000ca6d       ?IsBorder@CMFCToolBarSystemMenuButton@@UBEHXZ 0040da6d f   uafxcw:afxtoolbarsystemmenubutton.obj
 0001:0000ca6d       ?IsButtonExtraSizeAvailable@CMFCImageEditorPaletteBar@@EBEHXZ 0040da6d f   uafxcw:afximageeditordialog.obj
 0001:0000ca6d       ?IsButtonExtraSizeAvailable@CMFCMenuBar@@UBEHXZ 0040da6d f   uafxcw:afxmenubar.obj
 0001:0000ca6d       ?IsButtonExtraSizeAvailable@CMFCPopupMenuBar@@MBEHXZ 0040da6d f   uafxcw:afxcolorbar.obj
 0001:0000ca6d       ?IsButtonExtraSizeAvailable@CMFCTasksPaneToolBar@@UBEHXZ 0040da6d f   uafxcw:afxtaskspane.obj
 0001:0000ca6d       ?IsCaptionButton@CMFCRibbonBaseElement@@MBEHXZ 0040da6d f   uafxcw:afxbaseribbonelement.obj
 0001:0000ca6d       ?IsDefaultPanelButton@CMFCRibbonButton@@UBEHXZ 0040da6d f   uafxcw:afxribbonbutton.obj
 0001:0000ca6d       ?IsDockBar@CControlBar@@UBEHXZ 0040da6d f   uafxcw:barcore.obj
 0001:0000ca6d       ?IsDockingTabHasBorder@CMFCVisualManagerOffice2003@@UAEHXZ 0040da6d f   uafxcw:afxvisualmanageroffice2007.obj
 0001:0000ca6d       ?IsDroppedDown@CMFCToolBarButton@@UBEHXZ 0040da6d f   uafxcw:afxcolorbar.obj
 0001:0000ca6d       ?IsEditable@CHelpComboBoxButton@@UBEHXZ 0040da6d f   uafxcw:afxmenubar.obj
 0001:0000ca6d       ?IsEditable@CMFCCustomizeButton@@UBEHXZ 0040da6d f   uafxcw:afxcustomizebutton.obj
 0001:0000ca6d       ?IsEmptyMenuAllowed@CMFCToolBarMenuButton@@UBEHXZ 0040da6d f   uafxcw:afxtoolbarmenubutton.obj
 0001:0000ca6d       ?IsExclusive@CMFCToolBarMenuButton@@UBEHXZ 0040da6d f   uafxcw:afxtoolbarmenubutton.obj
 0001:0000ca6d       ?IsFixedSize@CMFCRibbonPanel@@MBEHXZ 0040da6d f   uafxcw:afxribbonpanel.obj
 0001:0000ca6d       ?IsFlatFrame@CMFCBaseTabCtrl@@UBEHXZ 0040da6d f   uafxcw:afxbasetabctrl.obj
 0001:0000ca6d       ?IsFlatTab@CMFCBaseTabCtrl@@UBEHXZ 0040da6d f   uafxcw:afxbasetabctrl.obj
 0001:0000ca6d       ?IsFrameWnd@CWnd@@UBEHXZ   0040da6d f   uafxcw:wincore.obj
 0001:0000ca6d       ?IsGalleryIcon@CMFCRibbonBaseElement@@UBEHXZ 0040da6d f   uafxcw:afxbaseribbonelement.obj
 0001:0000ca6d       ?IsHighlightOneNoteTabs@CMFCVisualManager@@UBEHXZ 0040da6d f   uafxcw:afxvisualmanager.obj
 0001:0000ca6d       ?IsHighlightWholeMenuItem@CMFCVisualManager@@UAEHXZ 0040da6d f   uafxcw:afxvisualmanager.obj
 0001:0000ca6d       ?IsInFloatingMultiPaneFrameWnd@CBasePane@@UBEHXZ 0040da6d f   uafxcw:afxbasepane.obj
 0001:0000ca6d       ?IsInFloatingMultiPaneFrameWnd@CPane@@UBEHXZ 0040da6d f   uafxcw:afxpropertysheet.obj
 0001:0000ca6d       ?IsItemMenuLook@CMFCRibbonGallery@@MBEHXZ 0040da6d f   uafxcw:afxribboncolorbutton.obj
 0001:0000ca6d       ?IsLayeredRibbonKeyTip@CMFCVisualManager@@UBEHXZ 0040da6d f   uafxcw:afxvisualmanager.obj
 0001:0000ca6d       ?IsLeftRightRounded@CMFCBaseTabCtrl@@UBEHXZ 0040da6d f   uafxcw:afxbasetabctrl.obj
 0001:0000ca6d       ?IsMainPanel@CMFCRibbonPanel@@UBEHXZ 0040da6d f   uafxcw:afxribbonpanel.obj
 0001:0000ca6d       ?IsOffsetPressedButton@CMFCVisualManagerOffice2003@@UBEHXZ 0040da6d f   uafxcw:afxvisualmanageroffice2007.obj
 0001:0000ca6d       ?IsOneNoteStyle@CMFCBaseTabCtrl@@UBEHXZ 0040da6d f   uafxcw:afxbasetabctrl.obj
 0001:0000ca6d       ?IsOwnerDrawCaption@CMFCVisualManager@@UAEHXZ 0040da6d f   uafxcw:afxvisualmanager.obj
 0001:0000ca6d       ?IsOwnerDrawMenuCheck@CMFCVisualManager@@UAEHXZ 0040da6d f   uafxcw:afxvisualmanager.obj
 0001:0000ca6d       ?IsQuickAccessToolBar@CMFCRibbonButtonsGroup@@MBEHXZ 0040da6d f   uafxcw:afxribbonmainpanel.obj
 0001:0000ca6d       ?IsReadOnly@CMDIChildWndEx@@UAEHXZ 0040da6d f   uafxcw:afxmdichildwndex.obj
 0001:0000ca6d       ?IsResizable@CDockSite@@UBEHXZ 0040da6d f   uafxcw:afxdocksite.obj
 0001:0000ca6d       ?IsResizable@CPane@@UBEHXZ 0040da6d f   uafxcw:afxpropertysheet.obj
 0001:0000ca6d       ?IsRibbonMiniToolBar@CMFCPopupMenu@@MBEHXZ 0040da6d f   uafxcw:afxcolorbutton.obj
 0001:0000ca6d       ?IsRibbonPanel@CMFCPopupMenuBar@@UBEHXZ 0040da6d f   uafxcw:afxcolorbar.obj
 0001:0000ca6d       ?IsRibbonPanelInRegularMode@CMFCPopupMenuBar@@UBEHXZ 0040da6d f   uafxcw:afxcolorbar.obj
 0001:0000ca6d       ?IsSeparator@CMFCRibbonBaseElement@@UBEHXZ 0040da6d f   uafxcw:afxbaseribbonelement.obj
 0001:0000ca6d       ?IsShowTooltipOnBottom@CMFCRibbonCaptionButton@@MBEHXZ 0040da6d f   uafxcw:afxribbonbar.obj
 0001:0000ca6d       ?IsShowTooltipOnBottom@CMFCRibbonTab@@UBEHXZ 0040da6d f   uafxcw:afxribboncategory.obj
 0001:0000ca6d       ?IsTabStop@CMFCRibbonLabel@@MBEHXZ 0040da6d f   uafxcw:afxribbonlabel.obj
 0001:0000ca6d       ?IsTabStop@CMFCRibbonSeparator@@MBEHXZ 0040da6d f   uafxcw:afxbaseribbonelement.obj
 0001:0000ca6d       ?IsTabStop@CRibbonUndoLabel@@UBEHXZ 0040da6d f   uafxcw:afxribbonundobutton.obj
 0001:0000ca6d       ?IsTabbed@CMFCOutlookBarToolBar@@UBEHXZ 0040da6d f   uafxcw:afxoutlookbartabctrl.obj
 0001:0000ca6d       ?IsTabbedMDIChild@CMDIChildWnd@@UAEHXZ 0040da6d f   uafxcw:winmdi.obj
 0001:0000ca6d       ?IsToolBox@CMFCTasksPane@@UBEHXZ 0040da6d f   uafxcw:afxtaskspane.obj
 0001:0000ca6d       ?IsVS2005Style@CMFCBaseTabCtrl@@UBEHXZ 0040da6d f   uafxcw:afxbasetabctrl.obj
 0001:0000ca6d       ?IsWholeRowHeight@CMFCRibbonBaseElement@@UBEHXZ 0040da6d f   uafxcw:afxbaseribbonelement.obj
 0001:0000ca6d       ?IsWindowsThemingSupported@CMFCVisualManager@@UBEHXZ 0040da6d f   uafxcw:afxvisualmanager.obj
 0001:0000ca6d       ?OnAutoRepeat@CMFCRibbonBaseElement@@UAEHXZ 0040da6d f   uafxcw:afxbaseribbonelement.obj
 0001:0000ca6d       ?OnClickMenuItem@CMFCToolBarMenuButton@@UAEHXZ 0040da6d f   uafxcw:afxtoolbarmenubutton.obj
 0001:0000ca6d       ?OnClickUp@CMFCToolBarButton@@UAEHXZ 0040da6d f   uafxcw:afxcolorbar.obj
 0001:0000ca6d       ?OnColorOK@CColorDialog@@MAEHXZ 0040da6d f   uafxcw:dlgclr.obj
 0001:0000ca6d       ?OnCreate@CTaskDialog@@MAEJXZ 0040da6d f   uafxcw:afxtaskdialog.obj
 0001:0000ca6d       ?OnDestroy@CTaskDialog@@MAEJXZ 0040da6d f   uafxcw:afxtaskdialog.obj
 0001:0000ca6d       ?OnFileNameOK@CFileDialog@@MAEHXZ 0040da6d f   uafxcw:dlgfile.obj
 0001:0000ca6d       ?OnInit@CTaskDialog@@MAEJXZ 0040da6d f   uafxcw:afxtaskdialog.obj
 0001:0000ca6d       ?OnNavigatePage@CTaskDialog@@MAEJXZ 0040da6d f   uafxcw:afxtaskdialog.obj
 0001:0000ca6d       ?OnWizardBack@CPropertyPage@@UAEJXZ 0040da6d f   uafxcw:dlgprop.obj
 0001:0000ca6d       ?OnWizardNext@CPropertyPage@@UAEJXZ 0040da6d f   uafxcw:dlgprop.obj
 0001:0000ca6d       ___scrt_exe_initialize_mta 0040da6d f   libcmt:utility_desktop.obj
 0001:0000ca6d       ___scrt_initialize_winrt   0040da6d f   libcmt:utility_desktop.obj
 0001:0000ca6d       ___scrt_stub_for_initialize_mta 0040da6d f   libcmt:utility_desktop.obj
 0001:0000ca6d       __get_startup_commit_mode  0040da6d f   libcmt:commit_mode.obj
 0001:0000ca6d       __get_startup_new_mode     0040da6d f   libcmt:new_mode.obj
 0001:0000ca6d       __get_startup_thread_locale_mode 0040da6d f   libcmt:thread_locale.obj
 0001:0000ca6d       __matherr                  0040da6d f   libcmt:matherr.obj
 0001:0000ca70       ?GetTypeLib@CCmdTarget@@UAEJKPAPAUITypeLib@@@Z 0040da70 f   uafxcw:cmdtarg.obj
 0001:0000ca78       ?AddRef@CArchiveStream@@UAGKXZ 0040da78 f   uafxcw:arcstrm.obj
 0001:0000ca78       ?AddRef@XEventSink@COleControlSite@@UAGKXZ 0040da78 f   uafxcw:occsite.obj
 0001:0000ca78       ?AddRef@XNotifyDBEvents@COleControlSite@@UAGKXZ 0040da78 f   uafxcw:occsite.obj
 0001:0000ca78       ?AddRef@XPropertyNotifySink@COleControlSite@@UAGKXZ 0040da78 f   uafxcw:occsite.obj
 0001:0000ca78       ?AddRef@XRowsetNotify@COleControlSite@@UAGKXZ 0040da78 f   uafxcw:occsite.obj
 0001:0000ca78       ?CanBeDropped@CMFCToolBarButton@@UAEHPAVCMFCToolBar@@@Z 0040da78 f   uafxcw:afxcolorbar.obj
 0001:0000ca78       ?CheckToolsValidity@CMFCToolBarsCustomizeDialog@@MAEHABVCObList@@@Z 0040da78 f   uafxcw:afxtoolbarscustomizedialog.obj
 0001:0000ca78       ?IsAutoRepeatMode@CRibbonCategoryScroll@@EBEHAAH@Z 0040da78 f   uafxcw:afxribboncategory.obj
 0001:0000ca78       ?IsInvokeAllowed@CCmdTarget@@UAEHJ@Z 0040da78 f   uafxcw:cmdtarg.obj
 0001:0000ca78       ?OnAfterShowPaneMenu@CPane@@MAEHH@Z 0040da78 f   uafxcw:afxpropertysheet.obj
 0001:0000ca78       ?OnAssignKey@CMFCToolBarsCustomizeDialog@@MAEHPAUtagACCEL@@@Z 0040da78 f   uafxcw:afxtoolbarscustomizedialog.obj
 0001:0000ca78       ?OnBeforeAnimation@CMFCOutlookBar@@UAEHH@Z 0040da78 f   uafxcw:afxoutlookbar.obj
 0001:0000ca78       ?OnBeforeDrop@CMFCToolBarButton@@UAEHPAVCMFCToolBar@@@Z 0040da78 f   uafxcw:afxcolorbar.obj
 0001:0000ca78       ?OnBeforeRemoveItem@CVSListBoxBase@@UAEHH@Z 0040da78 f   uafxcw:afxvslistbox.obj
 0001:0000ca78       ?OnBeforeShowPaneMenu@CPane@@MAEHAAVCMenu@@@Z 0040da78 f   uafxcw:afxpropertysheet.obj
 0001:0000ca78       ?OnCloseDockingPane@CFrameWndEx@@UAEHPAVCDockablePane@@@Z 0040da78 f   uafxcw:afxframewndex.obj
 0001:0000ca78       ?OnCloseDockingPane@CMDIFrameWndEx@@UAEHPAVCDockablePane@@@Z 0040da78 f   uafxcw:afxmdiframewndex.obj
 0001:0000ca78       ?OnCloseDockingPane@COleDocIPFrameWndEx@@UAEHPAVCDockablePane@@@Z 0040da78 f   uafxcw:afxoledocipframewndex.obj
 0001:0000ca78       ?OnCloseDockingPane@COleIPFrameWndEx@@UAEHPAVCDockablePane@@@Z 0040da78 f   uafxcw:afxoleipframewndex.obj
 0001:0000ca78       ?OnCloseMiniFrame@CFrameWndEx@@UAEHPAVCPaneFrameWnd@@@Z 0040da78 f   uafxcw:afxframewndex.obj
 0001:0000ca78       ?OnCloseMiniFrame@CMDIFrameWndEx@@UAEHPAVCPaneFrameWnd@@@Z 0040da78 f   uafxcw:afxmdiframewndex.obj
 0001:0000ca78       ?OnCloseMiniFrame@COleDocIPFrameWndEx@@UAEHPAVCPaneFrameWnd@@@Z 0040da78 f   uafxcw:afxoledocipframewndex.obj
 0001:0000ca78       ?OnCloseMiniFrame@COleIPFrameWndEx@@UAEHPAVCPaneFrameWnd@@@Z 0040da78 f   uafxcw:afxoleipframewndex.obj
 0001:0000ca78       ?OnEraseBkgnd@CBasePane@@IAEHPAVCDC@@@Z 0040da78 f   uafxcw:afxbasepane.obj
 0001:0000ca78       ?OnEraseBkgnd@CBaseTabbedPane@@IAEHPAVCDC@@@Z 0040da78 f   uafxcw:afxbasetabbedpane.obj
 0001:0000ca78       ?OnEraseBkgnd@CMDIChildWndEx@@IAEHPAVCDC@@@Z 0040da78 f   uafxcw:afxmdichildwndex.obj
 0001:0000ca78       ?OnEraseBkgnd@CMFCButton@@IAEHPAVCDC@@@Z 0040da78 f   uafxcw:afxbutton.obj
 0001:0000ca78       ?OnEraseBkgnd@CMFCCaptionBar@@IAEHPAVCDC@@@Z 0040da78 f   uafxcw:afxcaptionbar.obj
 0001:0000ca78       ?OnEraseBkgnd@CMFCColorPickerCtrl@@IAEHPAVCDC@@@Z 0040da78 f   uafxcw:afxcolorpickerctrl.obj
 0001:0000ca78       ?OnEraseBkgnd@CMFCHeaderCtrl@@IAEHPAVCDC@@@Z 0040da78 f   uafxcw:afxheaderctrl.obj
 0001:0000ca78       ?OnEraseBkgnd@CMFCImagePaintArea@@IAEHPAVCDC@@@Z 0040da78 f   uafxcw:afximagepaintarea.obj
 0001:0000ca78       ?OnEraseBkgnd@CMFCOutlookBarPane@@IAEHPAVCDC@@@Z 0040da78 f   uafxcw:afxoutlookbarpane.obj
 0001:0000ca78       ?OnEraseBkgnd@CMFCOutlookBarTabCtrl@@IAEHPAVCDC@@@Z 0040da78 f   uafxcw:afxoutlookbartabctrl.obj
 0001:0000ca78       ?OnEraseBkgnd@CMFCPopupMenu@@IAEHPAVCDC@@@Z 0040da78 f   uafxcw:afxpopupmenu.obj
 0001:0000ca78       ?OnEraseBkgnd@CMFCPropertyGridCtrl@@IAEHPAVCDC@@@Z 0040da78 f   uafxcw:afxpropertygridctrl.obj
 0001:0000ca78       ?OnEraseBkgnd@CMFCPropertyGridToolTipCtrl@@IAEHPAVCDC@@@Z 0040da78 f   uafxcw:afxpropertygridtooltipctrl.obj
 0001:0000ca78       ?OnEraseBkgnd@CMFCRibbonKeyTip@@IAEHPAVCDC@@@Z 0040da78 f   uafxcw:afxribbonkeytip.obj
 0001:0000ca78       ?OnEraseBkgnd@CMFCShadowWnd@@IAEHPAVCDC@@@Z 0040da78 f   uafxcw:afxpopupmenu.obj
 0001:0000ca78       ?OnEraseBkgnd@CMFCSpinButtonCtrl@@IAEHPAVCDC@@@Z 0040da78 f   uafxcw:afxspinbuttonctrl.obj
 0001:0000ca78       ?OnEraseBkgnd@CMFCTasksPane@@IAEHPAVCDC@@@Z 0040da78 f   uafxcw:afxtaskspane.obj
 0001:0000ca78       ?OnEraseBkgnd@CMFCToolBar@@IAEHPAVCDC@@@Z 0040da78 f   uafxcw:afxtoolbar.obj
 0001:0000ca78       ?OnEraseBkgnd@CPaneDivider@@IAEHPAVCDC@@@Z 0040da78 f   uafxcw:afxpanedivider.obj
 0001:0000ca78       ?OnEraseBkgnd@CPaneFrameWnd@@IAEHPAVCDC@@@Z 0040da78 f   uafxcw:afxpaneframewnd.obj
 0001:0000ca78       ?OnEraseBkgnd@CPaneTrackingWnd@@IAEHPAVCDC@@@Z 0040da78 f   uafxcw:afxpanedivider.obj
 0001:0000ca78       ?OnEraseBkgnd@CScreenWnd@@IAEHPAVCDC@@@Z 0040da78 f   uafxcw:afxcolordialog.obj
 0001:0000ca78       ?OnEraseBkgnd@CSmartDockingGroupGuidesWnd@@QAEHPAVCDC@@@Z 0040da78 f   uafxcw:afxsmartdockingguide.obj
 0001:0000ca78       ?OnEraseBkgnd@CSmartDockingHighlighterWnd@@IAEHPAVCDC@@@Z 0040da78 f   uafxcw:afxsmartdockinghighlighterwnd.obj
 0001:0000ca78       ?OnEraseBkgnd@CSmartDockingStandaloneGuideWnd@@IAEHPAVCDC@@@Z 0040da78 f   uafxcw:afxsmartdockingguide.obj
 0001:0000ca78       ?OnEraseBkgnd@CVSListBoxBase@@IAEHPAVCDC@@@Z 0040da78 f   uafxcw:afxvslistbox.obj
 0001:0000ca78       ?OnPreparePrinting@CView@@MAEHPAUCPrintInfo@@@Z 0040da78 f   uafxcw:viewcore.obj
 0001:0000ca78       ?OnRemoveKey@CMFCToolBarsCustomizeDialog@@MAEHPAUtagACCEL@@@Z 0040da78 f   uafxcw:afxtoolbarscustomizedialog.obj
 0001:0000ca78       ?OnSetAccData@CBasePane@@UAEHJ@Z 0040da78 f   uafxcw:afxbasepane.obj
 0001:0000ca78       ?OnShowPopupMenu@COleDocIPFrameWndEx@@UAEHPAVCMFCPopupMenu@@@Z 0040da78 f   uafxcw:afxoledocipframewndex.obj
 0001:0000ca78       ?OnShowPopupMenu@COleIPFrameWndEx@@UAEHPAVCMFCPopupMenu@@@Z 0040da78 f   uafxcw:afxoleipframewndex.obj
 0001:0000ca78       ?UpdateInternalImage@CMFCToolBarImages@@IAEHH@Z 0040da78 f   uafxcw:afxtoolbarimages.obj
 0001:0000ca78       ?ValidateItemData@CMFCPropertyGridCtrl@@UAEHPAVCMFCPropertyGridProperty@@@Z 0040da78 f   uafxcw:afxpropertygridctrl.obj
 0001:0000ca7e       ?OnCmdMsg@CCmdTarget@@UAEHIHPAXPAUAFX_CMDHANDLERINFO@@@Z 0040da7e f   uafxcw:cmdtarg.obj
 0001:0000cd3a       ?AllowAltCustomization@CMFCToolBar@@MBEHXZ 0040dd3a f   uafxcw:afxpropertysheet.obj
 0001:0000cd3a       ?AllowChangeTextLabels@CMFCToolBar@@UBEHXZ 0040dd3a f   uafxcw:afxpropertysheet.obj
 0001:0000cd3a       ?AllowDestroyEmptyTabbedPane@CBaseTabbedPane@@UBEHXZ 0040dd3a f   uafxcw:afxbasetabbedpane.obj
 0001:0000cd3a       ?AllowDestroyEmptyTabbedPane@CMFCTabCtrl@@UBEHXZ 0040dd3a f   uafxcw:afxpropertysheet.obj
 0001:0000cd3a       ?AllowShowOnList@CMFCColorBar@@MBEHXZ 0040dd3a f   uafxcw:afxcolorbar.obj
 0001:0000cd3a       ?AllowShowOnList@CMFCToolBar@@MBEHXZ 0040dd3a f   uafxcw:afxtoolbar.obj
 0001:0000cd3a       ?AllowShowOnPaneMenu@CPane@@UBEHXZ 0040dd3a f   uafxcw:afxpane.obj
 0001:0000cd3a       ?CanAddPageToDynamicLayout@CPropertySheet@@MBEHXZ 0040dd3a f   uafxcw:dlgprop.obj
 0001:0000cd3a       ?CanBeAddedToQuickAccessToolBar@CMFCRibbonDefaultPanelButton@@UBEHXZ 0040dd3a f   uafxcw:afxribbonpanel.obj
 0001:0000cd3a       ?CanBeAddedToQuickAccessToolBar@CMFCRibbonGalleryIcon@@MBEHXZ 0040dd3a f   uafxcw:afxribbonpalettegallery.obj
 0001:0000cd3a       ?CanBeAttached@CDockablePane@@UBEHXZ 0040dd3a f   uafxcw:afxoutlookbar.obj
 0001:0000cd3a       ?CanBeAttached@CMFCOutlookBarPane@@UBEHXZ 0040dd3a f   uafxcw:afxpropertysheet.obj
 0001:0000cd3a       ?CanBeRestored@CMFCMenuBar@@UBEHXZ 0040dd3a f   uafxcw:afxmenubar.obj
 0001:0000cd3a       ?CanBeStored@CMFCToolBarButton@@UBEHXZ 0040dd3a f   uafxcw:afxcolorbar.obj
 0001:0000cd3a       ?CanBeStretched@CMFCRibbonBaseElement@@UAEHXZ 0040dd3a f   uafxcw:afxbaseribbonelement.obj
 0001:0000cd3a       ?CanBeStretched@CMFCToolBarComboBoxButton@@UBEHXZ 0040dd3a f   uafxcw:afxtoolbarcomboboxbutton.obj
 0001:0000cd3a       ?CanBeStretched@CMFCToolBarEditBoxButton@@UBEHXZ 0040dd3a f   uafxcw:afxtoolbareditboxbutton.obj
 0001:0000cd3a       ?CanFocus@CBasePane@@UBEHXZ 0040dd3a f   uafxcw:afxbasepane.obj
 0001:0000cd3a       ?CanShowOnTaskBarTabs@CMDIChildWndEx@@UAEHXZ 0040dd3a f   uafxcw:afxmdichildwndex.obj
 0001:0000cd3a       ?CanShowOnWindowsList@CMDIChildWndEx@@UAEHXZ 0040dd3a f   uafxcw:afxmdichildwndex.obj
 0001:0000cd3a       ?CheckAutoCenter@CWnd@@UAEHXZ 0040dd3a f   uafxcw:wincore.obj
 0001:0000cd3a       ?CheckTabbedBarAlignment@CTabbedPane@@MAEHXZ 0040dd3a f   uafxcw:afxtabbedpane.obj
 0001:0000cd3a       ?Create@CDockingPanesRow@@UAEHXZ 0040dd3a f   uafxcw:afxdockingpanesrow.obj
 0001:0000cd3a       ?DefaultMouseClickOnClose@CMFCPopupMenu@@UBEHXZ 0040dd3a f   uafxcw:afxcolorbutton.obj
 0001:0000cd3a       ?GetDockingMode@CMFCBaseToolBar@@UBE?AW4AFX_DOCK_TYPE@@XZ 0040dd3a f   uafxcw:afxpropertysheet.obj
 0001:0000cd3a       ?GetPopupMenuGap@CMFCVisualManager@@UBEHXZ 0040dd3a f   uafxcw:afxvisualmanager.obj
 0001:0000cd3a       ?GetSmartDockingTheme@CMFCVisualManager@@UAE?AW4AFX_SMARTDOCK_THEME@@XZ 0040dd3a f   uafxcw:afxvisualmanager.obj
 0001:0000cd3a       ?GetToolBarCustomizeButtonMargin@CMFCVisualManagerOffice2003@@UBEHXZ 0040dd3a f   uafxcw:afxvisualmanageroffice2007.obj
 0001:0000cd3a       ?HasAutoHideMode@CDockablePane@@UBEHXZ 0040dd3a f   uafxcw:afxdockablepaneadapter.obj
 0001:0000cd3a       ?HasAutoHideMode@CTabbedPane@@UBEHXZ 0040dd3a f   uafxcw:afxtabbedpane.obj
 0001:0000cd3a       ?HasCompactMode@CMFCRibbonEdit@@UBEHXZ 0040dd3a f   uafxcw:afxribbonedit.obj
 0001:0000cd3a       ?HasIntermediateMode@CMFCRibbonBaseElement@@UBEHXZ 0040dd3a f   uafxcw:afxbaseribbonelement.obj
 0001:0000cd3a       ?HasMenu@CMFCRibbonColorButton@@MBEHXZ 0040dd3a f   uafxcw:afxribboncolorbutton.obj
 0001:0000cd3a       ?HasMenu@CMFCRibbonQuickAccessCustomizeButton@@UBEHXZ 0040dd3a f   uafxcw:afxribbonquickaccesstoolbar.obj
 0001:0000cd3a       ?HasMenu@CMFCRibbonUndoButton@@UBEHXZ 0040dd3a f   uafxcw:afxribbonundobutton.obj
 0001:0000cd3a       ?HaveHotBorder@CMFCToolBarButton@@UBEHXZ 0040dd3a f   uafxcw:afxcolorbar.obj
 0001:0000cd3a       ?HideInPrintPreviewMode@CBasePane@@UBEHXZ 0040dd3a f   uafxcw:afxpropertysheet.obj
 0001:0000cd3a       ?Is32BitTransparencySupported@CMFCToolBarImages@@SGHXZ 0040dd3a f   uafxcw:afxtoolbarimages.obj
 0001:0000cd3a       ?IsAccessibilityCompatible@CBasePane@@UAEHXZ 0040dd3a f   uafxcw:afxpropertysheet.obj
 0001:0000cd3a       ?IsAccessibilityCompatible@CMFCTasksPane@@UAEHXZ 0040dd3a f   uafxcw:afxtaskspane.obj
 0001:0000cd3a       ?IsAlignByColumn@CMFCRibbonBaseElement@@UBEHXZ 0040dd3a f   uafxcw:afxbaseribbonelement.obj
 0001:0000cd3a       ?IsBorder@CMFCToolBarMenuButton@@UBEHXZ 0040dd3a f   uafxcw:afxtoolbarmenubutton.obj
 0001:0000cd3a       ?IsButtonExtraSizeAvailable@CMFCToolBar@@UBEHXZ 0040dd3a f   uafxcw:afxpropertysheet.obj
 0001:0000cd3a       ?IsCaptionButton@CMFCRibbonCaptionButton@@MBEHXZ 0040dd3a f   uafxcw:afxribbonbar.obj
 0001:0000cd3a       ?IsDefaultPanelButton@CMFCRibbonDefaultPanelButton@@UBEHXZ 0040dd3a f   uafxcw:afxribbonpanel.obj
 0001:0000cd3a       ?IsDockBar@CDockBar@@UBEHXZ 0040dd3a f   uafxcw:bardock.obj
 0001:0000cd3a       ?IsDockingTabHasBorder@CMFCVisualManager@@UAEHXZ 0040dd3a f   uafxcw:afxvisualmanager.obj
 0001:0000cd3a       ?IsDrawTooltipImage@CMFCRibbonButton@@UBEHXZ 0040dd3a f   uafxcw:afxribbonbutton.obj
 0001:0000cd3a       ?IsEmptyMenuAllowed@CMFCColorMenuButton@@MBEHXZ 0040dd3a f   uafxcw:afxcolormenubutton.obj
 0001:0000cd3a       ?IsEmptyMenuAllowed@CMFCCustomizeButton@@UBEHXZ 0040dd3a f   uafxcw:afxcustomizebutton.obj
 0001:0000cd3a       ?IsFixedSize@CMFCRibbonMainPanel@@MBEHXZ 0040dd3a f   uafxcw:afxribbonmainpanel.obj
 0001:0000cd3a       ?IsFrameWnd@CFrameWnd@@UBEHXZ 0040dd3a f   uafxcw:wincore.obj
 0001:0000cd3a       ?IsHighlightOneNoteTabs@CMFCVisualManagerOffice2003@@UBEHXZ 0040dd3a f   uafxcw:afxvisualmanageroffice2007.obj
 0001:0000cd3a       ?IsHighlightWholeMenuItem@CMFCVisualManagerOfficeXP@@MAEHXZ 0040dd3a f   uafxcw:afxvisualmanageroffice2007.obj
 0001:0000cd3a       ?IsMainPanel@CMFCRibbonMainPanel@@MBEHXZ 0040dd3a f   uafxcw:afxribbonmainpanel.obj
 0001:0000cd3a       ?IsOffsetPressedButton@CMFCVisualManager@@UBEHXZ 0040dd3a f   uafxcw:afxvisualmanager.obj
 0001:0000cd3a       ?IsPopupDefaultMenuLook@CMFCRibbonButton@@UBEHXZ 0040dd3a f   uafxcw:afxribbonbutton.obj
 0001:0000cd3a       ?IsQuickAccessToolBar@CMFCRibbonQuickAccessToolBar@@MBEHXZ 0040dd3a f   uafxcw:afxribbonquickaccesstoolbar.obj
 0001:0000cd3a       ?IsResizable@CBasePane@@UBEHXZ 0040dd3a f   uafxcw:afxbasepane.obj
 0001:0000cd3a       ?IsResizable@CDockablePane@@UBEHXZ 0040dd3a f   uafxcw:afxoutlookbar.obj
 0001:0000cd3a       ?IsRibbonMiniToolBar@CMFCRibbonMiniToolBar@@UBEHXZ 0040dd3a f   uafxcw:afxribbonminitoolbar.obj
 0001:0000cd3a       ?IsRibbonPanel@CMFCRibbonPanelMenuBar@@UBEHXZ 0040dd3a f   uafxcw:afxribbonpanelmenu.obj
 0001:0000cd3a       ?IsSeparator@CMFCRibbonSeparator@@MBEHXZ 0040dd3a f   uafxcw:afxbaseribbonelement.obj
 0001:0000cd3a       ?IsTabLocationBottom@CDockablePane@@UBEHXZ 0040dd3a f   uafxcw:afxoutlookbar.obj
 0001:0000cd3a       ?IsTabStop@CMFCRibbonBaseElement@@UBEHXZ 0040dd3a f   uafxcw:afxbaseribbonelement.obj
 0001:0000cd3a       ?OnBeforeDrag@CMFCToolBarButton@@UBEHXZ 0040dd3a f   uafxcw:afxcolorbar.obj
 0001:0000cd3a       ?OnCreateAggregates@CCmdTarget@@UAEHXZ 0040dd3a f   uafxcw:cmdtarg.obj
 0001:0000cd3a       ?OnGetDlgCode@CMFCColorButton@@IAEIXZ 0040dd3a f   uafxcw:afxcolorbutton.obj
 0001:0000cd3a       ?OnGetDlgCode@CMFCColorPickerCtrl@@IAEIXZ 0040dd3a f   uafxcw:afxcolorpickerctrl.obj
 0001:0000cd3a       ?OnGetDlgCode@CMFCMenuButton@@IAEIXZ 0040dd3a f   uafxcw:afxmenubutton.obj
 0001:0000cd3a       ?OnGetDlgCode@CMFCToolBarButtonsListButton@@IAEIXZ 0040dd3a f   uafxcw:afxtoolbarbuttonslistbutton.obj
 0001:0000cd3a       ?OnHelp@CTaskDialog@@MAEJXZ 0040dd3a f   uafxcw:afxtaskdialog.obj
 0001:0000cd3a       ?OnQueryCancel@CPropertyPage@@UAEHXZ 0040dd3a f   uafxcw:dlgprop.obj
 0001:0000cd3a       ?Register@CWinApp@@UAEHXZ  0040dd3a f   uafxcw:appui2.obj
 0001:0000cd3a       __get_startup_argv_mode    0040dd3a f   libcmt:argv_mode.obj
 0001:0000cd3e       ?OnFinalRelease@CCmdTarget@@UAEXXZ 0040dd3e f   uafxcw:cmdtarg.obj
 0001:0000cd82       ?SetCheck@CCmdUI@@UAEXH@Z  0040dd82 f   uafxcw:cmdtarg.obj
 0001:0000cdfa       ?SetRadio@CCmdUI@@UAEXH@Z  0040ddfa f   uafxcw:cmdtarg.obj
 0001:0000ce68       ?SetText@CCmdUI@@UAEXPB_W@Z 0040de68 f   uafxcw:cmdtarg.obj
 0001:0000cec9       ?_AfxLoadDotBitmap@@YGXXZ  0040dec9 f   uafxcw:cmdtarg.obj
 0001:0000d00e       _IsEqualGUID               0040e00e f i uafxcw:cmdtarg.obj
 0001:0000d028       ??$AccessibilityCreateInstance@VCAccessibleProxy@ATL@@@@YGJPAPAV?$CComObjectNoLock@VCAccessibleProxy@ATL@@@ATL@@@Z 0040e028 f i uafxcw:wincore.obj
 0001:0000d0da       ??0CTestCmdUI@@QAE@XZ      0040e0da f   uafxcw:wincore.obj
 0001:0000d0f3       ??0CWnd@@AAE@PAUHWND__@@@Z 0040e0f3 f   uafxcw:wincore.obj
 0001:0000d169       ??0CWnd@@QAE@XZ            0040e169 f   uafxcw:wincore.obj
 0001:0000d185       ??1?$CComObjectNoLock@VCAccessibleProxy@ATL@@@ATL@@UAE@XZ 0040e185 f i uafxcw:wincore.obj
 0001:0000d1d9       ??1?$CComPtr@UIAccessibleProxy@@@ATL@@QAE@XZ 0040e1d9 f i uafxcw:wincore.obj
 0001:0000d1d9       ??1?$CComPtr@UIShellItem@@@ATL@@QAE@XZ 0040e1d9 f i uafxcw:filelist.obj
 0001:0000d1d9       ??1?$CComPtr@UIUnknown@@@ATL@@QAE@XZ 0040e1d9 f i uafxcw:doccore.obj
 0001:0000d1d9       ??1?$CComQIPtr@UITaskbarList4@@$1?_GUID_c43dc798_95d1_4bea_9030_bb99e2983a1a@@3U__s_GUID@@B@ATL@@QAE@XZ 0040e1d9 f i uafxcw:afxmdichildwndex.obj
 0001:0000d1de       ??1?$CComPtrBase@UIAccessibleProxy@@@ATL@@QAE@XZ 0040e1de f i uafxcw:wincore.obj
 0001:0000d1de       ??1?$CComPtrBase@UIAccessor@@@ATL@@QAE@XZ 0040e1de f i uafxcw:occsite.obj
 0001:0000d1de       ??1?$CComPtrBase@UIChapteredRowset@@@ATL@@QAE@XZ 0040e1de f i uafxcw:occsite.obj
 0001:0000d1de       ??1?$CComPtrBase@UIRowset@@@ATL@@QAE@XZ 0040e1de f i uafxcw:occsite.obj
 0001:0000d1de       ??1?$CComPtrBase@UIRowsetChange@@@ATL@@QAE@XZ 0040e1de f i uafxcw:occsite.obj
 0001:0000d1de       ??1?$CComPtrBase@UIRowsetInfo@@@ATL@@QAE@XZ 0040e1de f i uafxcw:occsite.obj
 0001:0000d1de       ??1?$CComPtrBase@UIShellItem@@@ATL@@QAE@XZ 0040e1de f i uafxcw:filelist.obj
 0001:0000d1de       ??1?$CComPtrBase@UITaskbarList4@@@ATL@@QAE@XZ 0040e1de f i uafxcw:afxmdichildwndex.obj
 0001:0000d1de       ??1?$CComPtrBase@UIUnknown@@@ATL@@QAE@XZ 0040e1de f i uafxcw:doccore.obj
 0001:0000d22a       ??1CInternalGlobalLock@@QAE@XZ 0040e22a f i uafxcw:wincore.obj
 0001:0000d263       ??1CWaitCursor@@QAE@XZ     0040e263 f i uafxcw:wincore.obj
 0001:0000d377       ??1CWnd@@UAE@XZ            0040e377 f   uafxcw:wincore.obj
 0001:0000d45f       ??1_AFX_HTMLHELP_STATE@@UAE@XZ 0040e45f f   uafxcw:wincore.obj
 0001:0000d475       ??3CObject@@SGXPAX0@Z      0040e475 f i uafxcw:wincore.obj
 0001:0000d485       ??_E?$CComObjectNoLock@VCAccessibleProxy@ATL@@@ATL@@UAEPAXI@Z 0040e485 f i uafxcw:wincore.obj
 0001:0000d485       ??_G?$CComObjectNoLock@VCAccessibleProxy@ATL@@@ATL@@UAEPAXI@Z 0040e485 f i uafxcw:wincore.obj
 0001:0000d4a7       ??_ECPaneTrackingWnd@@UAEPAXI@Z 0040e4a7 f i uafxcw:afxpanedivider.obj
 0001:0000d4a7       ??_ECWnd@@UAEPAXI@Z        0040e4a7 f i uafxcw:wincore.obj
 0001:0000d4a7       ??_GCPaneTrackingWnd@@UAEPAXI@Z 0040e4a7 f i uafxcw:afxpanedivider.obj
 0001:0000d4a7       ??_GCWnd@@UAEPAXI@Z        0040e4a7 f i uafxcw:wincore.obj
 0001:0000d4da       ??_E_AFX_HTMLHELP_STATE@@UAEPAXI@Z 0040e4da f i uafxcw:wincore.obj
 0001:0000d4da       ??_G_AFX_HTMLHELP_STATE@@UAEPAXI@Z 0040e4da f i uafxcw:wincore.obj
 0001:0000d50a       ?ActivateTopParent@CWnd@@QAEXXZ 0040e50a f   uafxcw:wincore.obj
 0001:0000d551       ?AddRef@?$CComObjectNoLock@VCAccessibleProxy@ATL@@@ATL@@UAGKXZ 0040e551 f i uafxcw:wincore.obj
 0001:0000d562       ?AddRef@?$CComObjectNoLock@VCAccessibleProxy@ATL@@@ATL@@W3AGKXZ 0040e562 f i uafxcw:wincore.obj
 0001:0000d56c       ?AddRef@?$CComObjectNoLock@VCAccessibleProxy@ATL@@@ATL@@WBA@AGKXZ 0040e56c f i uafxcw:wincore.obj
 0001:0000d576       ?AddRef@XAccessible@CWnd@@UAGKXZ 0040e576 f   uafxcw:wincore.obj
 0001:0000d5b0       ?AddRef@XAccessibleServer@CWnd@@UAGKXZ 0040e5b0 f   uafxcw:wincore.obj
 0001:0000d5ea       ?AfxCallWndProc@@YGJPAVCWnd@@PAUHWND__@@IIJ@Z 0040e5ea f   uafxcw:wincore.obj
 0001:0000d70e       ?AfxEndDeferRegisterClass@@YGHJ@Z 0040e70e f   uafxcw:wincore.obj
 0001:0000d9fd       ?AfxFindMessageEntry@@YGPBUAFX_MSGMAP_ENTRY@@PBU1@III@Z 0040e9fd f   uafxcw:wincore.obj
 0001:0000da3d       ?AfxGetParentOwner@@YGPAUHWND__@@PAU1@@Z 0040ea3d f   uafxcw:wincore.obj
 0001:0000da84       ?AfxHookWindowCreate@@YGXPAVCWnd@@@Z 0040ea84 f   uafxcw:wincore.obj
 0001:0000dadd       ?AfxHtmlHelp@@YGPAUHWND__@@PAU1@PB_WIK@Z 0040eadd f   uafxcw:wincore.obj
 0001:0000db66       ?AfxInitNetworkAddressControl@@YGHXZ 0040eb66 f   uafxcw:wincore.obj
 0001:0000db94       ?AfxInvariantStrICmp@@YAHPB_W0@Z 0040eb94 f i uafxcw:wincore.obj
 0001:0000dbb0       ?AfxRegisterClass@@YGHPAUtagWNDCLASSW@@@Z 0040ebb0 f   uafxcw:wincore.obj
 0001:0000dc4f       ?AfxRegisterWndClass@@YGPB_WIPAUHICON__@@PAUHBRUSH__@@0@Z 0040ec4f f   uafxcw:wincore.obj
 0001:0000dd53       ?AfxRepositionWindow@@YGXPAUAFX_SIZEPARENTPARAMS@@PAUHWND__@@PBUtagRECT@@@Z 0040ed53 f   uafxcw:wincore.obj
 0001:0000de01       ?AfxUnhookWindowCreate@@YGHXZ 0040ee01 f   uafxcw:wincore.obj
 0001:0000de4e       ?AfxWndProc@@YGJPAUHWND__@@IIJ@Z 0040ee4e f   uafxcw:wincore.obj
 0001:0000de99       ?AllocSysString@?$CStringT@_WV?$StrTraitMFC@_WV?$ChTraitsCRT@_W@ATL@@@@@ATL@@QBEPA_WXZ 0040ee99 f i uafxcw:wincore.obj
 0001:0000deae       ?AtlIAccessibleGetIDsOfNamesHelper@ATL@@YGJABU_GUID@@PAPA_WIKPAJ@Z 0040eeae f i uafxcw:wincore.obj
 0001:0000df1f       ?AtlIAccessibleInvokeHelper@ATL@@YGJPAUIAccessible@@JABU_GUID@@KGPAUtagDISPPARAMS@@PAUtagVARIANT@@PAUtagEXCEPINFO@@PAI@Z 0040ef1f f i uafxcw:wincore.obj
 0001:0000e567       ?AtlInternalQueryInterface@ATL@@YGJPAXPBU_ATL_INTMAP_ENTRY@1@ABU_GUID@@PAPAX@Z 0040f567 f i uafxcw:wincore.obj
 0001:0000e629       ?AtlLoadSystemLibraryUsingFullPath@ATL@@YAPAUHINSTANCE__@@PB_W@Z 0040f629 f i uafxcw:wincore.obj
 0001:0000e703       ?Attach@CWnd@@QAEHPAUHWND__@@@Z 0040f703 f   uafxcw:wincore.obj
 0001:0000e73f       ?CalcWindowRect@CWnd@@UAEXPAUtagRECT@@I@Z 0040f73f f   uafxcw:wincore.obj
 0001:0000e76e       ?CancelToolTips@CWnd@@SGXH@Z 0040f76e f   uafxcw:wincore.obj
 0001:0000e7cf       ?CenterWindow@CWnd@@QAEXPAV1@@Z 0040f7cf f   uafxcw:wincore.obj
 0001:0000e9d4       ?Construct@?$ConstructDestruct@VCWnd@@@@SGXPAVCObject@@@Z 0040f9d4 f i uafxcw:wincore.obj
 0001:0000e9fb       ?Clone@CArchiveStream@@UAGJPAPAUIStream@@@Z 0040f9fb f i uafxcw:arcstrm.obj
 0001:0000e9fb       ?Commit@CArchiveStream@@UAGJK@Z 0040f9fb f i uafxcw:arcstrm.obj
 0001:0000e9fb       ?ContextSensitiveHelp@CAccessibleProxy@ATL@@UAGJH@Z 0040f9fb f i uafxcw:wincore.obj
 0001:0000e9fb       ?ContextSensitiveHelp@XOleIPFrame@COleControlContainer@@UAGJH@Z 0040f9fb f i uafxcw:occcont.obj
 0001:0000e9fb       ?ContextSensitiveHelp@XOleIPSite@COleControlSite@@UAGJH@Z 0040f9fb f i uafxcw:occsite.obj
 0001:0000e9fb       ?GetBorder@XOleIPFrame@COleControlContainer@@UAGJPAUtagRECT@@@Z 0040f9fb f i uafxcw:occcont.obj
 0001:0000e9fb       ?GetExtendedControl@XOleControlSite@COleControlSite@@UAGJPAPAUIDispatch@@@Z 0040f9fb f i uafxcw:occsite.obj
 0001:0000e9fb       ?GetTypeInfoCount@XAmbientProps@COleControlSite@@UAGJPAI@Z 0040f9fb f i uafxcw:occsite.obj
 0001:0000e9fb       ?GetTypeInfoCount@XEventSink@COleControlSite@@UAGJPAI@Z 0040f9fb f i uafxcw:occsite.obj
 0001:0000e9fb       ?LockContainer@XOleContainer@COleControlContainer@@UAGJH@Z 0040f9fb f i uafxcw:occcont.obj
 0001:0000e9fb       ?LockInPlaceActive@XOleControlSite@COleControlSite@@UAGJH@Z 0040f9fb f i uafxcw:occsite.obj
 0001:0000e9fb       ?RemoveMenus@XOleIPFrame@COleControlContainer@@UAGJPAUHMENU__@@@Z 0040f9fb f i uafxcw:occcont.obj
 0001:0000e9fb       ?RequestBorderSpace@XOleIPFrame@COleControlContainer@@UAGJPBUtagRECT@@@Z 0040f9fb f i uafxcw:occcont.obj
 0001:0000e9fb       ?SetBorderSpace@XOleIPFrame@COleControlContainer@@UAGJPBUtagRECT@@@Z 0040f9fb f i uafxcw:occcont.obj
 0001:0000e9fb       ?SetStatusText@XOleIPFrame@COleControlContainer@@UAGJPB_W@Z 0040f9fb f i uafxcw:occcont.obj
 0001:0000ea03       ?ContinueModal@CWnd@@UAEHXZ 0040fa03 f   uafxcw:wincore.obj
 0001:0000ea0a       ?Create@CWnd@@UAEHPB_W0KABUtagRECT@@PAV1@IPAUCCreateContext@@@Z 0040fa0a f   uafxcw:wincore.obj
 0001:0000ea6d       ?CreateAccessibleProxy@CWnd@@UAEJIJPAJ@Z 0040fa6d f   uafxcw:wincore.obj
 0001:0000eb60       ?CreateControlContainer@CWnd@@MAEHPAPAVCOleControlContainer@@@Z 0040fb60 f   uafxcw:wincore.obj
 0001:0000eb7a       ?CreateControlSite@CWnd@@MAEHPAVCOleControlContainer@@PAPAVCOleControlSite@@IABU_GUID@@@Z 0040fb7a f   uafxcw:wincore.obj
 0001:0000eb94       ?CreateEx@CWnd@@UAEHKPB_W0KABUtagRECT@@PAV1@IPAX@Z 0040fb94 f   uafxcw:wincore.obj
 0001:0000ebf2       ?CreateEx@CWnd@@UAEHKPB_W0KHHHHPAUHWND__@@PAUHMENU__@@PAX@Z 0040fbf2 f   uafxcw:wincore.obj
 0001:0000ecf1       ?CreateObject@?$CProcessLocal@V_AFX_HTMLHELP_STATE@@@@SGPAVCNoTrackObject@@XZ 0040fcf1 f i uafxcw:wincore.obj
 0001:0000ed06       ?CreateObject@CWnd@@SGPAVCObject@@XZ 0040fd06 f   uafxcw:wincore.obj
 0001:0000ed36       ?DefWindowProcW@CWnd@@MAEJIIJ@Z 0040fd36 f   uafxcw:wincore.obj
 0001:0000ed8f       ?Default@CWnd@@IAEJXZ      0040fd8f f   uafxcw:wincore.obj
 0001:0000edce       ?DestroyWindow@CWnd@@UAEHXZ 0040fdce f   uafxcw:wincore.obj
 0001:0000ee33       ?Destruct@?$ConstructDestruct@VCDC@@@@SGXPAVCObject@@@Z 0040fe33 f i uafxcw:wingdi.obj
 0001:0000ee33       ?Destruct@?$ConstructDestruct@VCGdiObject@@@@SGXPAVCObject@@@Z 0040fe33 f i uafxcw:wingdi.obj
 0001:0000ee33       ?Destruct@?$ConstructDestruct@VCImageList@@@@SGXPAVCObject@@@Z 0040fe33 f i uafxcw:winctrl2.obj
 0001:0000ee33       ?Destruct@?$ConstructDestruct@VCMenu@@@@SGXPAVCObject@@@Z 0040fe33 f i uafxcw:winmenu.obj
 0001:0000ee33       ?Destruct@?$ConstructDestruct@VCWnd@@@@SGXPAVCObject@@@Z 0040fe33 f i uafxcw:wincore.obj
 0001:0000ee54       ?Detach@CWnd@@QAEPAUHWND__@@XZ 0040fe54 f   uafxcw:wincore.obj
 0001:0000ee82       ?DoD2DPaint@CWnd@@IAEHXZ   0040fe82 f   uafxcw:wincore.obj
 0001:0000f024       ?Enable@CMFCColorBarCmdUI@@UAEXH@Z 00410024 f   uafxcw:afxcolorbar.obj
 0001:0000f024       ?Enable@CTestCmdUI@@UAEXH@Z 00410024 f   uafxcw:wincore.obj
 0001:0000f038       ?EnableDynamicLayout@CWnd@@QAEXH@Z 00410038 f   uafxcw:wincore.obj
 0001:0000f094       ?EnableScrollBarCtrl@CWnd@@QAEXHH@Z 00410094 f   uafxcw:wincore.obj
 0001:0000f0e4       ?EndModalLoop@CWnd@@UAEXH@Z 004100e4 f   uafxcw:wincore.obj
 0001:0000f10c       ?EnsureStdObj@CWnd@@UAEJXZ 0041010c f   uafxcw:wincore.obj
 0001:0000f12b       ?ExecuteDlgInit@CWnd@@QAEHPB_W@Z 0041012b f   uafxcw:wincore.obj
 0001:0000f179       ?FinalRelease@CAccessibleProxy@ATL@@QAEJXZ 00410179 f i uafxcw:wincore.obj
 0001:0000f198       ?FromHandle@CWnd@@SGPAV1@PAUHWND__@@@Z 00410198 f   uafxcw:wincore.obj
 0001:0000f1c2       ?FromHandlePermanent@CWnd@@SGPAV1@PAUHWND__@@@Z 004101c2 f   uafxcw:wincore.obj
 0001:0000f1e6       ?GetAccessibilityHitTest@CWnd@@QAEJJJPAUtagVARIANT@@@Z 004101e6 f   uafxcw:wincore.obj
 0001:0000f288       ?GetAccessibilityLocation@CWnd@@QAEJUtagVARIANT@@PAJ111@Z 00410288 f   uafxcw:wincore.obj
 0001:0000f380       ?GetAccessibleChild@CWnd@@QAEJUtagVARIANT@@PAPAUIDispatch@@@Z 00410380 f   uafxcw:wincore.obj
 0001:0000f3eb       ?GetAccessibleChildCount@CWnd@@QAEJXZ 004103eb f   uafxcw:wincore.obj
 0001:0000f402       ?GetAccessibleName@CWnd@@QAEJUtagVARIANT@@PAPA_W@Z 00410402 f   uafxcw:wincore.obj
 0001:0000f4e5       ?GetControlContainer@CWnd@@QAEPAVCOleControlContainer@@XZ 004104e5 f   uafxcw:wincore.obj
 0001:0000f4e5       ?IsOfficeXPStyleMenus@CMFCVisualManager@@UBEHXZ 004104e5 f   uafxcw:afxvisualmanager.obj
 0001:0000f4e9       ?GetCurrentMessage@CWnd@@KGPBUtagMSG@@XZ 004104e9 f   uafxcw:wincore.obj
 0001:0000f526       ?GetDCRenderTarget@CWnd@@QAEPAVCDCRenderTarget@@XZ 00410526 f   uafxcw:wincore.obj
 0001:0000f536       ?GetDescendantWindow@CWnd@@SGPAV1@PAUHWND__@@HH@Z 00410536 f   uafxcw:wincore.obj
 0001:0000f5ad       ?GetDlgItemTextW@CWnd@@QBEHHAAV?$CStringT@_WV?$StrTraitMFC@_WV?$ChTraitsCRT@_W@ATL@@@@@ATL@@@Z 004105ad f   uafxcw:wincore.obj
 0001:0000f628       ?GetEnumVariant@XAccessibleServer@CWnd@@UAGJPAPAUIEnumVARIANT@@@Z 00410628 f   uafxcw:wincore.obj
 0001:0000f645       ?GetGestureStatus@CWnd@@MAEKVCPoint@@@Z 00410645 f   uafxcw:wincore.obj
 0001:0000f645       ?OnBeforeFloat@CPane@@UAEHAAVCRect@@W4AFX_DOCK_METHOD@@@Z 00410645 f   uafxcw:afxpane.obj
 0001:0000f645       ?OnBeforeRemoveButton@CMFCToolBar@@UAEHPAVCMFCToolBarButton@@K@Z 00410645 f   uafxcw:afxpropertysheet.obj
 0001:0000f645       ?OnCreateControlBars@COleIPFrameWnd@@UAEHPAVCWnd@@0@Z 00410645 f   uafxcw:oleipfrm.obj
 0001:0000f645       ?OnNcHitTest@CMFCToolBar@@IAEJVCPoint@@@Z 00410645 f   uafxcw:afxtoolbar.obj
 0001:0000f645       ?OnNcHitTest@CToolBar@@IAEJVCPoint@@@Z 00410645 f   uafxcw:bartool.obj
 0001:0000f645       ?OnRenameTab@CMFCBaseTabCtrl@@UAEHHAAV?$CStringT@_WV?$StrTraitMFC@_WV?$ChTraitsCRT@_W@ATL@@@@@ATL@@@Z 00410645 f   uafxcw:afxpropertysheet.obj
 0001:0000f645       ?OnTearOffMenu@CFrameWndEx@@UAEHPAVCMFCPopupMenu@@PAVCPane@@@Z 00410645 f   uafxcw:afxframewndex.obj
 0001:0000f645       ?OnTearOffMenu@CMDIFrameWndEx@@UAEHPAVCMFCPopupMenu@@PAVCPane@@@Z 00410645 f   uafxcw:afxmdiframewndex.obj
 0001:0000f645       ?OnTearOffMenu@COleDocIPFrameWndEx@@UAEHPAVCMFCPopupMenu@@PAVCPane@@@Z 00410645 f   uafxcw:afxoledocipframewndex.obj
 0001:0000f645       ?OnTearOffMenu@COleIPFrameWndEx@@UAEHPAVCMFCPopupMenu@@PAVCPane@@@Z 00410645 f   uafxcw:afxoleipframewndex.obj
 0001:0000f645       ?OnToolbarContextMenu@CFrameWndEx@@QAEJIJ@Z 00410645 f   uafxcw:afxframewndex.obj
 0001:0000f645       ?OnToolbarContextMenu@CMDIFrameWndEx@@IAEJIJ@Z 00410645 f   uafxcw:afxmdiframewndex.obj
 0001:0000f645       ?OnToolbarContextMenu@COleDocIPFrameWndEx@@IAEJIJ@Z 00410645 f   uafxcw:afxoledocipframewndex.obj
 0001:0000f645       ?OnToolbarContextMenu@COleIPFrameWndEx@@IAEJIJ@Z 00410645 f   uafxcw:afxoleipframewndex.obj
 0001:0000f645       ?PreClickPaletteIcon@CMFCRibbonGallery@@MAEHPAVCMFCRibbonGalleryIcon@@ABVCPoint@@@Z 00410645 f   uafxcw:afxribboncolorbutton.obj
 0001:0000f645       ?Unlock@CSyncObject@@UAEHJPAJ@Z 00410645 f   uafxcw:afxtoolbarimages.obj
 0001:0000f64b       ?GetHWND@XAccessibleServer@CWnd@@UAGJPAPAUHWND__@@@Z 0041064b f   uafxcw:wincore.obj
 0001:0000f682       ?Clone@CFixedStringMgr@ATL@@UAEPAUIAtlStringMgr@2@XZ 00410682 f i uafxcw:olevar.obj
 0001:0000f682       ?GetHeadPosition@CPtrList@@QBEPAU__POSITION@@XZ 00410682 f i uafxcw:wincore.obj
 0001:0000f686       ?GetIDsOfNames@?$IAccessibleProxyImpl@VCAccessibleProxy@ATL@@@ATL@@UAGJABU_GUID@@PAPA_WIKPAJ@Z 00410686 f i uafxcw:wincore.obj
 0001:0000f6bf       ?GetIDsOfNames@XAccessible@CWnd@@UAGJABU_GUID@@PAPA_WIKPAJ@Z 004106bf f   uafxcw:wincore.obj
 0001:0000f6da       ?GetInterfaceMap@CWnd@@MBEPBUAFX_INTERFACEMAP@@XZ 004106da f   uafxcw:wincore.obj
 0001:0000f6e0       ?GetMenu@CWnd@@UBEPAVCMenu@@XZ 004106e0 f   uafxcw:wincore.obj
 0001:0000f6f0       ?GetMessageMap@CWnd@@MBEPBUAFX_MSGMAP@@XZ 004106f0 f   uafxcw:wincore.obj
 0001:0000f6f0       ?GetThisMessageMap@CWnd@@KGPBUAFX_MSGMAP@@XZ 004106f0 f   uafxcw:wincore.obj
 0001:0000f6f6       ?GetNext@?$_CTypedPtrList@VCPtrList@@PAUCOleControlSiteOrWnd@@@@QAEAAPAUCOleControlSiteOrWnd@@AAPAU__POSITION@@@Z 004106f6 f i uafxcw:wincore.obj
 0001:0000f6ff       ?GetNext@CObList@@QAEAAPAVCObject@@AAPAU__POSITION@@@Z 004106ff f i uafxcw:afxrendertarget.obj
 0001:0000f6ff       ?GetNext@CPtrList@@QAEAAPAXAAPAU__POSITION@@@Z 004106ff f i uafxcw:wincore.obj
 0001:0000f6ff       ?GetNext@CStringList@@QAEAAV?$CStringT@_WV?$StrTraitMFC@_WV?$ChTraitsCRT@_W@ATL@@@@@ATL@@AAPAU__POSITION@@@Z 004106ff f i uafxcw:afxpropertygridctrl.obj
 0001:0000f6ff       ?GetNext@CStringList@@QBEABV?$CStringT@_WV?$StrTraitMFC@_WV?$ChTraitsCRT@_W@ATL@@@@@ATL@@AAPAU__POSITION@@@Z 004106ff f i uafxcw:afxtoolbarcomboboxbutton.obj
 0001:0000f71c       ?GetOwner@CWnd@@QBEPAV1@XZ 0041071c f i uafxcw:wincore.obj
 0001:0000f733       ?GetParentFrame@CWnd@@QBEPAVCFrameWnd@@XZ 00410733 f   uafxcw:wincore.obj
 0001:0000f77a       ?GetParentOwner@CWnd@@QBEPAV1@XZ 0041077a f   uafxcw:wincore.obj
 0001:0000f7b5       ?GetRenderTarget@CWnd@@QAEPAVCHwndRenderTarget@@XZ 004107b5 f   uafxcw:wincore.obj
 0001:0000f7c5       ?GetRuntimeClass@CWnd@@UBEPAUCRuntimeClass@@XZ 004107c5 f   uafxcw:wincore.obj
 0001:0000f7cb       ?GetSafeOwner@CWnd@@SGPAV1@PAV1@PAPAUHWND__@@@Z 004107cb f   uafxcw:wincore.obj
 0001:0000f7eb       ?GetScrollInfo@CWnd@@QAEHHPAUtagSCROLLINFO@@I@Z 004107eb f   uafxcw:wincore.obj
 0001:0000f83e       ?GetScrollLimit@CWnd@@QAEHH@Z 0041083e f   uafxcw:wincore.obj
 0001:0000f899       ?GetScrollPos@CWnd@@QBEHH@Z 00410899 f   uafxcw:wincore.obj
 0001:0000f8d1       ?GetScrollRange@CWnd@@QBEXHPAH0@Z 004108d1 f   uafxcw:wincore.obj
 0001:0000f90f       ?GetSuperWndProcAddr@CWnd@@MAEPAP6GJPAUHWND__@@IIJ@ZXZ 0041090f f   uafxcw:wincore.obj
 0001:0000f913       ?GetTopLevelFrame@CWnd@@QBEPAVCFrameWnd@@XZ 00410913 f   uafxcw:wincore.obj
 0001:0000f965       ?GetTopLevelParent@CWnd@@QBEPAV1@XZ 00410965 f   uafxcw:wincore.obj
 0001:0000f98c       ?GetTypeInfo@?$IAccessibleProxyImpl@VCAccessibleProxy@ATL@@@ATL@@UAGJIKPAPAUITypeInfo@@@Z 0041098c f i uafxcw:wincore.obj
 0001:0000f9bf       ?GetMoniker@XOleClientSite@COleControlSite@@UAGJKKPAPAUIMoniker@@@Z 004109bf f   uafxcw:occsite.obj
 0001:0000f9bf       ?GetTypeInfo@XAccessible@CWnd@@UAGJIKPAPAUITypeInfo@@@Z 004109bf f   uafxcw:wincore.obj
 0001:0000f9bf       ?GetTypeInfo@XAmbientProps@COleControlSite@@UAGJIKPAPAUITypeInfo@@@Z 004109bf f   uafxcw:occsite.obj
 0001:0000f9bf       ?GetTypeInfo@XEventSink@COleControlSite@@UAGJIKPAPAUITypeInfo@@@Z 004109bf f   uafxcw:occsite.obj
 0001:0000f9bf       ?SetMenu@XOleIPFrame@COleControlContainer@@UAGJPAUHMENU__@@PAXPAUHWND__@@@Z 004109bf f   uafxcw:occcont.obj
 0001:0000f9c7       ?GetTypeInfoCount@?$IAccessibleProxyImpl@VCAccessibleProxy@ATL@@@ATL@@UAGJPAI@Z 004109c7 f i uafxcw:wincore.obj
 0001:0000f9f4       ?GetTypeInfoCount@XAccessible@CWnd@@UAGJPAI@Z 004109f4 f   uafxcw:wincore.obj
 0001:0000fa11       ?Create@CMFCShadowRenderer@@MAEHABVCMFCControlRendererInfo@@H@Z 00410a11 f i uafxcw:afxcontrolrenderer.obj
 0001:0000fa11       ?CreateDocumentWindow@CMDIFrameWndEx@@UAEPAVCMDIChildWndEx@@PB_WPAVCObject@@@Z 00410a11 f i uafxcw:afxmdiframewndex.obj
 0001:0000fa11       ?EnableModeless@XOleIPFrame@COleControlContainer@@UAGJH@Z 00410a11 f i uafxcw:occcont.obj
 0001:0000fa11       ?GetToolbarButtonToolTipText@CFrameWndEx@@UAEHPAVCMFCToolBarButton@@AAV?$CStringT@_WV?$StrTraitMFC@_WV?$ChTraitsCRT@_W@ATL@@@@@ATL@@@Z 00410a11 f i uafxcw:afxframewndex.obj
 0001:0000fa11       ?GetToolbarButtonToolTipText@CMDIChildWndEx@@UAEHPAVCMFCToolBarButton@@AAV?$CStringT@_WV?$StrTraitMFC@_WV?$ChTraitsCRT@_W@ATL@@@@@ATL@@@Z 00410a11 f i uafxcw:afxmdichildwndex.obj
 0001:0000fa11       ?GetToolbarButtonToolTipText@CMDIFrameWndEx@@UAEHPAVCMFCToolBarButton@@AAV?$CStringT@_WV?$StrTraitMFC@_WV?$ChTraitsCRT@_W@ATL@@@@@ATL@@@Z 00410a11 f i uafxcw:afxmdiframewndex.obj
 0001:0000fa11       ?GetToolbarButtonToolTipText@COleDocIPFrameWndEx@@UAEHPAVCMFCToolBarButton@@AAV?$CStringT@_WV?$StrTraitMFC@_WV?$ChTraitsCRT@_W@ATL@@@@@ATL@@@Z 00410a11 f i uafxcw:afxoledocipframewndex.obj
 0001:0000fa11       ?GetToolbarButtonToolTipText@COleIPFrameWndEx@@UAEHPAVCMFCToolBarButton@@AAV?$CStringT@_WV?$StrTraitMFC@_WV?$ChTraitsCRT@_W@ATL@@@@@ATL@@@Z 00410a11 f i uafxcw:afxoleipframewndex.obj
 0001:0000fa11       ?GetWindow@CAccessibleProxy@ATL@@UAGJPAPAUHWND__@@@Z 00410a11 f i uafxcw:wincore.obj
 0001:0000fa11       ?OnClick@CMFCToolBarButton@@UAEHPAVCWnd@@H@Z 00410a11 f i uafxcw:afxcolorbar.obj
 0001:0000fa11       ?OnClickPaletteSubItem@CMFCRibbonGallery@@MAEHPAVCMFCRibbonButton@@PAVCMFCRibbonPanelMenuBar@@@Z 00410a11 f i uafxcw:afxribboncolorbutton.obj
 0001:0000fa11       ?OnCtlColor@CMFCToolBarButton@@UAEPAUHBRUSH__@@PAVCDC@@I@Z 00410a11 f i uafxcw:afxcolorbar.obj
 0001:0000fa11       ?OnFocus@XOleControlSite@COleControlSite@@UAGJH@Z 00410a11 f i uafxcw:occsite.obj
 0001:0000fa11       ?OnGestureTwoFingerTap@CWnd@@MAEHVCPoint@@@Z 00410a11 f i uafxcw:wincore.obj
 0001:0000fa11       ?OnGetIconicLivePreviewBitmap@CMDIChildWndEx@@UAEPAUHBITMAP__@@HAAVCPoint@@@Z 00410a11 f i uafxcw:afxmdichildwndex.obj
 0001:0000fa11       ?OnGetIconicThumbnail@CMDIChildWndEx@@UAEPAUHBITMAP__@@HH@Z 00410a11 f i uafxcw:afxmdichildwndex.obj
 0001:0000fa11       ?OnMenuButtonToolHitTest@CFrameWndEx@@UAEHPAVCMFCToolBarButton@@PAUtagTOOLINFOW@@@Z 00410a11 f i uafxcw:afxframewndex.obj
 0001:0000fa11       ?OnMenuButtonToolHitTest@CMDIFrameWndEx@@UAEHPAVCMFCToolBarButton@@PAUtagTOOLINFOW@@@Z 00410a11 f i uafxcw:afxmdiframewndex.obj
 0001:0000fa11       ?OnMenuButtonToolHitTest@COleDocIPFrameWndEx@@UAEHPAVCMFCToolBarButton@@PAUtagTOOLINFOW@@@Z 00410a11 f i uafxcw:afxoledocipframewndex.obj
 0001:0000fa11       ?OnMenuButtonToolHitTest@COleIPFrameWndEx@@UAEHPAVCMFCToolBarButton@@PAUtagTOOLINFOW@@@Z 00410a11 f i uafxcw:afxoleipframewndex.obj
 0001:0000fa11       ?OnNcActivate@CMFCVisualManager@@UAEHPAVCWnd@@H@Z 00410a11 f i uafxcw:afxvisualmanager.obj
 0001:0000fa11       ?OnPostPreviewFrame@CFrameWndEx@@QAEJIJ@Z 00410a11 f i uafxcw:afxframewndex.obj
 0001:0000fa11       ?OnPostPreviewFrame@CMDIFrameWndEx@@IAEJIJ@Z 00410a11 f i uafxcw:afxmdiframewndex.obj
 0001:0000fa11       ?OnRenderFileData@COleDataSource@@UAEHPAUtagFORMATETC@@PAVCFile@@@Z 00410a11 f i uafxcw:oledobj2.obj
 0001:0000fa11       ?OnRenderGlobalData@COleDataSource@@UAEHPAUtagFORMATETC@@PAPAX@Z 00410a11 f i uafxcw:oledobj2.obj
 0001:0000fa11       ?OnShowControlBarMenu@CMFCAutoHideBar@@UAEHVCPoint@@@Z 00410a11 f i uafxcw:afxautohidebar.obj
 0001:0000fa11       ?OnShowControlBarMenu@CMFCBaseToolBar@@MAEHVCPoint@@@Z 00410a11 f i uafxcw:afxpropertysheet.obj
 0001:0000fa11       ?OnShowControlBarMenu@CMFCCaptionBar@@MAEHVCPoint@@@Z 00410a11 f i uafxcw:afxcaptionbar.obj
 0001:0000fa11       ?OnShowWindow@XOleClientSite@COleControlSite@@UAGJH@Z 00410a11 f i uafxcw:occsite.obj
 0001:0000fa11       ?OnUserToolTip@CMFCPopupMenuBar@@MBEHPAVCMFCToolBarButton@@AAV?$CStringT@_WV?$StrTraitMFC@_WV?$ChTraitsCRT@_W@ATL@@@@@ATL@@@Z 00410a11 f i uafxcw:afxcolorbar.obj
 0001:0000fa11       ?ReplaceByID@CMFCRibbonBaseElement@@MAEHIPAV1@@Z 00410a11 f i uafxcw:afxbaseribbonelement.obj
 0001:0000fa11       ?SetACCData@CMFCBaseAccessibleObject@@UAEHPAVCWnd@@AAVCAccessibilityData@@@Z 00410a11 f i uafxcw:afxbaseribbonelement.obj
 0001:0000fa16       ?GetWindowLessChildCount@CWnd@@QAEJXZ 00410a16 f   uafxcw:wincore.obj
 0001:0000fa5c       ?GetWindowPlacement@CWnd@@QBEHPAUtagWINDOWPLACEMENT@@@Z 00410a5c f   uafxcw:wincore.obj
 0001:0000fa76       ?GetWindowTextW@CWnd@@QBEXAAV?$CStringT@_WV?$StrTraitMFC@_WV?$ChTraitsCRT@_W@ATL@@@@@ATL@@@Z 00410a76 f   uafxcw:wincore.obj
 0001:0000fad1       ?GetWindowedChildCount@CWnd@@QAEJXZ 00410ad1 f   uafxcw:wincore.obj
 0001:0000fb01       ?GrayCtlColor@CWnd@@SGHPAUHDC__@@PAUHWND__@@IPAUHBRUSH__@@K@Z 00410b01 f   uafxcw:wincore.obj
 0001:0000fb8b       ?HandleFloatingSysCommand@CWnd@@QAEHIJ@Z 00410b8b f   uafxcw:wincore.obj
 0001:0000fc43       ?HtmlHelpW@CWnd@@UAEXKI@Z  00410c43 f   uafxcw:wincore.obj
 0001:0000fcb4       ?InitDynamicLayout@CWnd@@IAEXXZ 00410cb4 f   uafxcw:wincore.obj
 0001:0000fded       ?InlineIsEqualUnknown@ATL@@YGHABU_GUID@@@Z 00410ded f i uafxcw:wincore.obj
 0001:0000fe15       ?Invoke@?$IAccessibleProxyImpl@VCAccessibleProxy@ATL@@@ATL@@UAGJJABU_GUID@@KGPAUtagDISPPARAMS@@PAUtagVARIANT@@PAUtagEXCEPINFO@@PAI@Z 00410e15 f i uafxcw:wincore.obj
 0001:0000fe57       ?Invoke@XAccessible@CWnd@@UAGJJABU_GUID@@KGPAUtagDISPPARAMS@@PAUtagVARIANT@@PAUtagEXCEPINFO@@PAI@Z 00410e57 f   uafxcw:wincore.obj
 0001:0000fea7       ?IsTopParentActive@CWnd@@QBEHXZ 00410ea7 f   uafxcw:wincore.obj
 0001:0000fee3       ?IsTracking@CFrameWnd@@QAEHXZ 00410ee3 f   uafxcw:wincore.obj
 0001:0000ff16       ?LoadDynamicLayoutResource@CWnd@@IAEHPB_W@Z 00410f16 f   uafxcw:wincore.obj
 0001:0000ffab       ?MessageBoxW@CWnd@@QAEHPB_W0I@Z 00410fab f   uafxcw:wincore.obj
 0001:0000ffde       ?ModifyStyle@CWnd@@SGHPAUHWND__@@KKI@Z 00410fde f   uafxcw:wincore.obj
 0001:0000fff8       ?ModifyStyleEx@CWnd@@SGHPAUHWND__@@KKI@Z 00410ff8 f   uafxcw:wincore.obj
 0001:00010012       ?OnActivateTopLevel@CWnd@@IAEJIJ@Z 00411012 f   uafxcw:wincore.obj
 0001:0001003e       ?OnCharToItem@CWnd@@IAEHIPAVCListBox@@I@Z 0041103e f   uafxcw:wincore.obj
 0001:0001003e       ?OnVKeyToItem@CWnd@@IAEHIPAVCListBox@@I@Z 0041103e f   uafxcw:wincore.obj
 0001:0001006a       ?OnChildNotify@CWnd@@MAEHIIJPAJ@Z 0041106a f   uafxcw:wincore.obj
 0001:000100b7       ?OnCommand@CWnd@@MAEHIJ@Z  004110b7 f   uafxcw:wincore.obj
 0001:00010166       ?OnCompareItem@CWnd@@IAEHHPAUtagCOMPAREITEMSTRUCT@@@Z 00411166 f   uafxcw:wincore.obj
 0001:00010191       ?OnCtlColor@CWnd@@IAEPAUHBRUSH__@@PAVCDC@@PAV1@I@Z 00411191 f   uafxcw:wincore.obj
 0001:000101b9       ?OnDeleteItem@CWnd@@IAEXHPAUtagDELETEITEMSTRUCT@@@Z 004111b9 f   uafxcw:wincore.obj
 0001:000101dc       ?OnDestroy@CWnd@@IAEXXZ    004111dc f   uafxcw:wincore.obj
 0001:00010269       ?OnDevModeChange@CWnd@@IAEXPA_W@Z 00411269 f   uafxcw:wincore.obj
 0001:000102b5       ?OnDisplayChange@CWnd@@IAEXIHH@Z 004112b5 f   uafxcw:wincore.obj
 0001:000102fe       ?OnDragList@CWnd@@IAEJIJ@Z 004112fe f   uafxcw:wincore.obj
 0001:00010329       ?OnDrawIconicThumbnailOrLivePreview@CWnd@@UAEXAAVCDC@@VCRect@@VCSize@@HAAH@Z 00411329 f   uafxcw:wincore.obj
 0001:0001034b       ?OnDrawItem@CWnd@@IAEXHPAUtagDRAWITEMSTRUCT@@@Z 0041134b f   uafxcw:wincore.obj
 0001:00010399       ?OnEnterIdle@CWnd@@IAEXIPAV1@@Z 00411399 f   uafxcw:wincore.obj
 0001:000103d5       ?OnFinalRelease@CWnd@@UAEXXZ 004113d5 f   uafxcw:wincore.obj
 0001:00010406       ?OnGesture@CWnd@@IAEJIJ@Z  00411406 f   uafxcw:wincore.obj
 0001:000106ba       ?CreateDefaultMiniframe@CBasePane@@UAEPAVCPaneFrameWnd@@VCRect@@@Z 004116ba f   uafxcw:afxbasepane.obj
 0001:000106ba       ?GetBufferPtr@CFile@@UAEIIIPAPAX0@Z 004116ba f   uafxcw:filecore.obj
 0001:000106ba       ?NotifyControlCommand@CMFCRibbonBaseElement@@MAEHHHIJ@Z 004116ba f   uafxcw:afxbaseribbonelement.obj
 0001:000106ba       ?OnDragEnter@CMFCBaseTabCtrl@@UAEKPAVCOleDataObject@@KVCPoint@@@Z 004116ba f   uafxcw:afxbasetabctrl.obj
 0001:000106ba       ?OnDragEnter@CView@@UAEKPAVCOleDataObject@@KVCPoint@@@Z 004116ba f   uafxcw:viewcore.obj
 0001:000106ba       ?OnDragOver@CMFCBaseTabCtrl@@UAEKPAVCOleDataObject@@KVCPoint@@@Z 004116ba f   uafxcw:afxbasetabctrl.obj
 0001:000106ba       ?OnDragOver@CMFCTabCtrl@@UAEKPAVCOleDataObject@@KVCPoint@@@Z 004116ba f   uafxcw:afxtabctrl.obj
 0001:000106ba       ?OnDragOver@CView@@UAEKPAVCOleDataObject@@KVCPoint@@@Z 004116ba f   uafxcw:viewcore.obj
 0001:000106ba       ?OnDrop@CMFCBaseTabCtrl@@UAEHPAVCOleDataObject@@KVCPoint@@@Z 004116ba f   uafxcw:afxpropertysheet.obj
 0001:000106ba       ?OnDrop@CView@@UAEHPAVCOleDataObject@@KVCPoint@@@Z 004116ba f   uafxcw:viewcore.obj
 0001:000106ba       ?OnGesturePan@CWnd@@MAEHVCPoint@@0@Z 004116ba f   uafxcw:wincore.obj
 0001:000106ba       ?OnGestureRotate@CWnd@@MAEHVCPoint@@N@Z 004116ba f   uafxcw:wincore.obj
 0001:000106ba       ?OnUpdateToolTip@CMFCToolBarButton@@UAEHPAVCWnd@@HAAVCToolTipCtrl@@AAV?$CStringT@_WV?$StrTraitMFC@_WV?$ChTraitsCRT@_W@ATL@@@@@ATL@@@Z 004116ba f   uafxcw:afxcolorbar.obj
 0001:000106bf       ?DockPane@CBasePane@@UAEHPAV1@PBUtagRECT@@W4AFX_DOCK_METHOD@@@Z 004116bf f   uafxcw:afxbasepane.obj
 0001:000106bf       ?OnCompareItems@CMFCListCtrl@@UAEHJJH@Z 004116bf f   uafxcw:afxlistctrl.obj
 0001:000106bf       ?OnDrawMenuImage@COleDocIPFrameWndEx@@UAEHPAVCDC@@PBVCMFCToolBarMenuButton@@ABVCRect@@@Z 004116bf f   uafxcw:afxoledocipframewndex.obj
 0001:000106bf       ?OnDrawMenuImage@COleIPFrameWndEx@@UAEHPAVCDC@@PBVCMFCToolBarMenuButton@@ABVCRect@@@Z 004116bf f   uafxcw:afxoleipframewndex.obj
 0001:000106bf       ?OnGesturePressAndTap@CWnd@@MAEHVCPoint@@J@Z 004116bf f   uafxcw:wincore.obj
 0001:000106bf       ?OnGestureZoom@CWnd@@MAEHVCPoint@@J@Z 004116bf f   uafxcw:wincore.obj
 0001:000106bf       ?OnGetCellFont@CMFCListCtrl@@UAEPAUHFONT__@@HHK@Z 004116bf f   uafxcw:afxshelllistctrl.obj
 0001:000106bf       ?OnSetData@COleDataSource@@UAEHPAUtagFORMATETC@@PAUtagSTGMEDIUM@@H@Z 004116bf f   uafxcw:oledobj2.obj
 0001:000106bf       ?SetSize@CArchiveStream@@UAGJT_ULARGE_INTEGER@@@Z 004116bf f   uafxcw:arcstrm.obj
 0001:000106c4       ?OnGetObject@CWnd@@IAEJIJ@Z 004116c4 f   uafxcw:wincore.obj
 0001:0001070c       ?OnHScroll@CWnd@@IAEXIIPAVCScrollBar@@@Z 0041170c f   uafxcw:wincore.obj
 0001:0001070c       ?OnVScroll@CWnd@@IAEXIIPAVCScrollBar@@@Z 0041170c f   uafxcw:wincore.obj
 0001:00010730       ?OnHelpInfo@CWnd@@IAEHPAUtagHELPINFO@@@Z 00411730 f   uafxcw:wincore.obj
 0001:0001079e       ?OnMeasureItem@CWnd@@IAEXHPAUtagMEASUREITEMSTRUCT@@@Z 0041179e f   uafxcw:wincore.obj
 0001:00010840       ?OnNTCtlColor@CWnd@@IAEJIJ@Z 00411840 f   uafxcw:wincore.obj
 0001:0001089c       ?OnNcDestroy@CWnd@@IAEXXZ  0041189c f   uafxcw:wincore.obj
 0001:000109ee       ?OnNotify@CWnd@@MAEHIJPAJ@Z 004119ee f   uafxcw:wincore.obj
 0001:00010a7a       ?OnPaint@CWnd@@IAEXXZ      00411a7a f   uafxcw:wincore.obj
 0001:00010acf       ?OnParentNotify@CWnd@@IAEXIJ@Z 00411acf f   uafxcw:wincore.obj
 0001:00010afd       ?OnSetFocus@CWnd@@IAEXPAV1@@Z 00411afd f   uafxcw:wincore.obj
 0001:00010b2e       ?OnSettingChange@CWnd@@IAEXIPB_W@Z 00411b2e f   uafxcw:wincore.obj
 0001:00010b6a       ?OnSysColorChange@CWnd@@IAEXXZ 00411b6a f   uafxcw:wincore.obj
 0001:00010bb0       ?OnTabletQuerySystemGestureStatus@CWnd@@IAEJIJ@Z 00411bb0 f   uafxcw:wincore.obj
 0001:00010bf8       ?OnToolHitTest@CWnd@@UBEHVCPoint@@PAUtagTOOLINFOW@@@Z 00411bf8 f   uafxcw:wincore.obj
 0001:00010c6e       ?OnEraseMDIClientArea@CMFCVisualManager@@UAEHPAVCDC@@VCRect@@@Z 00411c6e f   uafxcw:afxvisualmanager.obj
 0001:00010c6e       ?OnTouchInput@CWnd@@MAEHVCPoint@@HHPAUtagTOUCHINPUT@@@Z 00411c6e f   uafxcw:wincore.obj
 0001:00010c73       ?OnTouchInputs@CWnd@@MAEHIPAUtagTOUCHINPUT@@@Z 00411c73 f   uafxcw:wincore.obj
 0001:00010ced       ?OnTouchMessage@CWnd@@IAEJIJ@Z 00411ced f   uafxcw:wincore.obj
 0001:00010e1e       ?OnWndMsg@CWnd@@MAEHIIJPAJ@Z 00411e1e f   uafxcw:wincore.obj
 0001:000117d6       ??1AFX_MAINTAIN_STATE2@@QAE@XZ 004127d6 f   uafxcw:afxstate.obj
 0001:000117d6       ??3@YAXPAX0@Z              004127d6 f   uafxcw:afxtls.obj
 0001:000117d6       ?AdjustLayout@CBasePane@@UAEXXZ 004127d6 f   uafxcw:afxbasepane.obj
 0001:000117d6       ?AdjustLayout@CMultiPaneFrameWnd@@UAEXXZ 004127d6 f   uafxcw:afxmultipaneframewnd.obj
 0001:000117d6       ?AdjustPaneFrames@CPaneFrameWnd@@UAEXXZ 004127d6 f   uafxcw:afxpaneframewnd.obj
 0001:000117d6       ?CheckGripperVisibility@CPaneFrameWnd@@UAEXXZ 004127d6 f   uafxcw:afxpaneframewnd.obj
 0001:000117d6       ?CleanUpSizes@CMFCRibbonBaseElement@@UAEXXZ 004127d6 f   uafxcw:afxbaseribbonelement.obj
 0001:000117d6       ?ClearData@CMFCToolBarComboBoxButton@@UAEXXZ 004127d6 f   uafxcw:afxtoolbarcomboboxbutton.obj
 0001:000117d6       ?DeleteContents@CDocument@@UAEXXZ 004127d6 f   uafxcw:doccore.obj
 0001:000117d6       ?Destroy@CSmartDockingGroupGuide@@UAEXXZ 004127d6 f   uafxcw:afxsmartdockingguide.obj
 0001:000117d6       ?DestroyCtrl@CMFCRibbonBaseElement@@UAEXXZ 004127d6 f   uafxcw:afxbaseribbonelement.obj
 0001:000117d6       ?DropDownList@CMFCRibbonEdit@@UAEXXZ 004127d6 f   uafxcw:afxribbonedit.obj
 0001:000117d6       ?DuplicateData@CMFCToolBarComboBoxButton@@UAEXXZ 004127d6 f   uafxcw:afxtoolbarcomboboxbutton.obj
 0001:000117d6       ?Flush@CMemFile@@UAEXXZ    004127d6 f   uafxcw:filemem.obj
 0001:000117d6       ?InitLibId@CWinApp@@UAEXXZ 004127d6 f   uafxcw:appui2.obj
 0001:000117d6       ?OnActivateTasksPanePage@CMFCTasksPane@@MAEXXZ 004127d6 f   uafxcw:afxtaskspane.obj
 0001:000117d6       ?OnAddToCustomizePage@CMFCToolBarButton@@UAEXXZ 004127d6 f   uafxcw:afxcolorbar.obj
 0001:000117d6       ?OnAfterCreatePopupMenu@CMFCToolBarMenuButton@@UAEXXZ 004127d6 f   uafxcw:afxtoolbarmenubutton.obj
 0001:000117d6       ?OnBrowse@CVSListBoxBase@@UAEXXZ 004127d6 f   uafxcw:afxvslistbox.obj
 0001:000117d6       ?OnCancel@CPropertyPage@@UAEXXZ 004127d6 f   uafxcw:dlgprop.obj
 0001:000117d6       ?OnCancelMode@CMFCToolBarButton@@UAEXXZ 004127d6 f   uafxcw:afxcolorbar.obj
 0001:000117d6       ?OnChangeTabs@CMFCBaseTabCtrl@@UAEXXZ 004127d6 f   uafxcw:afxpropertysheet.obj
 0001:000117d6       ?OnClose@CSmartDockingGroupGuidesWnd@@QAEXXZ 004127d6 f   uafxcw:afxsmartdockingguide.obj
 0001:000117d6       ?OnClose@CSmartDockingHighlighterWnd@@IAEXXZ 004127d6 f   uafxcw:afxsmartdockinghighlighterwnd.obj
 0001:000117d6       ?OnClose@CSmartDockingStandaloneGuideWnd@@IAEXXZ 004127d6 f   uafxcw:afxsmartdockingguide.obj
 0001:000117d6       ?OnContinueMoving@CDockablePane@@MAEXXZ 004127d6 f   uafxcw:afxoutlookbar.obj
 0001:000117d6       ?OnDragLeave@CMFCBaseTabCtrl@@UAEXXZ 004127d6 f   uafxcw:afxpropertysheet.obj
 0001:000117d6       ?OnDragLeave@CView@@UAEXXZ 004127d6 f   uafxcw:viewcore.obj
 0001:000117d6       ?OnDrawCaption@CBasePane@@UAEXXZ 004127d6 f   uafxcw:afxpropertysheet.obj
 0001:000117d6       ?OnFileNameChange@CFileDialog@@MAEXXZ 004127d6 f   uafxcw:dlgfile.obj
 0001:000117d6       ?OnFolderChange@CFileDialog@@MAEXXZ 004127d6 f   uafxcw:dlgfile.obj
 0001:000117d6       ?OnGlobalFontsChanged@CMFCToolBarButton@@UAEXXZ 004127d6 f   uafxcw:afxcolorbar.obj
 0001:000117d6       ?OnHideMenuBar@CFrameWnd@@MAEXXZ 004127d6 f   uafxcw:winfrm.obj
 0001:000117d6       ?OnInitToolsPage@CMFCToolBarsCustomizeDialog@@MAEXXZ 004127d6 f   uafxcw:afxtoolbarscustomizedialog.obj
 0001:000117d6       ?OnMove@CMFCToolBarButton@@UAEXXZ 004127d6 f   uafxcw:afxcolorbar.obj
 0001:000117d6       ?OnNcPaint@CMFCOutlookBarToolBar@@QAEXXZ 004127d6 f   uafxcw:afxoutlookbartabctrl.obj
 0001:000117d6       ?OnNcPaint@CMFCPopupMenuBar@@IAEXXZ 004127d6 f   uafxcw:afxpopupmenubar.obj
 0001:000117d6       ?OnOK@CPropertyPage@@UAEXXZ 004127d6 f   uafxcw:dlgprop.obj
 0001:000117d6       ?OnReset@CMFCToolBar@@UAEXXZ 004127d6 f   uafxcw:afxpropertysheet.obj
 0001:000117d6       ?OnScrollDown@CMFCOutlookBarTabCtrl@@MAEXXZ 004127d6 f   uafxcw:afxoutlookbartabctrl.obj
 0001:000117d6       ?OnScrollUp@CMFCOutlookBarTabCtrl@@MAEXXZ 004127d6 f   uafxcw:afxoutlookbartabctrl.obj
 0001:000117d6       ?OnSelectionChanged@CVSListBoxBase@@UAEXXZ 004127d6 f   uafxcw:afxvslistbox.obj
 0001:000117d6       ?OnShowMenuBar@CFrameWnd@@MAEXXZ 004127d6 f   uafxcw:winfrm.obj
 0001:000117d6       ?OnSysColorChange@CMFCCaptionBar@@IAEXXZ 004127d6 f   uafxcw:afxcaptionbar.obj
 0001:000117d6       ?OnSysColorChange@CMFCShadowRenderer@@UAEXXZ 004127d6 f   uafxcw:afxcontrolrenderer.obj
 0001:000117d6       ?OnTypeChange@CFileDialog@@MAEXXZ 004127d6 f   uafxcw:dlgfile.obj
 0001:000117d6       ?OnUnloadHandler@CDocument@@UAEXXZ 004127d6 f   uafxcw:doccore.obj
 0001:000117d6       ?OnUpdateSystemColors@CMFCVisualManager@@UAEXXZ 004127d6 f   uafxcw:afxvisualmanager.obj
 0001:000117d6       ?PostNcDestroy@COleCntrFrameWnd@@MAEXXZ 004127d6 f   uafxcw:oleipfrm.obj
 0001:000117d6       ?PostNcDestroy@CWnd@@MAEXXZ 004127d6 f   uafxcw:wincore.obj
 0001:000117d6       ?PreInitDialog@CDialog@@MAEXXZ 004127d6 f   uafxcw:dlgcore.obj
 0001:000117d6       ?PreSubclassWindow@CWnd@@UAEXXZ 004127d6 f   uafxcw:wincore.obj
 0001:000117d6       ?RecalcLayout@CBasePane@@UAEXXZ 004127d6 f   uafxcw:afxbasepane.obj
 0001:000117d6       ?SaveBarState@CMFCToolBarButton@@UAEXXZ 004127d6 f   uafxcw:afxcolorbar.obj
 0001:000117d6       ?SetRadio@CMFCToolBarButton@@UAEXXZ 004127d6 f   uafxcw:afxcolorbar.obj
 0001:000117d6       ?StretchHorizontally@CMFCRibbonBaseElement@@UAEXXZ 004127d6 f   uafxcw:afxbaseribbonelement.obj
 0001:000117d6       ?ToggleAutoHide@CPane@@UAEXXZ 004127d6 f   uafxcw:afxpropertysheet.obj
 0001:000117d6       @_guard_check_icall_nop@4  004127d6 f   libcmt:guard_support.obj
 0001:000117d6       __initialize_denormal_control 004127d6 f   libcmt:denormal_control.obj
 0001:000117d6       __initialize_invalid_parameter_handler 004127d6 f   libcmt:invalid_parameter_handler.obj
 0001:000117d9       ?PreCreateWindow@CWnd@@UAEHAAUtagCREATESTRUCTW@@@Z 004127d9 f   uafxcw:wincore.obj
 0001:00011812       ?PreTranslateInput@CWnd@@QAEHPAUtagMSG@@@Z 00412812 f   uafxcw:wincore.obj
 0001:00011841       ?PreTranslateMessage@CWnd@@UAEHPAUtagMSG@@@Z 00412841 f   uafxcw:wincore.obj
 0001:0001186a       ?PrepareForHelp@CWnd@@QAEXXZ 0041286a f   uafxcw:wincore.obj
 0001:00011903       ?QueryInterface@?$CComObjectNoLock@VCAccessibleProxy@ATL@@@ATL@@UAGJABU_GUID@@PAPAX@Z 00412903 f i uafxcw:wincore.obj
 0001:0001191d       ?QueryInterface@?$CComObjectNoLock@VCAccessibleProxy@ATL@@@ATL@@W3AGJABU_GUID@@PAPAX@Z 0041291d f i uafxcw:wincore.obj
 0001:00011927       ?QueryInterface@?$CComObjectNoLock@VCAccessibleProxy@ATL@@@ATL@@WBA@AGJABU_GUID@@PAPAX@Z 00412927 f i uafxcw:wincore.obj
 0001:00011931       ?QueryInterface@XAccessible@CWnd@@UAGJABU_GUID@@PAPAX@Z 00412931 f   uafxcw:wincore.obj
 0001:00011971       ?QueryInterface@XAccessibleServer@CWnd@@UAGJABU_GUID@@PAPAX@Z 00412971 f   uafxcw:wincore.obj
 0001:000119b1       ?ReflectChildNotify@CWnd@@IAEHIIJPAJ@Z 004129b1 f   uafxcw:wincore.obj
 0001:00011aa7       ?ReflectLastMsg@CWnd@@KGHPAUHWND__@@PAJ@Z 00412aa7 f   uafxcw:wincore.obj
 0001:00011b51       ?RegisterTouchWindow@CWnd@@QAEHHK@Z 00412b51 f   uafxcw:wincore.obj
 0001:00011bcb       ?Release@?$CComObjectNoLock@VCAccessibleProxy@ATL@@@ATL@@UAGKXZ 00412bcb f i uafxcw:wincore.obj
 0001:00011bfd       ?Release@?$CComObjectNoLock@VCAccessibleProxy@ATL@@@ATL@@W3AGKXZ 00412bfd f i uafxcw:wincore.obj
 0001:00011c07       ?Release@?$CComObjectNoLock@VCAccessibleProxy@ATL@@@ATL@@WBA@AGKXZ 00412c07 f i uafxcw:wincore.obj
 0001:00011c11       ?Release@XAccessible@CWnd@@UAGKXZ 00412c11 f   uafxcw:wincore.obj
 0001:00011c4b       ?Release@XAccessibleServer@CWnd@@UAGKXZ 00412c4b f   uafxcw:wincore.obj
 0001:00011c85       ?RepositionBars@CWnd@@QAEXIIIIPAUtagRECT@@PBU2@H@Z 00412c85 f   uafxcw:wincore.obj
 0001:00011e02       ?ResizeDynamicLayout@CWnd@@MAEXXZ 00412e02 f   uafxcw:wincore.obj
 0001:00011e23       ?RunModalLoop@CWnd@@QAEHK@Z 00412e23 f   uafxcw:wincore.obj
 0001:00011f8a       ?ScrollWindow@CWnd@@QAEXHHPBUtagRECT@@0@Z 00412f8a f   uafxcw:wincore.obj
 0001:0001206a       ?SendChildNotifyLastMsg@CWnd@@QAEHPAJ@Z 0041306a f   uafxcw:wincore.obj
 0001:000120b2       ?SendMessageToDescendants@CWnd@@SGXPAUHWND__@@IIJHH@Z 004130b2 f   uafxcw:wincore.obj
 0001:0001212f       ?AccNotifyObjectFocusEvent@CBasePane@@UAEXH@Z 0041312f f   uafxcw:afxbasepane.obj
 0001:0001212f       ?AdjustSizeImmediate@CMFCPopupMenuBar@@UAEXH@Z 0041312f f   uafxcw:afxcolorbar.obj
 0001:0001212f       ?AdjustTabTextRect@CMFCVisualManager@@UAEXAAVCRect@@@Z 0041312f f   uafxcw:afxvisualmanager.obj
 0001:0001212f       ?ConvertToTabbedDocument@CPane@@UAEXH@Z 0041312f f   uafxcw:afxpane.obj
 0001:0001212f       ?DeleteItem@CComboBox@@UAEXPAUtagDELETEITEMSTRUCT@@@Z 0041312f f   uafxcw:winctrl1.obj
 0001:0001212f       ?DeleteItem@CListBox@@UAEXPAUtagDELETEITEMSTRUCT@@@Z 0041312f f   uafxcw:winctrl1.obj
 0001:0001212f       ?DoPaint@CDockBar@@UAEXPAVCDC@@@Z 0041312f f   uafxcw:bardock.obj
 0001:0001212f       ?DoPaint@CDummyDockablePane@@EAEXPAVCDC@@@Z 0041312f f   uafxcw:afxdragframeimpl.obj
 0001:0001212f       ?DrawItem@CButton@@UAEXPAUtagDRAWITEMSTRUCT@@@Z 0041312f f   uafxcw:winctrl1.obj
 0001:0001212f       ?DrawItem@CComboBox@@UAEXPAUtagDRAWITEMSTRUCT@@@Z 0041312f f   uafxcw:winctrl1.obj
 0001:0001212f       ?DrawItem@CHeaderCtrl@@UAEXPAUtagDRAWITEMSTRUCT@@@Z 0041312f f   uafxcw:winctrl2.obj
 0001:0001212f       ?DrawItem@CListBox@@UAEXPAUtagDRAWITEMSTRUCT@@@Z 0041312f f   uafxcw:winctrl1.obj
 0001:0001212f       ?DrawItem@CListCtrl@@UAEXPAUtagDRAWITEMSTRUCT@@@Z 0041312f f   uafxcw:winctrl2.obj
 0001:0001212f       ?DrawItem@CMenu@@UAEXPAUtagDRAWITEMSTRUCT@@@Z 0041312f f   uafxcw:winmenu.obj
 0001:0001212f       ?DrawItem@CStatic@@UAEXPAUtagDRAWITEMSTRUCT@@@Z 0041312f f   uafxcw:winctrl1.obj
 0001:0001212f       ?DrawItem@CStatusBar@@UAEXPAUtagDRAWITEMSTRUCT@@@Z 0041312f f   uafxcw:barstat.obj
 0001:0001212f       ?EnableGripper@CBasePane@@UAEXH@Z 0041312f f   uafxcw:afxpropertysheet.obj
 0001:0001212f       ?MeasureItem@CCheckListBox@@UAEXPAUtagMEASUREITEMSTRUCT@@@Z 0041312f f   uafxcw:winctrl3.obj
 0001:0001212f       ?MeasureItem@CComboBox@@UAEXPAUtagMEASUREITEMSTRUCT@@@Z 0041312f f   uafxcw:winctrl1.obj
 0001:0001212f       ?MeasureItem@CListBox@@UAEXPAUtagMEASUREITEMSTRUCT@@@Z 0041312f f   uafxcw:winctrl1.obj
 0001:0001212f       ?MeasureItem@CMenu@@UAEXPAUtagMEASUREITEMSTRUCT@@@Z 0041312f f   uafxcw:winmenu.obj
 0001:0001212f       ?OnActivateTab@CBaseTabbedPane@@MAEXH@Z 0041312f f   uafxcw:afxoutlookbar.obj
 0001:0001212f       ?OnAfterAddItem@CVSListBoxBase@@UAEXH@Z 0041312f f   uafxcw:afxvslistbox.obj
 0001:0001212f       ?OnAfterAnimation@CMFCOutlookBar@@UAEXH@Z 0041312f f   uafxcw:afxoutlookbar.obj
 0001:0001212f       ?OnAfterChangeParent@CBasePane@@UAEXPAVCWnd@@@Z 0041312f f   uafxcw:afxbasepane.obj
 0001:0001212f       ?OnAfterChangeParent@CMFCBaseToolBar@@UAEXPAVCWnd@@@Z 0041312f f   uafxcw:afxbasetoolbar.obj
 0001:0001212f       ?OnAfterChangeTool@CMFCToolBarsCustomizeDialog@@MAEXPAVCUserTool@@@Z 0041312f f   uafxcw:afxtoolbarscustomizedialog.obj
 0001:0001212f       ?OnAfterMoveItemDown@CVSListBoxBase@@UAEXH@Z 0041312f f   uafxcw:afxvslistbox.obj
 0001:0001212f       ?OnAfterMoveItemUp@CVSListBoxBase@@UAEXH@Z 0041312f f   uafxcw:afxvslistbox.obj
 0001:0001212f       ?OnAfterRenameItem@CVSListBoxBase@@UAEXH@Z 0041312f f   uafxcw:afxvslistbox.obj
 0001:0001212f       ?OnAfterStretch@CPane@@MAEXH@Z 0041312f f   uafxcw:afxpane.obj
 0001:0001212f       ?OnBeforeChangeTool@CMFCToolBarsCustomizeDialog@@MAEXPAVCUserTool@@@Z 0041312f f   uafxcw:afxtoolbarscustomizedialog.obj
 0001:0001212f       ?OnBeforeStretch@CPane@@MAEXAAH@Z 0041312f f   uafxcw:afxpropertysheet.obj
 0001:0001212f       ?OnButtonClicked@CFileDialog@@MAEXK@Z 0041312f f   uafxcw:dlgfile.obj
 0001:0001212f       ?OnCalcTextSize@CMFCRibbonBaseElement@@UAEXPAVCDC@@@Z 0041312f f   uafxcw:afxbaseribbonelement.obj
 0001:0001212f       ?OnChangeHot@CMFCPopupMenu@@MAEXH@Z 0041312f f   uafxcw:afxcolorbutton.obj
 0001:0001212f       ?OnCheck@CMFCRibbonBaseElement@@MAEXH@Z 0041312f f   uafxcw:afxbaseribbonelement.obj
 0001:0001212f       ?OnChooseItem@CMFCPopupMenu@@MAEXI@Z 0041312f f   uafxcw:afxcolorbutton.obj
 0001:0001212f       ?OnControlActivating@CFileDialog@@MAEXK@Z 0041312f f   uafxcw:dlgfile.obj
 0001:0001212f       ?OnDblClk@CMFCToolBarButton@@UAEXPAVCWnd@@@Z 0041312f f   uafxcw:afxcolorbar.obj
 0001:0001212f       ?OnDefaultMenuLoaded@CMFCMenuBar@@UAEXPAUHMENU__@@@Z 0041312f f   uafxcw:afxmenubar.obj
 0001:0001212f       ?OnDrawBorder@CMFCPropertyGridCtrl@@MAEXPAVCDC@@@Z 0041312f f   uafxcw:afxpropertygridctrl.obj
 0001:0001212f       ?OnEnable@CMFCRibbonBaseElement@@MAEXH@Z 0041312f f   uafxcw:afxbaseribbonelement.obj
 0001:0001212f       ?OnFillBackground@CMFCToolBar@@UAEXPAVCDC@@@Z 0041312f f   uafxcw:afxpropertysheet.obj
 0001:0001212f       ?OnHighlight@CMFCRibbonBaseElement@@MAEXH@Z 0041312f f   uafxcw:afxbaseribbonelement.obj
 0001:0001212f       ?OnMovePaneDivider@CBasePane@@UAEXPAVCPaneDivider@@@Z 0041312f f   uafxcw:afxpropertysheet.obj
 0001:0001212f       ?OnPressButtons@CDockablePane@@MAEXI@Z 0041312f f   uafxcw:afxoutlookbar.obj
 0001:0001212f       ?OnRTLChanged@CMFCRibbonBaseElement@@UAEXH@Z 0041312f f   uafxcw:afxbaseribbonelement.obj
 0001:0001212f       ?OnRemoveFromMiniFrame@CBasePane@@UAEXPAVCPaneFrameWnd@@@Z 0041312f f   uafxcw:afxpropertysheet.obj
 0001:0001212f       ?OnResizePane@CDockingPanesRow@@UAEXPAVCBasePane@@@Z 0041312f f   uafxcw:afxdockingpanesrow.obj
 0001:0001212f       ?OnScroll@CMFCOutlookBar@@UAEXH@Z 0041312f f   uafxcw:afxoutlookbar.obj
 0001:0001212f       ?OnSetFocus@CMFCRibbonBaseElement@@MAEXH@Z 0041312f f   uafxcw:afxbaseribbonelement.obj
 0001:0001212f       ?OnSetFont@CDialog@@UAEXPAVCFont@@@Z 0041312f f   uafxcw:dlgcore.obj
 0001:0001212f       ?OnShow@CMFCRibbonBaseElement@@UAEXH@Z 0041312f f   uafxcw:afxbaseribbonelement.obj
 0001:0001212f       ?OnShow@CMFCToolBarButton@@UAEXH@Z 0041312f f   uafxcw:afxcolorbar.obj
 0001:0001212f       ?OnShowEditbox@CMFCToolBarEditBoxButton@@MAEXH@Z 0041312f f   uafxcw:afxtoolbareditboxbutton.obj
 0001:0001212f       ?OnSize@CMFCToolBarButton@@UAEXH@Z 0041312f f   uafxcw:afxcolorbar.obj
 0001:0001212f       ?PreCloseFrame@CDocument@@UAEXPAVCFrameWnd@@@Z 0041312f f   uafxcw:doccore.obj
 0001:0001212f       ?Serialize@CMFCToolBarMenuButtonsButton@@UAEXAAVCArchive@@@Z 0041312f f   uafxcw:afxtoolbarmenubuttonsbutton.obj
 0001:0001212f       ?Serialize@CMFCToolBarSystemMenuButton@@UAEXAAVCArchive@@@Z 0041312f f   uafxcw:afxtoolbarsystemmenubutton.obj
 0001:0001212f       ?SetActive@CMFCRibbonPanelMenu@@UAEXH@Z 0041312f f   uafxcw:afxribbonminitoolbar.obj
 0001:0001212f       ?SetCheck@CMFCTasksPaneToolBarCmdUI@@UAEXH@Z 0041312f f   uafxcw:afxtaskspane.obj
 0001:0001212f       ?SetCheck@CTestCmdUI@@UAEXH@Z 0041312f f   uafxcw:wincore.obj
 0001:0001212f       ?SetRadio@CMFCTasksPaneToolBarCmdUI@@UAEXH@Z 0041312f f   uafxcw:afxtaskspane.obj
 0001:0001212f       ?SetRadio@CTestCmdUI@@UAEXH@Z 0041312f f   uafxcw:wincore.obj
 0001:0001212f       ?SetText@CTestCmdUI@@UAEXPB_W@Z 0041312f f   uafxcw:wincore.obj
 0001:0001212f       ?SetText@CToolCmdUI@@UAEXPB_W@Z 0041312f f   uafxcw:bartool.obj
 0001:0001212f       ?Show@CSmartDockingGroupGuide@@UAEXH@Z 0041312f f   uafxcw:afxsmartdockingguide.obj
 0001:0001212f       ?StoreRecentDockSiteInfo@CPaneFrameWnd@@UAEXPAVCPane@@@Z 0041312f f   uafxcw:afxpaneframewnd.obj
 0001:0001212f       ?UndockPane@CBasePane@@UAEXH@Z 0041312f f   uafxcw:afxbasepane.obj
 0001:00012132       ?SetMenu@CWnd@@UAEHPAVCMenu@@@Z 00413132 f   uafxcw:wincore.obj
 0001:0001214d       ?SetProxy@CWnd@@UAEJPAUIAccessibleProxy@@@Z 0041314d f   uafxcw:wincore.obj
 0001:0001215c       ?SetProxy@XAccessibleServer@CWnd@@UAGJPAUIAccessibleProxy@@@Z 0041315c f   uafxcw:wincore.obj
 0001:000121a7       ?SetScrollInfo@CWnd@@QAEHHPAUtagSCROLLINFO@@H@Z 004131a7 f   uafxcw:wincore.obj
 0001:000121fa       ?SetScrollPos@CWnd@@QAEHHHH@Z 004131fa f   uafxcw:wincore.obj
 0001:00012238       ?SetScrollRange@CWnd@@QAEXHHHH@Z 00413238 f   uafxcw:wincore.obj
 0001:00012279       ?SetServer@?$IAccessibleProxyImpl@VCAccessibleProxy@ATL@@@ATL@@UAGJPAUIAccessible@@PAUIAccessibleServer@@@Z 00413279 f i uafxcw:wincore.obj
 0001:00012291       ?SetWindowPlacement@CWnd@@QAEHPBUtagWINDOWPLACEMENT@@@Z 00413291 f   uafxcw:wincore.obj
 0001:000122ab       ?SubclassDlgItem@CWnd@@QAEHIPAV1@@Z 004132ab f   uafxcw:wincore.obj
 0001:00012326       ?SubclassWindow@CWnd@@QAEHPAUHWND__@@@Z 00413326 f   uafxcw:wincore.obj
 0001:00012380       ?TrackPopupMenu@CMenu@@QAEHIHHPAVCWnd@@PBUtagRECT@@@Z 00413380 f   uafxcw:wincore.obj
 0001:000123d4       ?Unlock@CInternalGlobalLock@@QAEXXZ 004133d4 f i uafxcw:wincore.obj
 0001:000123ed       ?UnsubclassWindow@CWnd@@QAEPAUHWND__@@XZ 004133ed f   uafxcw:wincore.obj
 0001:00012420       ?UpdateData@CWnd@@QAEHH@Z  00413420 f   uafxcw:wincore.obj
 0001:000124c2       ?UpdateDialogControls@CWnd@@QAEXPAVCCmdTarget@@H@Z 004134c2 f   uafxcw:wincore.obj
 0001:000125d1       ?WalkPreTranslateTree@CWnd@@SGHPAUHWND__@@PAUtagMSG@@@Z 004135d1 f   uafxcw:wincore.obj
 0001:00012625       ?WinHelpInternal@CWnd@@UAEXKI@Z 00413625 f   uafxcw:wincore.obj
 0001:0001267e       ?WinHelpW@CWnd@@UAEXKI@Z   0041367e f   uafxcw:wincore.obj
 0001:000126f0       ?WindowProc@CWnd@@MAEJIIJ@Z 004136f0 f   uafxcw:wincore.obj
 0001:00012749       ?_AfxActivationWndProc@@YGJPAUHWND__@@IIJ@Z 00413749 f   uafxcw:wincore.obj
 0001:000128b4       ?_AfxCbtFilterHook@@YGJHIJ@Z 004138b4 f   uafxcw:wincore.obj
 0001:00012ad8       ?_AfxFindPopupMenuFromID@@YGPAVCMenu@@PAV1@I@Z 00413ad8 f   uafxcw:wincore.obj
 0001:00012b4e       ?_AfxHandleActivate@@YGXPAVCWnd@@I0@Z 00413b4e f   uafxcw:wincore.obj
 0001:00012bc3       ?_AfxHandleSetCursor@@YGHPAVCWnd@@II@Z 00413bc3 f   uafxcw:wincore.obj
 0001:00012c39       ?_AfxInitCommonControls@@YGJPAUtagINITCOMMONCONTROLSEX@@J@Z 00413c39 f   uafxcw:wincore.obj
 0001:00012c55       ?_AfxModifyStyle@@YGHPAUHWND__@@HKKI@Z 00413c55 f   uafxcw:wincore.obj
 0001:00012ca5       ?_AfxPostInitDialog@@YGXPAVCWnd@@ABUtagRECT@@K@Z 00413ca5 f   uafxcw:wincore.obj
 0001:00012d50       ?_AfxPreInitDialog@@YGXPAVCWnd@@PAUtagRECT@@PAK@Z 00413d50 f   uafxcw:wincore.obj
 0001:00012d74       ?_AfxRegisterWithIcon@@YGHPAUtagWNDCLASSW@@PB_WI@Z 00413d74 f   uafxcw:wincore.obj
 0001:00012db6       ?accDoDefaultAction@?$IAccessibleProxyImpl@VCAccessibleProxy@ATL@@@ATL@@UAGJUtagVARIANT@@@Z 00413db6 f i uafxcw:wincore.obj
 0001:00012df0       ?accDoDefaultAction@CWnd@@UAEJUtagVARIANT@@@Z 00413df0 f   uafxcw:wincore.obj
 0001:00012e1c       ?accDoDefaultAction@XAccessible@CWnd@@UAGJUtagVARIANT@@@Z 00413e1c f   uafxcw:wincore.obj
 0001:00012e75       ?accHitTest@?$IAccessibleProxyImpl@VCAccessibleProxy@ATL@@@ATL@@UAGJJJPAUtagVARIANT@@@Z 00413e75 f i uafxcw:wincore.obj
 0001:00012eb5       ?accHitTest@CWnd@@UAEJJJPAUtagVARIANT@@@Z 00413eb5 f   uafxcw:wincore.obj
 0001:00012eda       ?accHitTest@XAccessible@CWnd@@UAGJJJPAUtagVARIANT@@@Z 00413eda f   uafxcw:wincore.obj
 0001:00012f2b       ?accLocation@?$IAccessibleProxyImpl@VCAccessibleProxy@ATL@@@ATL@@UAGJPAJ000UtagVARIANT@@@Z 00413f2b f i uafxcw:wincore.obj
 0001:00012f90       ?accLocation@CWnd@@UAEJPAJ000UtagVARIANT@@@Z 00413f90 f   uafxcw:wincore.obj
 0001:00012fc8       ?accLocation@XAccessible@CWnd@@UAGJPAJ000UtagVARIANT@@@Z 00413fc8 f   uafxcw:wincore.obj
 0001:0001302d       ?accNavigate@?$IAccessibleProxyImpl@VCAccessibleProxy@ATL@@@ATL@@UAGJJUtagVARIANT@@PAU3@@Z 0041402d f i uafxcw:wincore.obj
 0001:0001307a       ?accNavigate@CWnd@@UAEJJUtagVARIANT@@PAU2@@Z 0041407a f   uafxcw:wincore.obj
 0001:000130ac       ?accNavigate@XAccessible@CWnd@@UAGJJUtagVARIANT@@PAU3@@Z 004140ac f   uafxcw:wincore.obj
 0001:0001310b       ?accSelect@?$IAccessibleProxyImpl@VCAccessibleProxy@ATL@@@ATL@@UAGJJUtagVARIANT@@@Z 0041410b f i uafxcw:wincore.obj
 0001:00013148       ?accSelect@CWnd@@UAEJJUtagVARIANT@@@Z 00414148 f   uafxcw:wincore.obj
 0001:00013177       ?accSelect@XAccessible@CWnd@@UAGJJUtagVARIANT@@@Z 00414177 f   uafxcw:wincore.obj
 0001:000131d3       ?afxMapHWND@@YGPAVCHandleMap@@H@Z 004141d3 f   uafxcw:wincore.obj
 0001:00013244       ?get_accChild@?$IAccessibleProxyImpl@VCAccessibleProxy@ATL@@@ATL@@UAGJUtagVARIANT@@PAPAUIDispatch@@@Z 00414244 f i uafxcw:wincore.obj
 0001:0001328e       ?get_accChild@CWnd@@UAEJUtagVARIANT@@PAPAUIDispatch@@@Z 0041428e f   uafxcw:wincore.obj
 0001:000132bd       ?get_accChild@XAccessible@CWnd@@UAGJUtagVARIANT@@PAPAUIDispatch@@@Z 004142bd f   uafxcw:wincore.obj
 0001:00013319       ?get_accChildCount@?$IAccessibleProxyImpl@VCAccessibleProxy@ATL@@@ATL@@UAGJPAJ@Z 00414319 f i uafxcw:wincore.obj
 0001:00013353       ?get_accChildCount@CWnd@@UAEJPAJ@Z 00414353 f   uafxcw:wincore.obj
 0001:00013372       ?get_accChildCount@XAccessible@CWnd@@UAGJPAJ@Z 00414372 f   uafxcw:wincore.obj
 0001:000133bd       ?get_accDefaultAction@?$IAccessibleProxyImpl@VCAccessibleProxy@ATL@@@ATL@@UAGJUtagVARIANT@@PAPA_W@Z 004143bd f i uafxcw:wincore.obj
 0001:00013407       ?get_accDefaultAction@CWnd@@UAEJUtagVARIANT@@PAPA_W@Z 00414407 f   uafxcw:wincore.obj
 0001:00013436       ?get_accDefaultAction@XAccessible@CWnd@@UAGJUtagVARIANT@@PAPA_W@Z 00414436 f   uafxcw:wincore.obj
 0001:00013492       ?get_accDescription@?$IAccessibleProxyImpl@VCAccessibleProxy@ATL@@@ATL@@UAGJUtagVARIANT@@PAPA_W@Z 00414492 f i uafxcw:wincore.obj
 0001:000134dc       ?get_accDescription@CWnd@@UAEJUtagVARIANT@@PAPA_W@Z 004144dc f   uafxcw:wincore.obj
 0001:0001350b       ?get_accDescription@XAccessible@CWnd@@UAGJUtagVARIANT@@PAPA_W@Z 0041450b f   uafxcw:wincore.obj
 0001:00013567       ?get_accFocus@?$IAccessibleProxyImpl@VCAccessibleProxy@ATL@@@ATL@@UAGJPAUtagVARIANT@@@Z 00414567 f i uafxcw:wincore.obj
 0001:000135a1       ?get_accFocus@CWnd@@UAEJPAUtagVARIANT@@@Z 004145a1 f   uafxcw:wincore.obj
 0001:000135c0       ?get_accFocus@XAccessible@CWnd@@UAGJPAUtagVARIANT@@@Z 004145c0 f   uafxcw:wincore.obj
 0001:0001360b       ?get_accHelp@?$IAccessibleProxyImpl@VCAccessibleProxy@ATL@@@ATL@@UAGJUtagVARIANT@@PAPA_W@Z 0041460b f i uafxcw:wincore.obj
 0001:00013655       ?get_accHelp@CWnd@@UAEJUtagVARIANT@@PAPA_W@Z 00414655 f   uafxcw:wincore.obj
 0001:00013684       ?get_accHelp@XAccessible@CWnd@@UAGJUtagVARIANT@@PAPA_W@Z 00414684 f   uafxcw:wincore.obj
 0001:000136e0       ?get_accHelpTopic@?$IAccessibleProxyImpl@VCAccessibleProxy@ATL@@@ATL@@UAGJPAPA_WUtagVARIANT@@PAJ@Z 004146e0 f i uafxcw:wincore.obj
 0001:00013733       ?get_accHelpTopic@CWnd@@UAEJPAPA_WUtagVARIANT@@PAJ@Z 00414733 f   uafxcw:wincore.obj
 0001:00013765       ?get_accHelpTopic@XAccessible@CWnd@@UAGJPAPA_WUtagVARIANT@@PAJ@Z 00414765 f   uafxcw:wincore.obj
 0001:000137c4       ?get_accKeyboardShortcut@?$IAccessibleProxyImpl@VCAccessibleProxy@ATL@@@ATL@@UAGJUtagVARIANT@@PAPA_W@Z 004147c4 f i uafxcw:wincore.obj
 0001:0001380e       ?get_accKeyboardShortcut@CWnd@@UAEJUtagVARIANT@@PAPA_W@Z 0041480e f   uafxcw:wincore.obj
 0001:0001383d       ?get_accKeyboardShortcut@XAccessible@CWnd@@UAGJUtagVARIANT@@PAPA_W@Z 0041483d f   uafxcw:wincore.obj
 0001:00013899       ?get_accName@?$IAccessibleProxyImpl@VCAccessibleProxy@ATL@@@ATL@@UAGJUtagVARIANT@@PAPA_W@Z 00414899 f i uafxcw:wincore.obj
 0001:000138e3       ?get_accName@CWnd@@UAEJUtagVARIANT@@PAPA_W@Z 004148e3 f   uafxcw:wincore.obj
 0001:00013912       ?get_accName@XAccessible@CWnd@@UAGJUtagVARIANT@@PAPA_W@Z 00414912 f   uafxcw:wincore.obj
 0001:0001396e       ?get_accParent@?$IAccessibleProxyImpl@VCAccessibleProxy@ATL@@@ATL@@UAGJPAPAUIDispatch@@@Z 0041496e f i uafxcw:wincore.obj
 0001:000139a8       ?get_accParent@CWnd@@UAEJPAPAUIDispatch@@@Z 004149a8 f   uafxcw:wincore.obj
 0001:000139c7       ?get_accParent@XAccessible@CWnd@@UAGJPAPAUIDispatch@@@Z 004149c7 f   uafxcw:wincore.obj
 0001:00013a12       ?get_accRole@?$IAccessibleProxyImpl@VCAccessibleProxy@ATL@@@ATL@@UAGJUtagVARIANT@@PAU3@@Z 00414a12 f i uafxcw:wincore.obj
 0001:00013a5c       ?get_accRole@CWnd@@UAEJUtagVARIANT@@PAU2@@Z 00414a5c f   uafxcw:wincore.obj
 0001:00013a8b       ?get_accRole@XAccessible@CWnd@@UAGJUtagVARIANT@@PAU3@@Z 00414a8b f   uafxcw:wincore.obj
 0001:00013ae7       ?get_accSelection@?$IAccessibleProxyImpl@VCAccessibleProxy@ATL@@@ATL@@UAGJPAUtagVARIANT@@@Z 00414ae7 f i uafxcw:wincore.obj
 0001:00013b21       ?get_accSelection@CWnd@@UAEJPAUtagVARIANT@@@Z 00414b21 f   uafxcw:wincore.obj
 0001:00013b40       ?get_accSelection@XAccessible@CWnd@@UAGJPAUtagVARIANT@@@Z 00414b40 f   uafxcw:wincore.obj
 0001:00013b8b       ?get_accState@?$IAccessibleProxyImpl@VCAccessibleProxy@ATL@@@ATL@@UAGJUtagVARIANT@@PAU3@@Z 00414b8b f i uafxcw:wincore.obj
 0001:00013bd5       ?get_accState@CWnd@@UAEJUtagVARIANT@@PAU2@@Z 00414bd5 f   uafxcw:wincore.obj
 0001:00013c04       ?get_accState@XAccessible@CWnd@@UAGJUtagVARIANT@@PAU3@@Z 00414c04 f   uafxcw:wincore.obj
 0001:00013c60       ?get_accValue@?$IAccessibleProxyImpl@VCAccessibleProxy@ATL@@@ATL@@UAGJUtagVARIANT@@PAPA_W@Z 00414c60 f i uafxcw:wincore.obj
 0001:00013caa       ?get_accValue@CWnd@@UAEJUtagVARIANT@@PAPA_W@Z 00414caa f   uafxcw:wincore.obj
 0001:00013cd9       ?get_accValue@XAccessible@CWnd@@UAGJUtagVARIANT@@PAPA_W@Z 00414cd9 f   uafxcw:wincore.obj
 0001:00013d35       ?put_accName@?$IAccessibleProxyImpl@VCAccessibleProxy@ATL@@@ATL@@UAGJUtagVARIANT@@PA_W@Z 00414d35 f i uafxcw:wincore.obj
 0001:00013d35       ?put_accValue@?$IAccessibleProxyImpl@VCAccessibleProxy@ATL@@@ATL@@UAGJUtagVARIANT@@PA_W@Z 00414d35 f i uafxcw:wincore.obj
 0001:00013d50       ?put_accName@CWnd@@UAEJUtagVARIANT@@PA_W@Z 00414d50 f   uafxcw:wincore.obj
 0001:00013d50       ?put_accValue@CWnd@@UAEJUtagVARIANT@@PA_W@Z 00414d50 f   uafxcw:wincore.obj
 0001:00013d7f       ?put_accName@XAccessible@CWnd@@UAGJUtagVARIANT@@PA_W@Z 00414d7f f   uafxcw:wincore.obj
 0001:00013ddb       ?put_accValue@XAccessible@CWnd@@UAGJUtagVARIANT@@PA_W@Z 00414ddb f   uafxcw:wincore.obj
 0001:00013e37       _CommctrlIsolationAwarePrivatetRgCebPnQQeRff_pbZPgYQP_QYY@4 00414e37 f i uafxcw:wincore.obj
 0001:00013edd       _InlineIsEqualGUID         00414edd f i uafxcw:wincore.obj
 0001:00013f0d       _IsolationAwareActivateActCtx@8 00414f0d f i uafxcw:wincore.obj
 0001:00013f50       _IsolationAwareCreateActCtxW@4 00414f50 f i uafxcw:wincore.obj
 0001:00013f95       _IsolationAwareCreateWindowExW@48 00414f95 f i uafxcw:wincore.obj
 0001:00014064       _IsolationAwareDeactivateActCtx@8 00415064 f i uafxcw:wincore.obj
 0001:000140a7       _IsolationAwareFindActCtxSectionStringW@20 004150a7 f i uafxcw:wincore.obj
 0001:000140f3       _IsolationAwareGetClassInfoExW@12 004150f3 f i uafxcw:wincore.obj
 0001:000141a7       _IsolationAwareInitCommonControlsEx@4 004151a7 f i uafxcw:wincore.obj
 0001:00014276       _IsolationAwareLoadLibraryExW@12 00415276 f i uafxcw:wincore.obj
 0001:0001432a       _IsolationAwareLoadLibraryW@4 0041532a f i uafxcw:wincore.obj
 0001:000143d8       _IsolationAwarePrivatenPgViNgRzlnPgpgk@4 004153d8 f i uafxcw:wincore.obj
 0001:00014453       _IsolationAwarePrivatezltRgCebPnQQeRff@12 00415453 f i uafxcw:wincore.obj
 0001:00014491       _IsolationAwarePrivatezltRgzbQhYRuNaQYRJ@4 00415491 f i uafxcw:wincore.obj
 0001:0001449b       _IsolationAwarePrivatezltRgzbQhYRuNaQYRn@4 0041549b f i uafxcw:wincore.obj
 0001:000144a5       _IsolationAwarePrivatezlybNQyVOeNelJ@4 004154a5 f i uafxcw:wincore.obj
 0001:000144af       _IsolationAwarePrivatezlybNQyVOeNeln@4 004154af f i uafxcw:wincore.obj
 0001:000144b9       _IsolationAwareQueryActCtxW@28 004154b9 f i uafxcw:wincore.obj
 0001:0001450b       _IsolationAwareRegisterClassW@4 0041550b f i uafxcw:wincore.obj
 0001:000145bd       _WinbaseIsolationAwarePrivatetRgzlnPgpgk@0 004155bd f i uafxcw:wincore.obj
 0001:00014789       ??0?$CTypedPtrListIterator@VCPtrList@@PAUCOleControlSiteOrWnd@@@@QAE@ABV0@@Z 00415789 f i uafxcw:winocc.obj
 0001:000147a9       ??4?$CTypedPtrListIterator@VCPtrList@@PAUCOleControlSiteOrWnd@@@@QAEAAV0@ABV0@@Z 004157a9 f i uafxcw:winocc.obj
 0001:000147c7       ?AttachControlSite@COleControlContainer@@UAEXPAVCWnd@@I@Z 004157c7 f   uafxcw:winocc.obj
 0001:0001481a       ?AttachControlSite@CWnd@@IAEXPAVCHandleMap@@@Z 0041581a f   uafxcw:winocc.obj
 0001:00014868       ?AttachControlSite@CWnd@@QAEXPAV1@I@Z 00415868 f   uafxcw:winocc.obj
 0001:0001489b       ?CheckDlgButton@CWnd@@QAEXHI@Z 0041589b f   uafxcw:winocc.obj
 0001:000148d5       ?EnableWindow@CWnd@@QAEHH@Z 004158d5 f   uafxcw:winocc.obj
 0001:0001490c       ?FindSiteOrWnd@CWnd@@QBEPAU__POSITION@@PBUCOleControlSiteOrWnd@@@Z 0041590c f   uafxcw:winocc.obj
 0001:00014957       ?FindSiteOrWndWithFocus@CWnd@@QBEPAU__POSITION@@XZ 00415957 f   uafxcw:winocc.obj
 0001:000149e1       ?GetControlUnknown@CWnd@@QAEPAUIUnknown@@XZ 004159e1 f   uafxcw:winocc.obj
 0001:000149ed       ?GetDlgCtrlID@CWnd@@QBEHXZ 004159ed f   uafxcw:winocc.obj
 0001:00014a18       ?GetDlgItem@CWnd@@QBEPAV1@H@Z 00415a18 f   uafxcw:winocc.obj
 0001:00014a52       ?GetDlgItem@CWnd@@QBEXHPAPAUHWND__@@@Z 00415a52 f   uafxcw:winocc.obj
 0001:00014a8e       ?GetExStyle@CWnd@@QBEKXZ   00415a8e f   uafxcw:winocc.obj
 0001:00014ab8       ?GetFirstButton@CDlgGroupRadioButtonIterator@@QBE?AVCDlgControlIterator@@XZ 00415ab8 f i uafxcw:winocc.obj
 0001:00014b16       ?GetLastButton@CDlgGroupRadioButtonIterator@@QBE?AVCDlgControlIterator@@XZ 00415b16 f i uafxcw:winocc.obj
 0001:00014b79       ?GetNext@CObList@@QBEPBVCObject@@AAPAU__POSITION@@@Z 00415b79 f i uafxcw:afxtoolbar.obj
 0001:00014b79       ?GetNext@CPtrList@@QBEPBXAAPAU__POSITION@@@Z 00415b79 f i uafxcw:winocc.obj
 0001:00014b96       ?GetNextDlgGroupItem@CWnd@@QBEPAUCOleControlSiteOrWnd@@PAU2@@Z 00415b96 f   uafxcw:winocc.obj
 0001:00014be6       ?GetNextDlgTabItem@CWnd@@QBEPAUCOleControlSiteOrWnd@@PAU2@H@Z 00415be6 f   uafxcw:winocc.obj
 0001:00014d3c       ?GetOleControlSite@CWnd@@QBEPAVCOleControlSite@@I@Z 00415d3c f   uafxcw:winocc.obj
 0001:00014d66       ?GetPrev@?$_CTypedPtrList@VCPtrList@@PAUCOleControlSiteOrWnd@@@@QAEAAPAUCOleControlSiteOrWnd@@AAPAU__POSITION@@@Z 00415d66 f i uafxcw:winocc.obj
 0001:00014d6f       ?GetPrev@CObList@@QAEAAPAVCObject@@AAPAU__POSITION@@@Z 00415d6f f i uafxcw:list_o.obj
 0001:00014d6f       ?GetPrev@CPtrList@@QAEAAPAXAAPAU__POSITION@@@Z 00415d6f f i uafxcw:winocc.obj
 0001:00014d8d       ?GetPrev@CPtrList@@QBEPBXAAPAU__POSITION@@@Z 00415d8d f i uafxcw:winocc.obj
 0001:00014dab       ?GetPrevDlgGroupItem@CWnd@@QBEPAUCOleControlSiteOrWnd@@PAU2@@Z 00415dab f   uafxcw:winocc.obj
 0001:00014dfb       ?GetProperty@CWnd@@QBEXJGPAX@Z 00415dfb f   uafxcw:winocc.obj
 0001:00014e1e       ?GetStyle@COleControlSiteOrWnd@@QBEKXZ 00415e1e f   uafxcw:winocc.obj
 0001:00014e47       ?GetStyle@CWnd@@QBEKXZ     00415e47 f   uafxcw:winocc.obj
 0001:00014e71       ?GetFirstDocTemplatePosition@CDocManager@@UBEPAU__POSITION@@XZ 00415e71 f i uafxcw:docmgr.obj
 0001:00014e71       ?GetNilString@CFixedStringMgr@ATL@@UAEPAUCStringData@2@XZ 00415e71 f i uafxcw:olevar.obj
 0001:00014e71       ?GetTailPosition@CPtrList@@QBEPAU__POSITION@@XZ 00415e71 f i uafxcw:winocc.obj
 0001:00014e71       ?IsVisible@CDockingPanesRow@@UBEHXZ 00415e71 f i uafxcw:afxdockingpanesrow.obj
 0001:00014e71       ?IsVisible@CMFCAutoHideButton@@UBEHXZ 00415e71 f i uafxcw:afxautohidebutton.obj
 0001:00014e75       ?GetWindowTextW@CWnd@@QBEHPA_WH@Z 00415e75 f   uafxcw:winocc.obj
 0001:00014efd       ?InvokeHelper@CWnd@@QAAXJGGPAXPBEZZ 00415efd f   uafxcw:winocc.obj
 0001:00014f33       ?IsDialogMessageW@CWnd@@QAEHPAUtagMSG@@@Z 00415f33 f   uafxcw:winocc.obj
 0001:00014f76       ?IsDisabled@CDlgGroupRadioButtonIterator@@SA_NPBUCOleControlSiteOrWnd@@@Z 00415f76 f i uafxcw:winocc.obj
 0001:00014fb5       ?IsWindowEnabled@CWnd@@QBEHXZ 00415fb5 f   uafxcw:winocc.obj
 0001:00014fe0       ?ModifyStyle@CWnd@@QAEHKKI@Z 00415fe0 f   uafxcw:winocc.obj
 0001:00015022       ?ModifyStyleEx@CWnd@@QAEHKKI@Z 00416022 f   uafxcw:winocc.obj
 0001:00015064       ?MoveNext@CDlgGroupRadioButtonIterator@@QAEXXZ 00416064 f i uafxcw:winocc.obj
 0001:000150e0       ?MovePrev@CDlgGroupRadioButtonIterator@@QAEXXZ 004160e0 f i uafxcw:winocc.obj
 0001:0001515e       ?MoveWindow@CWnd@@QAEXHHHHH@Z 0041615e f   uafxcw:winocc.obj
 0001:000151aa       ?OnAmbientProperty@CWnd@@UAEHPAVCOleControlSite@@JPAUtagVARIANT@@@Z 004161aa f   uafxcw:winocc.obj
 0001:000151d2       ?PaintWindowlessControls@CWnd@@QAEHPAVCDC@@@Z 004161d2 f   uafxcw:winocc.obj
 0001:000151ff       ?RemoveRadioCheckFromGroup@CWnd@@QBEXPBUCOleControlSiteOrWnd@@@Z 004161ff f   uafxcw:winocc.obj
 0001:00015313       ?SetDlgCtrlID@CWnd@@QAEHH@Z 00416313 f   uafxcw:winocc.obj
 0001:0001534c       ?SetFocus@CWnd@@QAEPAV1@XZ 0041634c f   uafxcw:winocc.obj
 0001:000153c5       ?SetWindowPos@CWnd@@QAEHPBV1@HHHHI@Z 004163c5 f   uafxcw:winocc.obj
 0001:00015422       ?SetWindowTextW@CWnd@@QAEXPB_W@Z 00416422 f   uafxcw:winocc.obj
 0001:00015476       ?ShowWindow@CWnd@@QAEHH@Z  00416476 f   uafxcw:winocc.obj
 0001:000154ad       ?Skip@?$CTypedPtrListIterator@VCPtrList@@PAUCOleControlSiteOrWnd@@@@QBE?AV1@H@Z 004164ad f i uafxcw:winocc.obj
 0001:000154ed       ??0CDialog@@QAE@IPAVCWnd@@@Z 004164ed f   uafxcw:dlgcore.obj
 0001:0001552b       ??0CDialog@@QAE@XZ         0041652b f   uafxcw:dlgcore.obj
 0001:0001554c       ??1CDialog@@UAE@XZ         0041654c f   uafxcw:dlgcore.obj
 0001:0001559c       ??_9CDialog@@$BBIA@AE      0041659c f i uafxcw:dlgcore.obj
 0001:0001559c       ??_9CNewTypeDlg@@$BBIA@AE  0041659c f i uafxcw:docmgr.obj
 0001:000155ab       ??_9CDialog@@$BBIE@AE      004165ab f i uafxcw:dlgcore.obj
 0001:000155ba       ??_ECDialog@@UAEPAXI@Z     004165ba f i uafxcw:dlgcore.obj
 0001:000155ba       ??_GCDialog@@UAEPAXI@Z     004165ba f i uafxcw:dlgcore.obj
 0001:000155ed       ?AfxDlgProc@@YGHPAUHWND__@@IIJ@Z 004165ed f   uafxcw:dlgcore.obj
 0001:00015639       ?AfxHelpEnabled@@YGHXZ     00416639 f   uafxcw:dlgcore.obj
 0001:000156aa       ?CheckAutoCenter@CDialog@@UAEHXZ 004166aa f   uafxcw:dlgcore.obj
 0001:00015740       ?Create@CDialog@@UAEHPB_WPAVCWnd@@@Z 00416740 f   uafxcw:dlgcore.obj
 0001:000157a4       ?CreateDlg@CWnd@@IAEHPB_WPAV1@@Z 004167a4 f   uafxcw:dlgcore.obj
 0001:000157ec       ?CreateDlgIndirect@CWnd@@IAEHPBUDLGTEMPLATE@@PAV1@PAUHINSTANCE__@@@Z 004167ec f   uafxcw:dlgcore.obj
 0001:00015a07       ?CreateIndirect@CDialog@@IAEHPAXPAVCWnd@@PAUHINSTANCE__@@@Z 00416a07 f   uafxcw:dlgcore.obj
 0001:00015a3e       ?CreateIndirect@CDialog@@UAEHPAXPAVCWnd@@@Z 00416a3e f   uafxcw:dlgcore.obj
 0001:00015a52       ?CreateIndirect@CDialog@@UAEHPBUDLGTEMPLATE@@PAVCWnd@@PAX@Z 00416a52 f   uafxcw:dlgcore.obj
 0001:00015a7f       ?CreateRunDlgIndirect@CWnd@@IAEHPBUDLGTEMPLATE@@PAV1@PAUHINSTANCE__@@@Z 00416a7f f   uafxcw:dlgcore.obj
 0001:00015adc       ?DoModal@CDialog@@UAEHXZ   00416adc f   uafxcw:dlgcore.obj
 0001:00015cb4       ?EndDialog@CDialog@@QAEXH@Z 00416cb4 f   uafxcw:dlgcore.obj
 0001:00015cf4       ?GetMessageMap@CDialog@@MBEPBUAFX_MSGMAP@@XZ 00416cf4 f   uafxcw:dlgcore.obj
 0001:00015cf4       ?GetThisMessageMap@CDialog@@KGPBUAFX_MSGMAP@@XZ 00416cf4 f   uafxcw:dlgcore.obj
 0001:00015cfa       ?GetControlBarStyle@CBasePane@@UBEKXZ 00416cfa f   uafxcw:afxpropertysheet.obj
 0001:00015cfa       ?GetOccDialogInfo@CDialog@@MAEPAU_AFX_OCC_DIALOG_INFO@@XZ 00416cfa f   uafxcw:dlgcore.obj
 0001:00015d01       ?GetRuntimeClass@CDialog@@UBEPAUCRuntimeClass@@XZ 00416d01 f   uafxcw:dlgcore.obj
 0001:00015d07       ?HandleInitDialog@CDialog@@IAEJIJ@Z 00416d07 f   uafxcw:dlgcore.obj
 0001:00015dc3       ?Initialize@CDialog@@QAEXXZ 00416dc3 f   uafxcw:dlgcore.obj
 0001:00015dfc       ?OnCancel@CDialog@@MAEXXZ  00416dfc f   uafxcw:dlgcore.obj
 0001:00015e04       ?OnCmdMsg@CDialog@@UAEHIHPAXPAUAFX_CMDHANDLERINFO@@@Z 00416e04 f   uafxcw:dlgcore.obj
 0001:00015e04       ?OnCmdMsg@CPropertySheet@@UAEHIHPAXPAUAFX_CMDHANDLERINFO@@@Z 00416e04 f   uafxcw:dlgprop.obj
 0001:00015ea9       ?OnCommandHelp@CDialog@@IAEJIJ@Z 00416ea9 f   uafxcw:dlgcore.obj
 0001:00015ef7       ?OnEndSession@CDialog@@IAEXH@Z 00416ef7 f   uafxcw:dlgcore.obj
 0001:00015f53       ?OnHelpHitTest@CDialog@@IAEJIJ@Z 00416f53 f   uafxcw:dlgcore.obj
 0001:00015f69       ?OnInitDialog@CDialog@@UAEHXZ 00416f69 f   uafxcw:dlgcore.obj
 0001:00015fdf       ?OnOK@CDialog@@MAEXXZ      00416fdf f   uafxcw:dlgcore.obj
 0001:00015ff8       ?OnPaint@CDialog@@IAEXXZ   00416ff8 f   uafxcw:dlgcore.obj
 0001:00016037       ?OnQueryEndSession@CDialog@@IAEHXZ 00417037 f   uafxcw:dlgcore.obj
 0001:00016073       ?OnSetFont@CDialog@@IAEXPAVCFont@@H@Z 00417073 f   uafxcw:dlgcore.obj
 0001:0001609e       ?PostModal@CDialog@@IAEXXZ 0041709e f   uafxcw:dlgcore.obj
 0001:000160e7       ?PreModal@CDialog@@IAEPAUHWND__@@XZ 004170e7 f   uafxcw:dlgcore.obj
 0001:00016126       ?PreTranslateMessage@CDialog@@UAEHPAUtagMSG@@@Z 00417126 f   uafxcw:dlgcore.obj
 0001:000161cc       ?SetOccDialogInfo@CDialog@@MAEHPAU_AFX_OCC_DIALOG_INFO@@@Z 004171cc f   uafxcw:dlgcore.obj
 0001:000161df       _IsolationAwareCreateDialogIndirectParamW@20 004171df f i uafxcw:dlgcore.obj
 0001:00016299       ?DDX_Control@@YGXPAVCDataExchange@@HAAVCWnd@@@Z 00417299 f   uafxcw:wincore2.obj
 0001:00016357       ?ExecuteDlgInit@CWnd@@QAEHPAX@Z 00417357 f   uafxcw:wincore2.obj
 0001:00016495       ?GetHostWndRect@CMFCDynamicLayout@@QBEXAAVCRect@@@Z 00417495 f   uafxcw:wincore2.obj
 0001:0001659c       ??1CRegKey@ATL@@QAE@XZ     0041759c f i uafxcw:appui3.obj
 0001:000165a1       ??A?$CSimpleStringT@_W$0A@@ATL@@QBE_WH@Z 004175a1 f i uafxcw:appui3.obj
 0001:000165a1       ?GetAt@?$CSimpleStringT@_W$0A@@ATL@@QBE_WH@Z 004175a1 f i uafxcw:afxtoolbar.obj
 0001:000165c5       ?Close@CRegKey@ATL@@QAEJXZ 004175c5 f i uafxcw:appui3.obj
 0001:000165df       ?GetAppRegistryKey@CWinApp@@QAEPAUHKEY__@@PAVCAtlTransactionManager@ATL@@@Z 004175df f   uafxcw:appui3.obj
 0001:000166a0       ?GetITaskbarList3@CWinApp@@QAEPAUITaskbarList3@@XZ 004176a0 f   uafxcw:appui3.obj
 0001:000166fe       ?GetProfileBinary@CWinApp@@UAEHPB_W0PAPAEPAI@Z 004176fe f   uafxcw:appui3.obj
 0001:00016840       ?GetProfileIntW@CWinApp@@UAEIPB_W0H@Z 00417840 f   uafxcw:appui3.obj
 0001:000168ab       ?GetProfileStringW@CWinApp@@UAE?AV?$CStringT@_WV?$StrTraitMFC@_WV?$ChTraitsCRT@_W@ATL@@@@@ATL@@PB_W00@Z 004178ab f   uafxcw:appui3.obj
 0001:00016a29       ?GetSectionKey@CWinApp@@QAEPAUHKEY__@@PB_WPAVCAtlTransactionManager@ATL@@@Z 00417a29 f   uafxcw:appui3.obj
 0001:00016a7d       ?IsTaskbarInteractionEnabled@CWinApp@@UAEHXZ 00417a7d f   uafxcw:appui3.obj
 0001:00016a91       ?GetAutosaveInterval@CDataRecoveryHandler@@UBEHXZ 00417a91 f   uafxcw:afxdatarecovery.obj
 0001:00016a91       ?GetParentDockSite@CBasePane@@UBEPAVCDockSite@@XZ 00417a91 f   uafxcw:afxpropertysheet.obj
 0001:00016a91       ?IsWindows7@CWinApp@@QAEHXZ 00417a91 f   uafxcw:appui3.obj
 0001:00016a98       ?RegCreateKeyExW@CAtlTransactionManager@ATL@@QAEJPAUHKEY__@@PB_WKPA_WKKQAU_SECURITY_ATTRIBUTES@@PAPAU3@PAK@Z 00417a98 f i uafxcw:appui3.obj
 0001:00016b08       ?RegOpenKeyExW@CAtlTransactionManager@ATL@@QAEJPAUHKEY__@@PB_WKKPAPAU3@@Z 00417b08 f i uafxcw:appui3.obj
 0001:00016b6c       ?ReleaseTaskBarRefs@CWinApp@@QAEXXZ 00417b6c f   uafxcw:appui3.obj
 0001:00016ba1       ?SetRegistryKey@CWinApp@@IAEXPB_W@Z 00417ba1 f   uafxcw:appui3.obj
 0001:00016bd5       ?WriteProfileBinary@CWinApp@@UAEHPB_W0PAEI@Z 00417bd5 f   uafxcw:appui3.obj
 0001:00016cac       ?WriteProfileInt@CWinApp@@UAEHPB_W0H@Z 00417cac f   uafxcw:appui3.obj
 0001:00016d35       ?WriteProfileStringW@CWinApp@@UAEHPB_W00@Z 00417d35 f   uafxcw:appui3.obj
 0001:00016dd2       ??1CIPAddressCtrl@@UAE@XZ  00417dd2 f   uafxcw:winctrl6.obj
 0001:00016e1c       ?Create@CIPAddressCtrl@@UAEHKABUtagRECT@@PAVCWnd@@I@Z 00417e1c f   uafxcw:winctrl6.obj
 0001:00016e59       ?CreateEx@CHeaderCtrl@@UAEHKKABUtagRECT@@PAVCWnd@@I@Z 00417e59 f   uafxcw:winctrl2.obj
 0001:00016e59       ?CreateEx@CIPAddressCtrl@@UAEHKKABUtagRECT@@PAVCWnd@@I@Z 00417e59 f   uafxcw:winctrl6.obj
 0001:00016e59       ?CreateEx@CSpinButtonCtrl@@UAEHKKABUtagRECT@@PAVCWnd@@I@Z 00417e59 f   uafxcw:winctrl2.obj
 0001:00016e9e       ?GetAddress@CIPAddressCtrl@@QBEHAAE000@Z 00417e9e f   uafxcw:winctrl6.obj
 0001:00016ee8       ?GetRuntimeClass@CIPAddressCtrl@@UBEPAUCRuntimeClass@@XZ 00417ee8 f   uafxcw:winctrl6.obj
 0001:00016eee       ??2@YAPAXI@Z               00417eee f   uafxcw:afx_new_scalar.obj
 0001:00016f26       ??$SerializeElements@H@@YGXAAVCArchive@@PAHH@Z 00417f26 f i uafxcw:barstat.obj
 0001:00016f26       ??$SerializeElements@I@@YGXAAVCArchive@@PAIH@Z 00417f26 f i uafxcw:afxvslistbox.obj
 0001:00016f26       ??$SerializeElements@J@@YGXAAVCArchive@@PAJH@Z 00417f26 f i uafxcw:afxribboncolorbutton.obj
 0001:00016f26       ??$SerializeElements@PAUAFX_DYNAMIC_LAYOUT_ITEM@@@@YGXAAVCArchive@@PAPAUAFX_DYNAMIC_LAYOUT_ITEM@@H@Z 00417f26 f i uafxcw:afxlayout.obj
 0001:00016f26       ??$SerializeElements@PAUHICON__@@@@YGXAAVCArchive@@PAPAUHICON__@@H@Z 00417f26 f i uafxcw:afxbasetabctrl.obj
 0001:00016f26       ??$SerializeElements@PAUHINSTANCE__@@@@YGXAAVCArchive@@PAPAUHINSTANCE__@@H@Z 00417f26 f i uafxcw:afxtoolbarimages.obj
 0001:00016f26       ??$SerializeElements@PAUHMENU__@@@@YGXAAVCArchive@@PAPAUHMENU__@@H@Z 00417f26 f i uafxcw:afxcontextmenumanager.obj
 0001:00016f26       ??$SerializeElements@PAUHWND__@@@@YGXAAVCArchive@@PAPAUHWND__@@H@Z 00417f26 f i uafxcw:winfrm.obj
 0001:00016f26       ??$SerializeElements@PAU_ITEMIDLIST@@@@YGXAAVCArchive@@PAPAU_ITEMIDLIST@@H@Z 00417f26 f i uafxcw:afxshelltreectrl.obj
 0001:00016f26       ??$SerializeElements@PAVCDocument@@@@YGXAAVCArchive@@PAPAVCDocument@@H@Z 00417f26 f i uafxcw:afxdatarecovery.obj
 0001:00016f26       ??$SerializeElements@PAVCFrameWnd@@@@YGXAAVCArchive@@PAPAVCFrameWnd@@H@Z 00417f26 f i uafxcw:afxframeimpl.obj
 0001:00016f26       ??$SerializeElements@PAVCImageList@@@@YGXAAVCArchive@@PAPAVCImageList@@H@Z 00417f26 f i uafxcw:afxmdiclientareawnd.obj
 0001:00016f26       ??$SerializeElements@PAVCMDIChildWndEx@@@@YGXAAVCArchive@@PAPAVCMDIChildWndEx@@H@Z 00417f26 f i uafxcw:afxmdiclientareawnd.obj
 0001:00016f26       ??$SerializeElements@PAVCMFCButton@@@@YGXAAVCArchive@@PAPAVCMFCButton@@H@Z 00417f26 f i uafxcw:afxvslistbox.obj
 0001:00016f26       ??$SerializeElements@PAVCMFCPropertyGridProperty@@@@YGXAAVCArchive@@PAPAVCMFCPropertyGridProperty@@H@Z 00417f26 f i uafxcw:afxpropertygridctrl.obj
 0001:00016f26       ??$SerializeElements@PAVCMFCRibbonBaseElement@@@@YGXAAVCArchive@@PAPAVCMFCRibbonBaseElement@@H@Z 00417f26 f i uafxcw:afxribbonbutton.obj
 0001:00016f26       ??$SerializeElements@PAVCMFCRibbonContextCaption@@@@YGXAAVCArchive@@PAPAVCMFCRibbonContextCaption@@H@Z 00417f26 f i uafxcw:afxribbonquickaccesstoolbar.obj
 0001:00016f26       ??$SerializeElements@PAVCMFCRibbonKeyTip@@@@YGXAAVCArchive@@PAPAVCMFCRibbonKeyTip@@H@Z 00417f26 f i uafxcw:afxribbonbar.obj
 0001:00016f26       ??$SerializeElements@PAVCMFCRibbonPanel@@@@YGXAAVCArchive@@PAPAVCMFCRibbonPanel@@H@Z 00417f26 f i uafxcw:afxribboncategory.obj
 0001:00016f26       ??$SerializeElements@PAVCMFCRibbonStatusBarPane@@@@YGXAAVCArchive@@PAPAVCMFCRibbonStatusBarPane@@H@Z 00417f26 f i uafxcw:afxribbonstatusbarpane.obj
 0001:00016f26       ??$SerializeElements@PAVCMFCToolBarButton@@@@YGXAAVCArchive@@PAPAVCMFCToolBarButton@@H@Z 00417f26 f i uafxcw:afxtoolbar.obj
 0001:00016f26       ??$SerializeElements@PAVCMFCVisualManagerBitmapCacheItem@CMFCVisualManagerBitmapCache@@@@YGXAAVCArchive@@PAPAVCMFCVisualManagerBitmapCacheItem@CMFCVisualManagerBitmapCache@@H@Z 00417f26 f i uafxcw:afxvisualmanageroffice2007.obj
 0001:00016f26       ??$SerializeElements@PAVCObList@@@@YGXAAVCArchive@@PAPAVCObList@@H@Z 00417f26 f i uafxcw:afxcontextmenumanager.obj
 0001:00016f26       ??$SerializeElements@PAVCPane@@@@YGXAAVCArchive@@PAPAVCPane@@H@Z 00417f26 f i uafxcw:afxdockingmanager.obj
 0001:00016f26       ??$SerializeElements@PAVCPropertyPage@@@@YGXAAVCArchive@@PAPAVCPropertyPage@@H@Z 00417f26 f i uafxcw:afxtoolbarscustomizedialog.obj
 0001:00016f26       ??$SerializeElements@PAVCWnd@@@@YGXAAVCArchive@@PAPAVCWnd@@H@Z 00417f26 f i uafxcw:afxmdiclientareawnd.obj
 0001:00016f26       ??$SerializeElements@PAVIControlSiteFactory@@@@YGXAAVCArchive@@PAPAVIControlSiteFactory@@H@Z 00417f26 f i uafxcw:occmgr.obj
 0001:00016f26       ??$SerializeElements@PAX@@YGXAAVCArchive@@PAPAXH@Z 00417f26 f i uafxcw:afxmenuhash.obj
 0001:00016f26       ??$SerializeElements@W4LoadArrayObjType@CArchive@@@@YGXAAVCArchive@@PAW4LoadArrayObjType@0@H@Z 00417f26 f i uafxcw:arcobj.obj
 0001:00016fc8       ??0?$CList@PAUHWND__@@PAU1@@@QAE@H@Z 00417fc8 f i uafxcw:winfrm.obj
 0001:00016fee       ??0CFrameWnd@@QAE@XZ       00417fee f   uafxcw:winfrm.obj
 0001:00017101       ??0CPushRoutingFrame@@QAE@PAVCFrameWnd@@@Z 00418101 f i uafxcw:winfrm.obj
 0001:00017139       ??1?$CArray@PAUHWND__@@PAU1@@@UAE@XZ 00418139 f i uafxcw:winfrm.obj
 0001:0001714f       ??1?$CList@PAUHWND__@@PAU1@@@UAE@XZ 0041814f f i uafxcw:winfrm.obj
 0001:0001718e       ??1?$CTypedPtrArray@VCObArray@@PAVCBitmap@@@@UAE@XZ 0041818e f i uafxcw:winfrm.obj
 0001:00017193       ??1CBitmap@@UAE@XZ         00418193 f i uafxcw:winfrm.obj
 0001:00017193       ??1CPngImage@@UAE@XZ       00418193 f i uafxcw:afxtoolbarimages.obj
 0001:0001719e       ??1CChevronOwnerDrawMenu@@UAE@XZ 0041819e f i uafxcw:winfrm.obj
 0001:000171f5       ??1CFont@@UAE@XZ           004181f5 f i uafxcw:winfrm.obj
 0001:00017200       ??1CFrameWnd@@UAE@XZ       00418200 f   uafxcw:winfrm.obj
 0001:00017397       ??1CGdiObject@@UAE@XZ      00418397 f i uafxcw:winfrm.obj
 0001:000174a3       ??1CMenu@@UAE@XZ           004184a3 f i uafxcw:winfrm.obj
 0001:000174e2       ??1CPushRoutingFrame@@QAE@XZ 004184e2 f i uafxcw:winfrm.obj
 0001:00017500       ??8ATL@@YA_NABV?$CStringT@_WV?$StrTraitMFC@_WV?$ChTraitsCRT@_W@ATL@@@@@0@PB_W@Z 00418500 f i uafxcw:winfrm.obj
 0001:0001755a       ??_E?$CArray@PAUHWND__@@PAU1@@@UAEPAXI@Z 0041855a f i uafxcw:winfrm.obj
 0001:0001755a       ??_G?$CArray@PAUHWND__@@PAU1@@@UAEPAXI@Z 0041855a f i uafxcw:winfrm.obj
 0001:0001758a       ??_E?$CList@PAUHWND__@@PAU1@@@UAEPAXI@Z 0041858a f i uafxcw:winfrm.obj
 0001:0001758a       ??_G?$CList@PAUHWND__@@PAU1@@@UAEPAXI@Z 0041858a f i uafxcw:winfrm.obj
 0001:000175f3       ??_E?$CTypedPtrArray@VCObArray@@PAVCBitmap@@@@UAEPAXI@Z 004185f3 f i uafxcw:winfrm.obj
 0001:000175f3       ??_E?$CTypedPtrArray@VCObArray@@PAVCMFCCaptionButton@@@@UAEPAXI@Z 004185f3 f i uafxcw:afxdockablepane.obj
 0001:000175f3       ??_G?$CTypedPtrArray@VCObArray@@PAVCBitmap@@@@UAEPAXI@Z 004185f3 f i uafxcw:winfrm.obj
 0001:000175f3       ??_G?$CTypedPtrArray@VCObArray@@PAVCMFCCaptionButton@@@@UAEPAXI@Z 004185f3 f i uafxcw:afxdockablepane.obj
 0001:00017623       ??_ECBitmap@@UAEPAXI@Z     00418623 f i uafxcw:winfrm.obj
 0001:00017623       ??_ECPngImage@@UAEPAXI@Z   00418623 f i uafxcw:afxtoolbarimages.obj
 0001:00017623       ??_GCBitmap@@UAEPAXI@Z     00418623 f i uafxcw:winfrm.obj
 0001:00017623       ??_GCPngImage@@UAEPAXI@Z   00418623 f i uafxcw:afxtoolbarimages.obj
 0001:00017659       ??_ECFont@@UAEPAXI@Z       00418659 f i uafxcw:winfrm.obj
 0001:00017659       ??_GCFont@@UAEPAXI@Z       00418659 f i uafxcw:winfrm.obj
 0001:0001768f       ??_ECFrameWnd@@UAEPAXI@Z   0041868f f i uafxcw:winfrm.obj
 0001:0001768f       ??_GCFrameWnd@@UAEPAXI@Z   0041868f f i uafxcw:winfrm.obj
 0001:000176c2       ??_ECGdiObject@@UAEPAXI@Z  004186c2 f i uafxcw:winfrm.obj
 0001:000176c2       ??_GCGdiObject@@UAEPAXI@Z  004186c2 f i uafxcw:winfrm.obj
 0001:000176f2       ??_ECMenu@@UAEPAXI@Z       004186f2 f i uafxcw:winfrm.obj
 0001:000176f2       ??_GCMenu@@UAEPAXI@Z       004186f2 f i uafxcw:winfrm.obj
 0001:0001775b       ?ActivateFrame@CFrameWnd@@UAEXH@Z 0041875b f   uafxcw:winfrm.obj
 0001:000177af       ?AddFrameWnd@CFrameWnd@@IAEXXZ 004187af f   uafxcw:winfrm.obj
 0001:000177d9       ?AddTail@?$CList@II@@QAEPAU__POSITION@@I@Z 004187d9 f i uafxcw:afxtoolbarimages.obj
 0001:000177d9       ?AddTail@?$CList@KK@@QAEPAU__POSITION@@K@Z 004187d9 f i uafxcw:afxcolorbutton.obj
 0001:000177d9       ?AddTail@?$CList@PAUAFX_DYNAMIC_LAYOUT_ITEM@@PAU1@@@QAEPAU__POSITION@@PAUAFX_DYNAMIC_LAYOUT_ITEM@@@Z 004187d9 f i uafxcw:afxlayout.obj
 0001:000177d9       ?AddTail@?$CList@PAUHINSTANCE__@@PAU1@@@QAEPAU__POSITION@@PAUHINSTANCE__@@@Z 004187d9 f i uafxcw:afxtoolbarimages.obj
 0001:000177d9       ?AddTail@?$CList@PAUHWND__@@PAU1@@@QAEPAU__POSITION@@PAUHWND__@@@Z 004187d9 f i uafxcw:winfrm.obj
 0001:000177d9       ?AddTail@?$CList@PAU_ITEMIDLIST@@PAU1@@@QAEPAU__POSITION@@PAU_ITEMIDLIST@@@Z 004187d9 f i uafxcw:afxshelltreectrl.obj
 0001:000177d9       ?AddTail@?$CList@PAVCFrameWnd@@PAV1@@@QAEPAU__POSITION@@PAVCFrameWnd@@@Z 004187d9 f i uafxcw:afxframeimpl.obj
 0001:000177d9       ?AddTail@?$CList@PAVCMDIChildWndEx@@PAV1@@@QAEPAU__POSITION@@PAVCMDIChildWndEx@@@Z 004187d9 f i uafxcw:afxmdiclientareawnd.obj
 0001:000177d9       ?AddTail@?$CList@PAVCMFCButton@@PAV1@@@QAEPAU__POSITION@@PAVCMFCButton@@@Z 004187d9 f i uafxcw:afxvslistbox.obj
 0001:000177d9       ?AddTail@?$CList@PAVCMFCPropertyGridProperty@@PAV1@@@QAEPAU__POSITION@@PAVCMFCPropertyGridProperty@@@Z 004187d9 f i uafxcw:afxpropertygridctrl.obj
 0001:000177d9       ?AddTail@?$CList@PAVCPropertyPage@@PAV1@@@QAEPAU__POSITION@@PAVCPropertyPage@@@Z 004187d9 f i uafxcw:afxtoolbarscustomizedialog.obj
 0001:000177d9       ?AddTail@?$CList@PAVIControlSiteFactory@@PAV1@@@QAEPAU__POSITION@@PAVIControlSiteFactory@@@Z 004187d9 f i uafxcw:occmgr.obj
 0001:00017805       ?AfxIsDescendant@@YGHPAUHWND__@@0@Z 00418805 f   uafxcw:winfrm.obj
 0001:00017823       ?BeginModalState@CFrameWnd@@UAEXXZ 00418823 f   uafxcw:winfrm.obj
 0001:00017944       ?BringToTop@CFrameWnd@@IAEXH@Z 00418944 f   uafxcw:winfrm.obj
 0001:00017976       ?Create@CFrameWnd@@UAEHPB_W0KABUtagRECT@@PAVCWnd@@0KPAUCCreateContext@@@Z 00418976 f   uafxcw:winfrm.obj
 0001:00017a4d       ?CreateObject@?$CThreadLocal@VAFX_MODULE_THREAD_STATE@@@@SGPAVCNoTrackObject@@XZ 00418a4d f i uafxcw:winfrm.obj
 0001:00017a79       ?CreateObject@CFrameWnd@@SGPAVCObject@@XZ 00418a79 f   uafxcw:winfrm.obj
 0001:00017aa9       ?CreateView@CFrameWnd@@QAEPAVCWnd@@PAUCCreateContext@@I@Z 00418aa9 f   uafxcw:winfrm.obj
 0001:00017b46       ?DelayUpdateFrameMenu@CFrameWnd@@UAEXPAUHMENU__@@@Z 00418b46 f   uafxcw:winfrm.obj
 0001:00017b5d       ?DestroyDockBars@CFrameWnd@@QAEXXZ 00418b5d f   uafxcw:winfrm.obj
 0001:00017ca2       ?ElementAt@?$CArray@HABH@@QAEAAHH@Z 00418ca2 f i uafxcw:barstat.obj
 0001:00017ca2       ?ElementAt@?$CArray@HH@@QAEAAHH@Z 00418ca2 f i uafxcw:afxbasetabctrl.obj
 0001:00017ca2       ?ElementAt@?$CArray@JJ@@QAEAAJH@Z 00418ca2 f i uafxcw:afxribboncolorbutton.obj
 0001:00017ca2       ?ElementAt@?$CArray@KK@@QAEAAKH@Z 00418ca2 f i uafxcw:afxcolorbar.obj
 0001:00017ca2       ?ElementAt@?$CArray@PAVCMFCRibbonBaseElement@@PAV1@@@QAEAAPAVCMFCRibbonBaseElement@@H@Z 00418ca2 f i uafxcw:afxribbonbutton.obj
 0001:00017ca2       ?ElementAt@?$CArray@PAVCMFCRibbonCategory@@PAV1@@@QAEAAPAVCMFCRibbonCategory@@H@Z 00418ca2 f i uafxcw:afxribbonbar.obj
 0001:00017ca2       ?ElementAt@?$CArray@PAVCMFCRibbonKeyTip@@PAV1@@@QAEAAPAVCMFCRibbonKeyTip@@H@Z 00418ca2 f i uafxcw:afxribbonbar.obj
 0001:00017ca2       ?ElementAt@?$CArray@PAVCMFCRibbonPanel@@PAV1@@@QAEAAPAVCMFCRibbonPanel@@H@Z 00418ca2 f i uafxcw:afxribboncategory.obj
 0001:00017ca2       ?ElementAt@?$CArray@PAVCMFCVisualManagerBitmapCacheItem@CMFCVisualManagerBitmapCache@@PAV12@@@QAEAAPAVCMFCVisualManagerBitmapCacheItem@CMFCVisualManagerBitmapCache@@H@Z 00418ca2 f i uafxcw:afxvisualmanageroffice2007.obj
 0001:00017ca2       ?ElementAt@CObArray@@QAEAAPAVCObject@@H@Z 00418ca2 f i uafxcw:winfrm.obj
 0001:00017ca2       ?ElementAt@CPtrArray@@QAEAAPAXH@Z 00418ca2 f i uafxcw:bardock.obj
 0001:00017ca2       ?ElementAt@CStringArray@@QAEAAV?$CStringT@_WV?$StrTraitMFC@_WV?$ChTraitsCRT@_W@ATL@@@@@ATL@@H@Z 00418ca2 f i uafxcw:afxtagmanager.obj
 0001:00017ca2       ?ElementAt@CUIntArray@@QAEAAIH@Z 00418ca2 f i uafxcw:afxpopupmenubar.obj
 0001:00017ca2       ?GetAt@?$CArray@HH@@QAEAAHH@Z 00418ca2 f i uafxcw:afxtoolbarslistcheckbox.obj
 0001:00017ca2       ?GetAt@?$CArray@HH@@QBEABHH@Z 00418ca2 f i uafxcw:afxpropertysheet.obj
 0001:00017ca2       ?GetAt@?$CArray@KK@@QBEABKH@Z 00418ca2 f i uafxcw:afxbasetabctrl.obj
 0001:00017ca2       ?GetAt@?$CArray@PAVCMFCRibbonBaseElement@@PAV1@@@QBEABQAVCMFCRibbonBaseElement@@H@Z 00418ca2 f i uafxcw:afxbaseribbonelement.obj
 0001:00017ca2       ?GetAt@?$CArray@PAVCMFCRibbonCategory@@PAV1@@@QBEABQAVCMFCRibbonCategory@@H@Z 00418ca2 f i uafxcw:afxribbonbar.obj
 0001:00017ca2       ?GetAt@?$CArray@PAVCMFCRibbonContextCaption@@PAV1@@@QBEABQAVCMFCRibbonContextCaption@@H@Z 00418ca2 f i uafxcw:afxribbonbar.obj
 0001:00017ca2       ?GetAt@?$CArray@PAVCMFCRibbonPanel@@PAV1@@@QBEABQAVCMFCRibbonPanel@@H@Z 00418ca2 f i uafxcw:afxribboncategory.obj
 0001:00017ca2       ?GetAt@?$CArray@W4LoadArrayObjType@CArchive@@ABW412@@@QAEAAW4LoadArrayObjType@CArchive@@H@Z 00418ca2 f i uafxcw:arcobj.obj
 0001:00017ca2       ?GetAt@CStringArray@@QBEABV?$CStringT@_WV?$StrTraitMFC@_WV?$ChTraitsCRT@_W@ATL@@@@@ATL@@H@Z 00418ca2 f i uafxcw:array_s.obj
 0001:00017cc1       ?EndModalState@CFrameWnd@@UAEXXZ 00418cc1 f   uafxcw:winfrm.obj
 0001:00017d2f       ?EnsureRead@CArchive@@QAEXPAXI@Z 00418d2f f i uafxcw:winfrm.obj
 0001:00017d50       ?ExitHelpMode@CFrameWnd@@UAEXXZ 00418d50 f   uafxcw:winfrm.obj
 0001:00017dce       ?GetActiveDocument@CFrameWnd@@UAEPAVCDocument@@XZ 00418dce f   uafxcw:winfrm.obj
 0001:00017de2       ?GetActiveView@CFrameWnd@@QBEPAVCView@@XZ 00418de2 f   uafxcw:winfrm.obj
 0001:00017de9       ?GetBuffer@?$CSimpleStringT@_W$0A@@ATL@@QAEPA_WXZ 00418de9 f i uafxcw:winfrm.obj
 0001:00017e00       ?GetControlBar@CFrameWnd@@QAEPAVCControlBar@@I@Z 00418e00 f   uafxcw:winfrm.obj
 0001:00017e4c       ?GetDefaultAccelerator@CFrameWnd@@UAEPAUHACCEL__@@XZ 00418e4c f   uafxcw:winfrm.obj
 0001:00017e91       ?GetDockingFrame@CControlBar@@QBEPAVCFrameWnd@@XZ 00418e91 f   uafxcw:winfrm.obj
 0001:00017ea5       ?GetIconWndClass@CFrameWnd@@IAEPB_WKI@Z 00418ea5 f   uafxcw:winfrm.obj
 0001:00017f34       ?GetImageList@CToolBarCtrl@@QBEPAVCImageList@@XZ 00418f34 f i uafxcw:winfrm.obj
 0001:00017f4d       ?GetMenu@CFrameWnd@@UBEPAVCMenu@@XZ 00418f4d f   uafxcw:winfrm.obj
 0001:00017f79       ?GetMenuBarState@CFrameWnd@@UBEKXZ 00418f79 f   uafxcw:winfrm.obj
 0001:00017f80       ?GetMenuBarVisibility@CFrameWnd@@UBEKXZ 00418f80 f   uafxcw:winfrm.obj
 0001:00017f87       ?GetMessageBar@CFrameWnd@@UAEPAVCWnd@@XZ 00418f87 f   uafxcw:winfrm.obj
 0001:00017f97       ?GetMessageMap@CFrameWnd@@MBEPBUAFX_MSGMAP@@XZ 00418f97 f   uafxcw:winfrm.obj
 0001:00017f97       ?GetThisMessageMap@CFrameWnd@@KGPBUAFX_MSGMAP@@XZ 00418f97 f   uafxcw:winfrm.obj
 0001:00017f9d       ?GetMessageString@CFrameWnd@@UBEXIAAV?$CStringT@_WV?$StrTraitMFC@_WV?$ChTraitsCRT@_W@ATL@@@@@ATL@@@Z 00418f9d f   uafxcw:winfrm.obj
 0001:00017fe4       ?GetRuntimeClass@CFrameWnd@@UBEPAUCRuntimeClass@@XZ 00418fe4 f   uafxcw:winfrm.obj
 0001:00017fea       ?InitialUpdateFrame@CFrameWnd@@QAEXPAVCDocument@@H@Z 00418fea f   uafxcw:winfrm.obj
 0001:000180e7       ?IsFloating@CControlBar@@QBEHXZ 004190e7 f   uafxcw:winfrm.obj
 0001:00018123       ?IsRectNull@CRect@@QBEHXZ  00419123 f i uafxcw:winfrm.obj
 0001:0001813a       ?LoadAccelTable@CFrameWnd@@QAEHPB_W@Z 0041913a f   uafxcw:winfrm.obj
 0001:00018166       ?LoadFrame@CFrameWnd@@UAEHIKPAVCWnd@@PAUCCreateContext@@@Z 00419166 f   uafxcw:winfrm.obj
 0001:00018288       ?NegotiateBorderSpace@CFrameWnd@@UAEHIPAUtagRECT@@@Z 00419288 f   uafxcw:winfrm.obj
 0001:000182fd       ?NewNode@?$CList@IAAI@@IAEPAUCNode@1@PAU21@0@Z 004192fd f i uafxcw:afxdockingmanager.obj
 0001:000182fd       ?NewNode@?$CList@II@@IAEPAUCNode@1@PAU21@0@Z 004192fd f i uafxcw:afxtoolbarimages.obj
 0001:000182fd       ?NewNode@?$CList@KK@@IAEPAUCNode@1@PAU21@0@Z 004192fd f i uafxcw:afxcolorbutton.obj
 0001:000182fd       ?NewNode@?$CList@PAUAFX_DYNAMIC_LAYOUT_ITEM@@PAU1@@@IAEPAUCNode@1@PAU21@0@Z 004192fd f i uafxcw:afxlayout.obj
 0001:000182fd       ?NewNode@?$CList@PAUHINSTANCE__@@PAU1@@@IAEPAUCNode@1@PAU21@0@Z 004192fd f i uafxcw:afxtoolbarimages.obj
 0001:000182fd       ?NewNode@?$CList@PAUHWND__@@AAPAU1@@@IAEPAUCNode@1@PAU21@0@Z 004192fd f i uafxcw:afxdockingmanager.obj
 0001:000182fd       ?NewNode@?$CList@PAUHWND__@@PAU1@@@IAEPAUCNode@1@PAU21@0@Z 004192fd f i uafxcw:winfrm.obj
 0001:000182fd       ?NewNode@?$CList@PAU_ITEMIDLIST@@PAU1@@@IAEPAUCNode@1@PAU21@0@Z 004192fd f i uafxcw:afxshelltreectrl.obj
 0001:000182fd       ?NewNode@?$CList@PAVCFrameWnd@@PAV1@@@IAEPAUCNode@1@PAU21@0@Z 004192fd f i uafxcw:afxframeimpl.obj
 0001:000182fd       ?NewNode@?$CList@PAVCMDIChildWndEx@@PAV1@@@IAEPAUCNode@1@PAU21@0@Z 004192fd f i uafxcw:afxmdiclientareawnd.obj
 0001:000182fd       ?NewNode@?$CList@PAVCMFCButton@@PAV1@@@IAEPAUCNode@1@PAU21@0@Z 004192fd f i uafxcw:afxvslistbox.obj
 0001:000182fd       ?NewNode@?$CList@PAVCMFCPropertyGridProperty@@PAV1@@@IAEPAUCNode@1@PAU21@0@Z 004192fd f i uafxcw:afxpropertygridctrl.obj
 0001:000182fd       ?NewNode@?$CList@PAVCPropertyPage@@PAV1@@@IAEPAUCNode@1@PAU21@0@Z 004192fd f i uafxcw:afxtoolbarscustomizedialog.obj
 0001:000182fd       ?NewNode@?$CList@PAVIControlSiteFactory@@PAV1@@@IAEPAUCNode@1@PAU21@0@Z 004192fd f i uafxcw:occmgr.obj
 0001:0001835c       ?NotifyFloatingWindows@CFrameWnd@@QAEXK@Z 0041935c f   uafxcw:winfrm.obj
 0001:0001841e       ?OnActivate@CFrameWnd@@IAEXIPAVCWnd@@H@Z 0041941e f   uafxcw:winfrm.obj
 0001:00018552       ?OnActivateTopLevel@CFrameWnd@@IAEJIJ@Z 00419552 f   uafxcw:winfrm.obj
 0001:00018612       ?OnBarCheck@CFrameWnd@@QAEHI@Z 00419612 f   uafxcw:winfrm.obj
 0001:0001864e       ?OnChevronPushed@CFrameWnd@@IAEHIPAUtagNMHDR@@PAJ@Z 0041964e f   uafxcw:winfrm.obj
 0001:00018ca6       ?OnClose@CFrameWnd@@IAEXXZ 00419ca6 f   uafxcw:winfrm.obj
 0001:00018ea8       ?OnCmdMsg@CFrameWnd@@UAEHIHPAXPAUAFX_CMDHANDLERINFO@@@Z 00419ea8 f   uafxcw:winfrm.obj
 0001:00018f4c       ?OnCommand@CFrameWnd@@MAEHIJ@Z 00419f4c f   uafxcw:winfrm.obj
 0001:00018fd6       ?OnCommandHelp@CFrameWnd@@IAEJIJ@Z 00419fd6 f   uafxcw:winfrm.obj
 0001:00019049       ?OnCreate@CFrameWnd@@IAEHPAUtagCREATESTRUCTW@@@Z 0041a049 f   uafxcw:winfrm.obj
 0001:00019065       ?OnCreateClient@CFrameWnd@@MAEHPAUtagCREATESTRUCTW@@PAUCCreateContext@@@Z 0041a065 f   uafxcw:winfrm.obj
 0001:0001908e       ?OnCreateHelper@CFrameWnd@@IAEHPAUtagCREATESTRUCTW@@PAUCCreateContext@@@Z 0041a08e f   uafxcw:winfrm.obj
 0001:000190f5       ?OnDDEExecute@CFrameWnd@@IAEXPAVCWnd@@PAX@Z 0041a0f5 f   uafxcw:winfrm.obj
 0001:00019226       ?OnDDEInitiate@CFrameWnd@@IAEXPAVCWnd@@II@Z 0041a226 f   uafxcw:winfrm.obj
 0001:0001930b       ?OnDDETerminate@CFrameWnd@@IAEXPAVCWnd@@@Z 0041a30b f   uafxcw:winfrm.obj
 0001:00019332       ?OnDestroy@CFrameWnd@@IAEXXZ 0041a332 f   uafxcw:winfrm.obj
 0001:00019390       ?OnDropFiles@CFrameWnd@@IAEXPAUHDROP__@@@Z 0041a390 f   uafxcw:winfrm.obj
 0001:00019439       ?OnEnable@CFrameWnd@@IAEXH@Z 0041a439 f   uafxcw:winfrm.obj
 0001:00019535       ?OnEndSession@CFrameWnd@@IAEXH@Z 0041a535 f   uafxcw:winfrm.obj
 0001:000195b6       ?OnEnterIdle@CFrameWnd@@IAEXIPAVCWnd@@@Z 0041a5b6 f   uafxcw:winfrm.obj
 0001:000195e8       ?OnEraseBkgnd@CFrameWnd@@IAEHPAVCDC@@@Z 0041a5e8 f   uafxcw:winfrm.obj
 0001:000195fe       ?OnEraseBkgnd@CToolBar@@IAEHPAVCDC@@@Z 0041a5fe f i uafxcw:bartool.obj
 0001:000195fe       ?OnEraseBkgnd@CWnd@@IAEHPAVCDC@@@Z 0041a5fe f i uafxcw:winfrm.obj
 0001:000195fe       ?OnNcActivate@CMDIChildWnd@@IAEHH@Z 0041a5fe f i uafxcw:winmdi.obj
 0001:000195fe       ?OnWindowPosChanged@CWnd@@IAEXPAUtagWINDOWPOS@@@Z 0041a5fe f i uafxcw:afxvslistbox.obj
 0001:00019606       ?OnHScroll@CFrameWnd@@IAEXIIPAVCScrollBar@@@Z 0041a606 f   uafxcw:winfrm.obj
 0001:0001962e       ?OnHelpHitTest@CFrameWnd@@IAEJIJ@Z 0041a62e f   uafxcw:winfrm.obj
 0001:00019644       ?OnHelpPromptAddr@CFrameWnd@@IAEJIJ@Z 0041a644 f   uafxcw:winfrm.obj
 0001:0001964d       ?OnIdleUpdateCmdUI@CFrameWnd@@IAEXXZ 0041a64d f   uafxcw:winfrm.obj
 0001:000196e9       ?OnInitMenu@CFrameWnd@@IAEXPAVCMenu@@@Z 0041a6e9 f   uafxcw:winfrm.obj
 0001:0001971d       ?OnInitMenuPopup@CFrameWnd@@IAEXPAVCMenu@@IH@Z 0041a71d f   uafxcw:winfrm.obj
 0001:000198fb       ?OnMenuChar@CFrameWnd@@IAEJIIPAVCMenu@@@Z 0041a8fb f   uafxcw:winfrm.obj
 0001:0001993a       ?OnMenuSelect@CFrameWnd@@IAEXIIPAUHMENU__@@@Z 0041a93a f   uafxcw:winfrm.obj
 0001:00019af8       ?OnNcActivate@CFrameWnd@@IAEHH@Z 0041aaf8 f   uafxcw:winfrm.obj
 0001:00019b3a       ?OnPaletteChanged@CFrameWnd@@IAEXPAVCWnd@@@Z 0041ab3a f   uafxcw:winfrm.obj
 0001:00019b6a       ?OnPopMessageString@CFrameWnd@@IAEJIJ@Z 0041ab6a f   uafxcw:winfrm.obj
 0001:00019b8f       ?OnQueryEndSession@CFrameWnd@@IAEHXZ 0041ab8f f   uafxcw:winfrm.obj
 0001:00019bda       ?OnQueryNewPalette@CFrameWnd@@IAEHXZ 0041abda f   uafxcw:winfrm.obj
 0001:00019c0e       ?OnSetCursor@CFrameWnd@@IAEHPAVCWnd@@II@Z 0041ac0e f   uafxcw:winfrm.obj
 0001:00019c45       ?OnNcLButtonDblClk@CPaneFrameWnd@@IAEXIVCPoint@@@Z 0041ac45 f i uafxcw:afxpaneframewnd.obj
 0001:00019c45       ?OnNcLButtonDown@CWnd@@IAEXIVCPoint@@@Z 0041ac45 f i uafxcw:bardock.obj
 0001:00019c45       ?OnSetCursor@CWnd@@IAEHPAV1@II@Z 0041ac45 f i uafxcw:winfrm.obj
 0001:00019c45       ?OnSize@CDockSite@@IAEXIHH@Z 0041ac45 f i uafxcw:afxdocksite.obj
 0001:00019c45       ?OnSize@CPaneDivider@@IAEXIHH@Z 0041ac45 f i uafxcw:afxpanedivider.obj
 0001:00019c4d       ?OnSetFocus@CFrameWnd@@IAEXPAVCWnd@@@Z 0041ac4d f   uafxcw:winfrm.obj
 0001:00019c6b       ?OnSetMessageString@CFrameWnd@@IAEJIJ@Z 0041ac6b f   uafxcw:winfrm.obj
 0001:00019d38       ?OnSetPreviewMode@CFrameWnd@@UAEXHPAUCPrintPreviewState@@@Z 0041ad38 f   uafxcw:winfrm.obj
 0001:0001a01f       ?OnSize@CFrameWnd@@IAEXIHH@Z 0041b01f f   uafxcw:winfrm.obj
 0001:0001a04d       ?OnSysCommand@CFrameWnd@@IAEXIJ@Z 0041b04d f   uafxcw:winfrm.obj
 0001:0001a0f5       ?OnToolTipText@CFrameWnd@@IAEHIPAUtagNMHDR@@PAJ@Z 0041b0f5 f   uafxcw:winfrm.obj
 0001:0001a203       ?OnUpdateContextHelp@CFrameWnd@@IAEXPAVCCmdUI@@@Z 0041b203 f   uafxcw:winfrm.obj
 0001:0001a24c       ?OnUpdateControlBarMenu@CFrameWnd@@QAEXPAVCCmdUI@@@Z 0041b24c f   uafxcw:winfrm.obj
 0001:0001a298       ?OnUpdateFrameMenu@CFrameWnd@@UAEXPAUHMENU__@@@Z 0041b298 f   uafxcw:winfrm.obj
 0001:0001a308       ?OnUpdateFrameTitle@CFrameWnd@@UAEXH@Z 0041b308 f   uafxcw:winfrm.obj
 0001:0001a36e       ?OnUpdateKeyIndicator@CFrameWnd@@IAEXPAVCCmdUI@@@Z 0041b36e f   uafxcw:winfrm.obj
 0001:0001a3d8       ?OnVScroll@CFrameWnd@@IAEXIIPAVCScrollBar@@@Z 0041b3d8 f   uafxcw:winfrm.obj
 0001:0001a400       ?Pop@CPushRoutingFrame@@QAEXXZ 0041b400 f i uafxcw:winfrm.obj
 0001:0001a426       ?PostNcDestroy@CFrameWnd@@MAEXXZ 0041b426 f   uafxcw:winfrm.obj
 0001:0001a426       ?PostNcDestroy@CView@@MAEXXZ 0041b426 f   uafxcw:viewcore.obj
 0001:0001a444       ?PreCreateWindow@CFrameWnd@@MAEHAAUtagCREATESTRUCTW@@@Z 0041b444 f   uafxcw:winfrm.obj
 0001:0001a480       ?PreTranslateMessage@CFrameWnd@@UAEHPAUtagMSG@@@Z 0041b480 f   uafxcw:winfrm.obj
 0001:0001a65c       ?RecalcLayout@CFrameWnd@@UAEXH@Z 0041b65c f   uafxcw:winfrm.obj
 0001:0001a778       ?RemoveAll@?$CList@IAAI@@QAEXXZ 0041b778 f i uafxcw:afxdockingmanager.obj
 0001:0001a778       ?RemoveAll@?$CList@II@@QAEXXZ 0041b778 f i uafxcw:afxtoolbarimages.obj
 0001:0001a778       ?RemoveAll@?$CList@KK@@QAEXXZ 0041b778 f i uafxcw:afxcolorbutton.obj
 0001:0001a778       ?RemoveAll@?$CList@PAUAFX_DYNAMIC_LAYOUT_ITEM@@PAU1@@@QAEXXZ 0041b778 f i uafxcw:afxlayout.obj
 0001:0001a778       ?RemoveAll@?$CList@PAUHINSTANCE__@@PAU1@@@QAEXXZ 0041b778 f i uafxcw:afxtoolbarimages.obj
 0001:0001a778       ?RemoveAll@?$CList@PAUHWND__@@AAPAU1@@@QAEXXZ 0041b778 f i uafxcw:afxdockingmanager.obj
 0001:0001a778       ?RemoveAll@?$CList@PAUHWND__@@PAU1@@@QAEXXZ 0041b778 f i uafxcw:winfrm.obj
 0001:0001a778       ?RemoveAll@?$CList@PAU_ITEMIDLIST@@PAU1@@@QAEXXZ 0041b778 f i uafxcw:afxshelltreectrl.obj
 0001:0001a778       ?RemoveAll@?$CList@PAVCFrameWnd@@PAV1@@@QAEXXZ 0041b778 f i uafxcw:afxframeimpl.obj
 0001:0001a778       ?RemoveAll@?$CList@PAVCMDIChildWndEx@@PAV1@@@QAEXXZ 0041b778 f i uafxcw:afxmdiclientareawnd.obj
 0001:0001a778       ?RemoveAll@?$CList@PAVCMFCButton@@PAV1@@@QAEXXZ 0041b778 f i uafxcw:afxvslistbox.obj
 0001:0001a778       ?RemoveAll@?$CList@PAVCMFCPropertyGridProperty@@PAV1@@@QAEXXZ 0041b778 f i uafxcw:afxpropertygridctrl.obj
 0001:0001a778       ?RemoveAll@?$CList@PAVCPropertyPage@@PAV1@@@QAEXXZ 0041b778 f i uafxcw:afxtoolbarscustomizedialog.obj
 0001:0001a778       ?RemoveAll@?$CList@PAVIControlSiteFactory@@PAV1@@@QAEXXZ 0041b778 f i uafxcw:occmgr.obj
 0001:0001a778       ?RemoveAll@?$CList@UItem@CMFCDynamicLayoutData@@AAU12@@@QAEXXZ 0041b778 f i uafxcw:afxlayout.obj
 0001:0001a778       ?RemoveAll@?$CList@UtagPOINT@@U1@@@QAEXXZ 0041b778 f i uafxcw:afxvisualmanager.obj
 0001:0001a778       ?RemoveAll@CObList@@QAEXXZ 0041b778 f i uafxcw:list_o.obj
 0001:0001a778       ?RemoveAll@CPtrList@@QAEXXZ 0041b778 f i uafxcw:list_p.obj
 0001:0001a798       ?RemoveControlBar@CFrameWnd@@QAEXPAVCControlBar@@@Z 0041b798 f   uafxcw:winfrm.obj
 0001:0001a7bf       ?RemoveFrameWnd@CFrameWnd@@IAEXXZ 0041b7bf f   uafxcw:winfrm.obj
 0001:0001a7e9       ?Serialize@?$CArray@HABH@@UAEXAAVCArchive@@@Z 0041b7e9 f i uafxcw:barstat.obj
 0001:0001a7e9       ?Serialize@?$CArray@HH@@UAEXAAVCArchive@@@Z 0041b7e9 f i uafxcw:afxbasetabctrl.obj
 0001:0001a7e9       ?Serialize@?$CArray@II@@UAEXAAVCArchive@@@Z 0041b7e9 f i uafxcw:afxribbonquickaccesstoolbar.obj
 0001:0001a7e9       ?Serialize@?$CArray@JJ@@UAEXAAVCArchive@@@Z 0041b7e9 f i uafxcw:afxribboncolorbutton.obj
 0001:0001a7e9       ?Serialize@?$CArray@PAUHWND__@@PAU1@@@UAEXAAVCArchive@@@Z 0041b7e9 f i uafxcw:winfrm.obj
 0001:0001a7e9       ?Serialize@?$CArray@PAVCMFCRibbonBaseElement@@PAV1@@@UAEXAAVCArchive@@@Z 0041b7e9 f i uafxcw:afxribbonbutton.obj
 0001:0001a7e9       ?Serialize@?$CArray@PAVCMFCRibbonContextCaption@@PAV1@@@UAEXAAVCArchive@@@Z 0041b7e9 f i uafxcw:afxribbonquickaccesstoolbar.obj
 0001:0001a7e9       ?Serialize@?$CArray@PAVCMFCRibbonKeyTip@@PAV1@@@UAEXAAVCArchive@@@Z 0041b7e9 f i uafxcw:afxribbonbar.obj
 0001:0001a7e9       ?Serialize@?$CArray@PAVCMFCRibbonPanel@@PAV1@@@UAEXAAVCArchive@@@Z 0041b7e9 f i uafxcw:afxribboncategory.obj
 0001:0001a7e9       ?Serialize@?$CArray@PAVCMFCVisualManagerBitmapCacheItem@CMFCVisualManagerBitmapCache@@PAV12@@@UAEXAAVCArchive@@@Z 0041b7e9 f i uafxcw:afxvisualmanageroffice2007.obj
 0001:0001a829       ?Serialize@?$CList@II@@UAEXAAVCArchive@@@Z 0041b829 f i uafxcw:afxtoolbarimages.obj
 0001:0001a829       ?Serialize@?$CList@PAUAFX_DYNAMIC_LAYOUT_ITEM@@PAU1@@@UAEXAAVCArchive@@@Z 0041b829 f i uafxcw:afxlayout.obj
 0001:0001a829       ?Serialize@?$CList@PAUHINSTANCE__@@PAU1@@@UAEXAAVCArchive@@@Z 0041b829 f i uafxcw:afxtoolbarimages.obj
 0001:0001a829       ?Serialize@?$CList@PAUHWND__@@PAU1@@@UAEXAAVCArchive@@@Z 0041b829 f i uafxcw:winfrm.obj
 0001:0001a829       ?Serialize@?$CList@PAU_ITEMIDLIST@@PAU1@@@UAEXAAVCArchive@@@Z 0041b829 f i uafxcw:afxshelltreectrl.obj
 0001:0001a829       ?Serialize@?$CList@PAVCFrameWnd@@PAV1@@@UAEXAAVCArchive@@@Z 0041b829 f i uafxcw:afxframeimpl.obj
 0001:0001a829       ?Serialize@?$CList@PAVCMDIChildWndEx@@PAV1@@@UAEXAAVCArchive@@@Z 0041b829 f i uafxcw:afxmdiclientareawnd.obj
 0001:0001a829       ?Serialize@?$CList@PAVCMFCButton@@PAV1@@@UAEXAAVCArchive@@@Z 0041b829 f i uafxcw:afxvslistbox.obj
 0001:0001a829       ?Serialize@?$CList@PAVCMFCPropertyGridProperty@@PAV1@@@UAEXAAVCArchive@@@Z 0041b829 f i uafxcw:afxpropertygridctrl.obj
 0001:0001a829       ?Serialize@?$CList@PAVCPropertyPage@@PAV1@@@UAEXAAVCArchive@@@Z 0041b829 f i uafxcw:afxtoolbarscustomizedialog.obj
 0001:0001a829       ?Serialize@?$CList@PAVIControlSiteFactory@@PAV1@@@UAEXAAVCArchive@@@Z 0041b829 f i uafxcw:occmgr.obj
 0001:0001a88e       ?SetActivePreviewView@CFrameWnd@@QAEXPAVCView@@@Z 0041b88e f   uafxcw:winfrm.obj
 0001:0001a88e       ?SetAutorepeatMode@CMFCButton@@QAEXH@Z 0041b88e f   uafxcw:afxbutton.obj
 0001:0001a89e       ?SetActiveView@CFrameWnd@@QAEXPAVCView@@H@Z 0041b89e f   uafxcw:winfrm.obj
 0001:0001a916       ?SetAtGrow@?$CArray@HH@@QAEXHH@Z 0041b916 f i uafxcw:afxbasetabctrl.obj
 0001:0001a916       ?SetAtGrow@?$CArray@JJ@@QAEXHJ@Z 0041b916 f i uafxcw:afxribboncolorbutton.obj
 0001:0001a916       ?SetAtGrow@?$CArray@KK@@QAEXHK@Z 0041b916 f i uafxcw:afxbasetabctrl.obj
 0001:0001a916       ?SetAtGrow@?$CArray@PAUHWND__@@PAU1@@@QAEXHPAUHWND__@@@Z 0041b916 f i uafxcw:winfrm.obj
 0001:0001a916       ?SetAtGrow@?$CArray@PAVCMFCRibbonBaseElement@@PAV1@@@QAEXHPAVCMFCRibbonBaseElement@@@Z 0041b916 f i uafxcw:afxbaseribbonelement.obj
 0001:0001a916       ?SetAtGrow@?$CArray@PAVCMFCRibbonContextCaption@@PAV1@@@QAEXHPAVCMFCRibbonContextCaption@@@Z 0041b916 f i uafxcw:afxribbonbar.obj
 0001:0001a916       ?SetAtGrow@?$CArray@PAVCMFCRibbonKeyTip@@PAV1@@@QAEXHPAVCMFCRibbonKeyTip@@@Z 0041b916 f i uafxcw:afxbaseribbonelement.obj
 0001:0001a916       ?SetAtGrow@?$CArray@PAVCMFCRibbonPanel@@PAV1@@@QAEXHPAVCMFCRibbonPanel@@@Z 0041b916 f i uafxcw:afxribboncategory.obj
 0001:0001a916       ?SetAtGrow@?$CArray@PAVCMFCVisualManagerBitmapCacheItem@CMFCVisualManagerBitmapCache@@PAV12@@@QAEXHPAVCMFCVisualManagerBitmapCacheItem@CMFCVisualManagerBitmapCache@@@Z 0041b916 f i uafxcw:afxvisualmanageroffice2007.obj
 0001:0001a949       ?SetMenu@CFrameWnd@@UAEHPAVCMenu@@@Z 0041b949 f   uafxcw:winfrm.obj
 0001:0001a98f       ?SetMenuBarState@CFrameWnd@@UAEHK@Z 0041b98f f   uafxcw:winfrm.obj
 0001:0001aa15       ?SetMenuBarVisibility@CFrameWnd@@UAEXK@Z 0041ba15 f   uafxcw:winfrm.obj
 0001:0001aa7a       ?SetMessageText@CFrameWnd@@QAEXI@Z 0041ba7a f   uafxcw:winfrm.obj
 0001:0001aa94       ?SetSize@?$CArray@HABH@@QAEXHH@Z 0041ba94 f i uafxcw:barstat.obj
 0001:0001aa94       ?SetSize@?$CArray@HH@@QAEXHH@Z 0041ba94 f i uafxcw:afxbasetabctrl.obj
 0001:0001aa94       ?SetSize@?$CArray@II@@QAEXHH@Z 0041ba94 f i uafxcw:afxribbonquickaccesstoolbar.obj
 0001:0001aa94       ?SetSize@?$CArray@JJ@@QAEXHH@Z 0041ba94 f i uafxcw:afxribboncolorbutton.obj
 0001:0001aa94       ?SetSize@?$CArray@KK@@QAEXHH@Z 0041ba94 f i uafxcw:afxcolorbutton.obj
 0001:0001aa94       ?SetSize@?$CArray@PAUHWND__@@PAU1@@@QAEXHH@Z 0041ba94 f i uafxcw:winfrm.obj
 0001:0001aa94       ?SetSize@?$CArray@PAVCMFCRibbonBaseElement@@PAV1@@@QAEXHH@Z 0041ba94 f i uafxcw:afxbaseribbonelement.obj
 0001:0001aa94       ?SetSize@?$CArray@PAVCMFCRibbonContextCaption@@PAV1@@@QAEXHH@Z 0041ba94 f i uafxcw:afxribbonquickaccesstoolbar.obj
 0001:0001aa94       ?SetSize@?$CArray@PAVCMFCRibbonKeyTip@@PAV1@@@QAEXHH@Z 0041ba94 f i uafxcw:afxbaseribbonelement.obj
 0001:0001aa94       ?SetSize@?$CArray@PAVCMFCRibbonPanel@@PAV1@@@QAEXHH@Z 0041ba94 f i uafxcw:afxribboncategory.obj
 0001:0001aa94       ?SetSize@?$CArray@PAVCMFCVisualManagerBitmapCacheItem@CMFCVisualManagerBitmapCache@@PAV12@@@QAEXHH@Z 0041ba94 f i uafxcw:afxvisualmanageroffice2007.obj
 0001:0001abc6       ?ShowControlBar@CFrameWnd@@QAEXPAVCControlBar@@HH@Z 0041bbc6 f   uafxcw:winfrm.obj
 0001:0001ad0e       ?ShowOwnedWindows@CFrameWnd@@QAEXH@Z 0041bd0e f   uafxcw:winfrm.obj
 0001:0001ada8       ?UpdateFrameTitleForDocument@CFrameWnd@@QAEXPB_W@Z 0041bda8 f   uafxcw:winfrm.obj
 0001:0001aef1       ?_wcstombsz@ATL@@YAHPADPB_WK@Z 0041bef1 f i uafxcw:winfrm.obj
 0001:0001af1e       _IsolationAwareImageList_Draw@24 0041bf1e f i uafxcw:winfrm.obj
 0001:0001affc       _IsolationAwareImageList_GetImageInfo@12 0041bffc f i uafxcw:winfrm.obj
 0001:0001b0d1       ?CanDock@CFrameWnd@@QAEKVCRect@@KPAPAVCDockBar@@@Z 0041c0d1 f   uafxcw:winfrm2.obj
 0001:0001b1d7       ?CreateFloatingFrame@CFrameWnd@@QAEPAVCMiniDockFrameWnd@@K@Z 0041c1d7 f   uafxcw:winfrm2.obj
 0001:0001b220       ?DockControlBar@CFrameWnd@@QAEXPAVCControlBar@@IPBUtagRECT@@@Z 0041c220 f   uafxcw:winfrm2.obj
 0001:0001b24b       ?DockControlBar@CFrameWnd@@QAEXPAVCControlBar@@PAVCDockBar@@PBUtagRECT@@@Z 0041c24b f   uafxcw:winfrm2.obj
 0001:0001b2af       ?EnableDocking@CFrameWnd@@QAEXK@Z 0041c2af f   uafxcw:winfrm2.obj
 0001:0001b34d       ?FloatControlBar@CFrameWnd@@QAEXPAVCControlBar@@VCPoint@@K@Z 0041c34d f   uafxcw:winfrm2.obj
 0001:0001b49e       ?ReDockControlBar@CFrameWnd@@QAEXPAVCControlBar@@PAVCDockBar@@PBUtagRECT@@@Z 0041c49e f   uafxcw:winfrm2.obj
 0001:0001b537       ??0CDockBar@@QAE@H@Z       0041c537 f   uafxcw:bardock.obj
 0001:0001b5cb       ??0CMiniDockFrameWnd@@QAE@XZ 0041c5cb f   uafxcw:bardock.obj
 0001:0001b607       ??1CDockBar@@UAE@XZ        0041c607 f   uafxcw:bardock.obj
 0001:0001b687       ??1CMiniDockFrameWnd@@UAE@XZ 0041c687 f i uafxcw:bardock.obj
 0001:0001b69d       ??_ECDockBar@@UAEPAXI@Z    0041c69d f i uafxcw:bardock.obj
 0001:0001b69d       ??_GCDockBar@@UAEPAXI@Z    0041c69d f i uafxcw:bardock.obj
 0001:0001b6d0       ??_ECMiniDockFrameWnd@@UAEPAXI@Z 0041c6d0 f i uafxcw:bardock.obj
 0001:0001b6d0       ??_GCMiniDockFrameWnd@@UAEPAXI@Z 0041c6d0 f i uafxcw:bardock.obj
 0001:0001b703       ?CalcFixedLayout@CDockBar@@UAE?AVCSize@@HH@Z 0041c703 f   uafxcw:bardock.obj
 0001:0001bc5f       ?Create@CDockBar@@UAEHPAVCWnd@@KI@Z 0041cc5f f   uafxcw:bardock.obj
 0001:0001bcd8       ?Create@CMiniDockFrameWnd@@UAEHPAVCWnd@@K@Z 0041ccd8 f   uafxcw:bardock.obj
 0001:0001be55       ?CreateObject@CMiniDockFrameWnd@@SGPAVCObject@@XZ 0041ce55 f   uafxcw:bardock.obj
 0001:0001be85       ?DockControlBar@CDockBar@@QAEXPAVCControlBar@@PBUtagRECT@@@Z 0041ce85 f   uafxcw:bardock.obj
 0001:0001c182       ?EnableDocking@CControlBar@@QAEXK@Z 0041d182 f   uafxcw:bardock.obj
 0001:0001c1e4       ?FindBar@CDockBar@@QAEHPAVCControlBar@@H@Z 0041d1e4 f   uafxcw:bardock.obj
 0001:0001c225       ?GetAt@CObArray@@QBEPAVCObject@@H@Z 0041d225 f i uafxcw:array_o.obj
 0001:0001c225       ?GetAt@CPtrArray@@QBEPAXH@Z 0041d225 f i uafxcw:bardock.obj
 0001:0001c244       ?GetDockedControlBar@CDockBar@@IBEPAVCControlBar@@H@Z 0041d244 f   uafxcw:bardock.obj
 0001:0001c266       ?GetDockedCount@CDockBar@@QBEHXZ 0041d266 f   uafxcw:bardock.obj
 0001:0001c293       ?GetDockedVisibleCount@CDockBar@@UBEHXZ 0041d293 f   uafxcw:bardock.obj
 0001:0001c2e8       ?GetMessageMap@CDockBar@@MBEPBUAFX_MSGMAP@@XZ 0041d2e8 f   uafxcw:bardock.obj
 0001:0001c2ee       ?GetMessageMap@CMiniDockFrameWnd@@MBEPBUAFX_MSGMAP@@XZ 0041d2ee f   uafxcw:bardock.obj
 0001:0001c2f4       ?GetRuntimeClass@CDockBar@@UBEPAUCRuntimeClass@@XZ 0041d2f4 f   uafxcw:bardock.obj
 0001:0001c2fa       ?GetRuntimeClass@CMiniDockFrameWnd@@UBEPAUCRuntimeClass@@XZ 0041d2fa f   uafxcw:bardock.obj
 0001:0001c300       ?Insert@CDockBar@@IAEHPAVCControlBar@@VCRect@@VCPoint@@@Z 0041d300 f   uafxcw:bardock.obj
 0001:0001c4ad       ?OnClose@CMiniDockFrameWnd@@QAEXXZ 0041d4ad f   uafxcw:bardock.obj
 0001:0001c4bb       ?OnEraseBkgnd@CDockBar@@IAEHPAVCDC@@@Z 0041d4bb f   uafxcw:bardock.obj
 0001:0001c5a9       ?OnMouseActivate@CMiniDockFrameWnd@@QAEHPAVCWnd@@II@Z 0041d5a9 f   uafxcw:bardock.obj
 0001:0001c5c5       ?OnNcCalcSize@CDockBar@@IAEXHPAUtagNCCALCSIZE_PARAMS@@@Z 0041d5c5 f   uafxcw:bardock.obj
 0001:0001c641       ?OnNcLButtonDblClk@CMiniDockFrameWnd@@QAEXIVCPoint@@@Z 0041d641 f   uafxcw:bardock.obj
 0001:0001c6a8       ?OnNcLButtonDown@CMiniDockFrameWnd@@QAEXIVCPoint@@@Z 0041d6a8 f   uafxcw:bardock.obj
 0001:0001c76d       ?OnNcPaint@CDockBar@@IAEXXZ 0041d76d f   uafxcw:bardock.obj
 0001:0001c76d       ?OnNcPaint@CStatusBar@@IAEXXZ 0041d76d f   uafxcw:barstat.obj
 0001:0001c76d       ?OnNcPaint@CToolBar@@IAEXXZ 0041d76d f   uafxcw:bartool.obj
 0001:0001c772       ?OnPaint@CDockBar@@IAEXXZ  0041d772 f   uafxcw:bardock.obj
 0001:0001c7e3       ?OnSizeParent@CDockBar@@IAEJIJ@Z 0041d7e3 f   uafxcw:bardock.obj
 0001:0001c84a       ?Create@CSmartDockingGroupGuide@@UAEXW4SDMarkerPlace@CSmartDockingStandaloneGuide@@PAVCWnd@@@Z 0041d84a f   uafxcw:afxsmartdockingguide.obj
 0001:0001c84a       ?OnActivateApp@CMFCVisualManager@@UAEXPAVCWnd@@H@Z 0041d84a f   uafxcw:afxvisualmanager.obj
 0001:0001c84a       ?OnActivateFrame@CView@@MAEXIPAVCFrameWnd@@@Z 0041d84a f   uafxcw:viewcore.obj
 0001:0001c84a       ?OnBarStyleChange@CControlBar@@UAEXKK@Z 0041d84a f   uafxcw:barcore.obj
 0001:0001c84a       ?OnBeforeChangeParent@CBasePane@@UAEXPAVCWnd@@H@Z 0041d84a f   uafxcw:afxbasepane.obj
 0001:0001c84a       ?OnBeginPrinting@CView@@MAEXPAVCDC@@PAUCPrintInfo@@@Z 0041d84a f   uafxcw:viewcore.obj
 0001:0001c84a       ?OnChangeMenuHighlight@CMFCRibbonBaseElement@@UAEXPAVCMFCRibbonPanelMenuBar@@PAV1@@Z 0041d84a f   uafxcw:afxbaseribbonelement.obj
 0001:0001c84a       ?OnChangeSelection@CMFCPropertyGridCtrl@@UAEXPAVCMFCPropertyGridProperty@@0@Z 0041d84a f   uafxcw:afxpropertygridctrl.obj
 0001:0001c84a       ?OnCheckButtonToggled@CFileDialog@@MAEXKH@Z 0041d84a f   uafxcw:dlgfile.obj
 0001:0001c84a       ?OnDrawDragRect@CPane@@MAEXPBUtagRECT@@0@Z 0041d84a f   uafxcw:afxpropertysheet.obj
 0001:0001c84a       ?OnDrawMenuBorder@CMFCRibbonCategory@@UAEXPAVCDC@@PAVCMFCRibbonPanelMenuBar@@@Z 0041d84a f   uafxcw:afxribboncategory.obj
 0001:0001c84a       ?OnDrawMenuBorder@CMFCRibbonPanel@@MAEXPAVCDC@@PAVCMFCRibbonPanelMenuBar@@@Z 0041d84a f   uafxcw:afxribbonpanel.obj
 0001:0001c84a       ?OnDrawThumbnail@CDocument@@UAEXAAVCDC@@PAUtagRECT@@@Z 0041d84a f   uafxcw:doccore.obj
 0001:0001c84a       ?OnEndPrinting@CView@@MAEXPAVCDC@@PAUCPrintInfo@@@Z 0041d84a f   uafxcw:viewcore.obj
 0001:0001c84a       ?OnItemSelected@CFileDialog@@MAEXKK@Z 0041d84a f   uafxcw:dlgfile.obj
 0001:0001c84a       ?OnLButtonDblClk@CMFCRibbonBaseElement@@MAEXVCPoint@@@Z 0041d84a f   uafxcw:afxbaseribbonelement.obj
 0001:0001c84a       ?OnLButtonUp@CMFCRibbonBaseElement@@MAEXVCPoint@@@Z 0041d84a f   uafxcw:afxbaseribbonelement.obj
 0001:0001c84a       ?OnLButtonUp@CMFCRibbonEdit@@UAEXVCPoint@@@Z 0041d84a f   uafxcw:afxribbonedit.obj
 0001:0001c84a       ?OnLButtonUp@CMFCRibbonLabel@@MAEXVCPoint@@@Z 0041d84a f   uafxcw:afxribbonlabel.obj
 0001:0001c84a       ?OnMouseMove@CMFCRibbonBaseElement@@MAEXVCPoint@@@Z 0041d84a f   uafxcw:afxbaseribbonelement.obj
 0001:0001c84a       ?OnNcCalcSize@CMFCOutlookBarToolBar@@QAEXHPAUtagNCCALCSIZE_PARAMS@@@Z 0041d84a f   uafxcw:afxoutlookbartabctrl.obj
 0001:0001c84a       ?OnNcCalcSize@CMFCPopupMenuBar@@IAEXHPAUtagNCCALCSIZE_PARAMS@@@Z 0041d84a f   uafxcw:afxpopupmenubar.obj
 0001:0001c84a       ?OnShowPane@CPaneFrameWnd@@UAEXPAVCDockablePane@@H@Z 0041d84a f   uafxcw:afxpaneframewnd.obj
 0001:0001c84a       ?OnSizeMDIClient@CMDIFrameWndEx@@UAEXABVCRect@@0@Z 0041d84a f   uafxcw:afxmdiframewndex.obj
 0001:0001c84a       ?OnUpdateCmdUI@CBasePane@@UAEXPAVCFrameWnd@@H@Z 0041d84a f   uafxcw:afxbasepane.obj
 0001:0001c84a       ?OnUpdateCmdUI@CDockBar@@MAEXPAVCFrameWnd@@H@Z 0041d84a f   uafxcw:bardock.obj
 0001:0001c84a       ?OnUpdateCmdUI@CMFCCaptionBar@@MAEXPAVCFrameWnd@@H@Z 0041d84a f   uafxcw:afxcaptionbar.obj
 0001:0001c84a       ?ScrollChild@CMFCTasksPane@@MAEXPAUHWND__@@H@Z 0041d84a f   uafxcw:afxtaskspane.obj
 0001:0001c84a       ?StoreRecentTabRelatedInfo@CPaneFrameWnd@@UAEXPAVCDockablePane@@0@Z 0041d84a f   uafxcw:afxpaneframewnd.obj
 0001:0001c84d       ?OnWindowPosChanging@CDockBar@@IAEXPAUtagWINDOWPOS@@@Z 0041d84d f   uafxcw:bardock.obj
 0001:0001c84d       ?OnWindowPosChanging@CStatusBar@@IAEXPAUtagWINDOWPOS@@@Z 0041d84d f   uafxcw:barstat.obj
 0001:0001c87b       ?ReDockControlBar@CDockBar@@QAEXPAVCControlBar@@PBUtagRECT@@@Z 0041d87b f   uafxcw:bardock.obj
 0001:0001cb1f       ?RecalcLayout@CMiniDockFrameWnd@@UAEXH@Z 0041db1f f   uafxcw:bardock.obj
 0001:0001cb7b       ?RemoveControlBar@CDockBar@@QAEHPAVCControlBar@@HH@Z 0041db7b f   uafxcw:bardock.obj
 0001:0001ccda       ?RemovePlaceHolder@CDockBar@@QAEXPAVCControlBar@@@Z 0041dcda f   uafxcw:bardock.obj
 0001:0001cd41       ?ShowAll@CDockBar@@QAEXH@Z 0041dd41 f   uafxcw:bardock.obj
 0001:0001cd85       ??0CStatusBar@@QAE@XZ      0041dd85 f   uafxcw:barstat.obj
 0001:0001cdc3       ??1?$CArray@HABH@@UAE@XZ   0041ddc3 f i uafxcw:barstat.obj
 0001:0001cdd9       ??1CStatusBar@@UAE@XZ      0041ddd9 f   uafxcw:barstat.obj
 0001:0001ce27       ??_E?$CArray@HABH@@UAEPAXI@Z 0041de27 f i uafxcw:barstat.obj
 0001:0001ce27       ??_G?$CArray@HABH@@UAEPAXI@Z 0041de27 f i uafxcw:barstat.obj
 0001:0001ce57       ??_G?$CStringT@_WV?$StrTraitMFC@_WV?$ChTraitsCRT@_W@ATL@@@@@ATL@@QAEPAXI@Z 0041de57 f i uafxcw:barstat.obj
 0001:0001ce7e       ??_ECStatusBar@@UAEPAXI@Z  0041de7e f i uafxcw:barstat.obj
 0001:0001ce7e       ??_GCStatusBar@@UAEPAXI@Z  0041de7e f i uafxcw:barstat.obj
 0001:0001ceb1       ?AllocElements@CStatusBar@@QAEHHH@Z 0041deb1 f   uafxcw:barstat.obj
 0001:0001cf29       ?CalcFixedLayout@CStatusBar@@UAE?AVCSize@@HH@Z 0041df29 f   uafxcw:barstat.obj
 0001:0001d029       ?CalcInsideRect@CStatusBar@@UBEXAAVCRect@@H@Z 0041e029 f   uafxcw:barstat.obj
 0001:0001d0b8       ?CommandToIndex@CStatusBar@@QBEHI@Z 0041e0b8 f   uafxcw:barstat.obj
 0001:0001d0e5       ?Create@CStatusBar@@UAEHPAVCWnd@@KI@Z 0041e0e5 f   uafxcw:barstat.obj
 0001:0001d111       ?CreateEx@CStatusBar@@UAEHPAVCWnd@@KKI@Z 0041e111 f   uafxcw:barstat.obj
 0001:0001d1ac       ?Enable@CStatusCmdUI@@UAEXH@Z 0041e1ac f   uafxcw:barstat.obj
 0001:0001d1e8       ?GetMessageMap@CStatusBar@@MBEPBUAFX_MSGMAP@@XZ 0041e1e8 f   uafxcw:barstat.obj
 0001:0001d1ee       ?GetRuntimeClass@CStatusBar@@UBEPAUCRuntimeClass@@XZ 0041e1ee f   uafxcw:barstat.obj
 0001:0001d1f4       ?GetTextExtent@CDC@@QBE?AVCSize@@ABV?$CStringT@_WV?$StrTraitMFC@_WV?$ChTraitsCRT@_W@ATL@@@@@ATL@@@Z 0041e1f4 f i uafxcw:barstat.obj
 0001:0001d221       ?OnBarStyleChange@CStatusBar@@UAEXKK@Z 0041e221 f   uafxcw:barstat.obj
 0001:0001d248       ?OnChildNotify@CStatusBar@@MAEHIIJPAJ@Z 0041e248 f   uafxcw:barstat.obj
 0001:0001d288       ?OnGetText@CStatusBar@@IAEHHPA_W@Z 0041e288 f   uafxcw:barstat.obj
 0001:0001d2e5       ?OnGetTextLength@CStatusBar@@IAEIXZ 0041e2e5 f   uafxcw:barstat.obj
 0001:0001d30a       ?OnNcCalcSize@CStatusBar@@IAEXHPAUtagNCCALCSIZE_PARAMS@@@Z 0041e30a f   uafxcw:barstat.obj
 0001:0001d370       ?OnNcHitTest@CStatusBar@@IAEJVCPoint@@@Z 0041e370 f   uafxcw:barstat.obj
 0001:0001d385       ?OnPaint@CStatusBar@@IAEXXZ 0041e385 f   uafxcw:barstat.obj
 0001:0001d399       ?OnSetMinHeight@CStatusBar@@IAEJIJ@Z 0041e399 f   uafxcw:barstat.obj
 0001:0001d3b2       ?OnSetText@CStatusBar@@IAEHPB_W@Z 0041e3b2 f   uafxcw:barstat.obj
 0001:0001d3e1       ?OnSize@CStatusBar@@IAEXIHH@Z 0041e3e1 f   uafxcw:barstat.obj
 0001:0001d3f8       ?OnUpdateCmdUI@CStatusBar@@UAEXPAVCFrameWnd@@H@Z 0041e3f8 f   uafxcw:barstat.obj
 0001:0001d472       ?PreCreateWindow@CStatusBar@@UAEHAAUtagCREATESTRUCTW@@@Z 0041e472 f   uafxcw:barstat.obj
 0001:0001d49b       ?SetCheck@CStatusCmdUI@@UAEXH@Z 0041e49b f   uafxcw:barstat.obj
 0001:0001d4d0       ?SetIndicators@CStatusBar@@QAEHPBIH@Z 0041e4d0 f   uafxcw:barstat.obj
 0001:0001d606       ?SetPaneStyle@CStatusBar@@QAEXHI@Z 0041e606 f   uafxcw:barstat.obj
 0001:0001d654       ?SetPaneText@CStatusBar@@QAEHHPB_WH@Z 0041e654 f   uafxcw:barstat.obj
 0001:0001d730       ?SetText@CStatusCmdUI@@UAEXPB_W@Z 0041e730 f   uafxcw:barstat.obj
 0001:0001d747       ?UpdateAllPanes@CStatusBar@@IAEXHH@Z 0041e747 f   uafxcw:barstat.obj
 0001:0001d911       ??0CToolBar@@QAE@XZ        0041e911 f   uafxcw:bartool.obj
 0001:0001d98a       ??0_AFX_CONTROLPOS@@QAE@XZ 0041e98a f i uafxcw:bartool.obj
 0001:0001d99b       ??1CToolBar@@UAE@XZ        0041e99b f   uafxcw:bartool.obj
 0001:0001da14       ??8CPoint@@QBEHUtagPOINT@@@Z 0041ea14 f i uafxcw:thrdcore.obj
 0001:0001da14       ??8CSize@@QBEHUtagSIZE@@@Z 0041ea14 f i uafxcw:bartool.obj
 0001:0001da31       ??_ECToolBar@@UAEPAXI@Z    0041ea31 f i uafxcw:bartool.obj
 0001:0001da31       ??_GCToolBar@@UAEPAXI@Z    0041ea31 f i uafxcw:bartool.obj
 0001:0001da64       ?AddReplaceBitmap@CToolBar@@QAEHPAUHBITMAP__@@@Z 0041ea64 f   uafxcw:bartool.obj
 0001:0001db10       ?AfxLoadSysColorBitmap@@YGPAUHBITMAP__@@PAUHINSTANCE__@@PAUHRSRC__@@H@Z 0041eb10 f   uafxcw:bartool.obj
 0001:0001dca9       ?CalcDynamicLayout@CToolBar@@UAE?AVCSize@@HK@Z 0041eca9 f   uafxcw:bartool.obj
 0001:0001dcfb       ?CalcFixedLayout@CToolBar@@UAE?AVCSize@@HH@Z 0041ecfb f   uafxcw:bartool.obj
 0001:0001dd24       ?CalcLayout@CToolBar@@IAE?AVCSize@@KH@Z 0041ed24 f   uafxcw:bartool.obj
 0001:0001e168       ?CalcSize@CToolBar@@IAE?AVCSize@@PAU_TBBUTTON@@H@Z 0041f168 f   uafxcw:bartool.obj
 0001:0001e2a6       ?Create@CToolBar@@UAEHPAVCWnd@@KI@Z 0041f2a6 f   uafxcw:bartool.obj
 0001:0001e322       ?CreateEx@CToolBar@@UAEHPAVCWnd@@KKVCRect@@I@Z 0041f322 f   uafxcw:bartool.obj
 0001:0001e3f8       ?Enable@CToolCmdUI@@UAEXH@Z 0041f3f8 f   uafxcw:bartool.obj
 0001:0001e439       ?GetButtonInfo@CToolBar@@QBEXHAAI0AAH@Z 0041f439 f   uafxcw:bartool.obj
 0001:0001e48b       ?GetButtonStyle@CToolBar@@QBEIH@Z 0041f48b f   uafxcw:bartool.obj
 0001:0001e4c2       ?GetItemRect@CToolBar@@UBEXHPAUtagRECT@@@Z 0041f4c2 f   uafxcw:bartool.obj
 0001:0001e509       ?GetMessageMap@CToolBar@@MBEPBUAFX_MSGMAP@@XZ 0041f509 f   uafxcw:bartool.obj
 0001:0001e50f       ?GetRuntimeClass@CToolBar@@UBEPAUCRuntimeClass@@XZ 0041f50f f   uafxcw:bartool.obj
 0001:0001e515       ?Layout@CToolBar@@IAEXXZ   0041f515 f   uafxcw:bartool.obj
 0001:0001e566       ?LoadBitmapW@CToolBar@@QAEHPB_W@Z 0041f566 f   uafxcw:bartool.obj
 0001:0001e5b7       ?LoadToolBar@CToolBar@@QAEHPB_W@Z 0041f5b7 f   uafxcw:bartool.obj
 0001:0001e690       ?OnBarStyleChange@CToolBar@@UAEXKK@Z 0041f690 f   uafxcw:bartool.obj
 0001:0001e6c7       ?OnNcCalcSize@CToolBar@@IAEXHPAUtagNCCALCSIZE_PARAMS@@@Z 0041f6c7 f   uafxcw:bartool.obj
 0001:0001e74f       ?OnNcCreate@CToolBar@@IAEHPAUtagCREATESTRUCTW@@@Z 0041f74f f   uafxcw:bartool.obj
 0001:0001e7a5       ?OnPaint@CToolBar@@IAEXXZ  0041f7a5 f   uafxcw:bartool.obj
 0001:0001e7be       ?OnPreserveSizingPolicyHelper@CToolBar@@IAEJIJ@Z 0041f7be f   uafxcw:bartool.obj
 0001:0001e870       ?OnPreserveZeroBorderHelper@CToolBar@@IAEJIJ@Z 0041f870 f   uafxcw:bartool.obj
 0001:0001e92a       ?OnSetBitmapSize@CToolBar@@IAEJIJ@Z 0041f92a f   uafxcw:bartool.obj
 0001:0001e940       ?OnSetButtonSize@CToolBar@@IAEJIJ@Z 0041f940 f   uafxcw:bartool.obj
 0001:0001e956       ?OnSetSizeHelper@CToolBar@@IAEJAAVCSize@@J@Z 0041f956 f   uafxcw:bartool.obj
 0001:0001ea27       ?OnSysColorChange@CToolBar@@IAEXXZ 0041fa27 f   uafxcw:bartool.obj
 0001:0001ea59       ?OnToolHitTest@CToolBar@@UBEHVCPoint@@PAUtagTOOLINFOW@@@Z 0041fa59 f   uafxcw:bartool.obj
 0001:0001eb7a       ?OnUpdateCmdUI@CToolBar@@UAEXPAVCFrameWnd@@H@Z 0041fb7a f   uafxcw:bartool.obj
 0001:0001ec46       ?OnWindowPosChanging@CToolBar@@IAEXPAUtagWINDOWPOS@@@Z 0041fc46 f   uafxcw:bartool.obj
 0001:0001ec8f       ?SetButtonStyle@CToolBar@@QAEXHI@Z 0041fc8f f   uafxcw:bartool.obj
 0001:0001ecef       ?SetButtons@CToolBar@@QAEHPBIH@Z 0041fcef f   uafxcw:bartool.obj
 0001:0001ee76       ?SetCheck@CToolCmdUI@@UAEXH@Z 0041fe76 f   uafxcw:bartool.obj
 0001:0001eebb       ?SetSizes@CToolBar@@QAEXUtagSIZE@@0@Z 0041febb f   uafxcw:bartool.obj
 0001:0001ef71       ?SizeToolBar@CToolBar@@IAEXPAU_TBBUTTON@@HHH@Z 0041ff71 f   uafxcw:bartool.obj
 0001:0001f0c4       ?WrapToolBar@CToolBar@@IAEHPAU_TBBUTTON@@HH@Z 004200c4 f   uafxcw:bartool.obj
 0001:0001f1bb       ?_AfxGetComCtlVersion@@YGKXZ 004201bb f   uafxcw:bartool.obj
 0001:0001f1f5       ?_AfxGetDropDownWidth@@YGHXZ 004201f5 f   uafxcw:bartool.obj
 0001:0001f279       ?_GetButton@CToolBar@@IBEXHPAU_TBBUTTON@@@Z 00420279 f   uafxcw:bartool.obj
 0001:0001f2ac       ?_SetButton@CToolBar@@IAEXHPAU_TBBUTTON@@@Z 004202ac f   uafxcw:bartool.obj
 0001:0001f446       ?get_accName@CToolBar@@UAEJUtagVARIANT@@PAPA_W@Z 00420446 f   uafxcw:bartool.obj
 0001:0001f558       ??_U@YAPAXI@Z              00420558 f   uafxcw:afx_new_array.obj
 0001:0001f561       ??_V@YAXPAX@Z              00420561 f   uafxcw:afx_delete_array.obj
 0001:0001f566       ??1CButton@@UAE@XZ         00420566 f   uafxcw:winctrl1.obj
 0001:0001f5b0       ??1CComboBox@@UAE@XZ       004205b0 f   uafxcw:winctrl1.obj
 0001:0001f5fa       ??1CEdit@@UAE@XZ           004205fa f   uafxcw:winctrl1.obj
 0001:0001f644       ??1CListBox@@UAE@XZ        00420644 f   uafxcw:winctrl1.obj
 0001:0001f68e       ??1CScrollBar@@UAE@XZ      0042068e f   uafxcw:winctrl1.obj
 0001:0001f6d8       ??1CStatic@@UAE@XZ         004206d8 f   uafxcw:winctrl1.obj
 0001:0001f722       ??_ECButton@@UAEPAXI@Z     00420722 f i uafxcw:winctrl1.obj
 0001:0001f722       ??_GCButton@@UAEPAXI@Z     00420722 f i uafxcw:winctrl1.obj
 0001:0001f755       ??_ECComboBox@@UAEPAXI@Z   00420755 f i uafxcw:winctrl1.obj
 0001:0001f755       ??_GCComboBox@@UAEPAXI@Z   00420755 f i uafxcw:winctrl1.obj
 0001:0001f788       ??_ECEdit@@UAEPAXI@Z       00420788 f i uafxcw:winctrl1.obj
 0001:0001f788       ??_GCEdit@@UAEPAXI@Z       00420788 f i uafxcw:winctrl1.obj
 0001:0001f7bb       ??_ECScrollBar@@UAEPAXI@Z  004207bb f i uafxcw:winctrl1.obj
 0001:0001f7bb       ??_GCScrollBar@@UAEPAXI@Z  004207bb f i uafxcw:winctrl1.obj
 0001:0001f7ee       ??_ECStatic@@UAEPAXI@Z     004207ee f i uafxcw:winctrl1.obj
 0001:0001f7ee       ??_GCStatic@@UAEPAXI@Z     004207ee f i uafxcw:winctrl1.obj
 0001:0001f821       ?CharToItem@CListBox@@UAEHII@Z 00420821 f   uafxcw:winctrl1.obj
 0001:0001f821       ?OnShowWindow@CWnd@@IAEXHI@Z 00420821 f   uafxcw:barcore.obj
 0001:0001f821       ?OnSizing@CMultiPaneFrameWnd@@IAEXIPAUtagRECT@@@Z 00420821 f   uafxcw:afxmultipaneframewnd.obj
 0001:0001f821       ?VKeyToItem@CListBox@@UAEHII@Z 00420821 f   uafxcw:winctrl1.obj
 0001:0001f829       ?Create@CButton@@UAEHPB_WKABUtagRECT@@PAVCWnd@@I@Z 00420829 f   uafxcw:winctrl1.obj
 0001:0001f85d       ?Create@CComboBox@@UAEHKABUtagRECT@@PAVCWnd@@I@Z 0042085d f   uafxcw:winctrl1.obj
 0001:0001f890       ?Create@CEdit@@QAEHKABUtagRECT@@PAVCWnd@@I@Z 00420890 f   uafxcw:winctrl1.obj
 0001:0001f8c3       ?Create@CListBox@@UAEHKABUtagRECT@@PAVCWnd@@I@Z 004208c3 f   uafxcw:winctrl1.obj
 0001:0001f8f6       ?Create@CScrollBar@@UAEHKABUtagRECT@@PAVCWnd@@I@Z 004208f6 f   uafxcw:winctrl1.obj
 0001:0001f929       ?Create@CStatic@@UAEHPB_WKABUtagRECT@@PAVCWnd@@I@Z 00420929 f   uafxcw:winctrl1.obj
 0001:0001f95d       ?GetLBText@CComboBox@@QBEXHAAV?$CStringT@_WV?$StrTraitMFC@_WV?$ChTraitsCRT@_W@ATL@@@@@ATL@@@Z 0042095d f   uafxcw:winctrl1.obj
 0001:0001f9a0       ?GetRuntimeClass@CButton@@UBEPAUCRuntimeClass@@XZ 004209a0 f   uafxcw:winctrl1.obj
 0001:0001f9a6       ?GetRuntimeClass@CComboBox@@UBEPAUCRuntimeClass@@XZ 004209a6 f   uafxcw:winctrl1.obj
 0001:0001f9ac       ?GetRuntimeClass@CEdit@@UBEPAUCRuntimeClass@@XZ 004209ac f   uafxcw:winctrl1.obj
 0001:0001f9b2       ?GetRuntimeClass@CListBox@@UBEPAUCRuntimeClass@@XZ 004209b2 f   uafxcw:winctrl1.obj
 0001:0001f9b8       ?GetRuntimeClass@CScrollBar@@UBEPAUCRuntimeClass@@XZ 004209b8 f   uafxcw:winctrl1.obj
 0001:0001f9be       ?GetRuntimeClass@CStatic@@UBEPAUCRuntimeClass@@XZ 004209be f   uafxcw:winctrl1.obj
 0001:0001f9c4       ?GetText@CListBox@@QBEXHAAV?$CStringT@_WV?$StrTraitMFC@_WV?$ChTraitsCRT@_W@ATL@@@@@ATL@@@Z 004209c4 f   uafxcw:winctrl1.obj
 0001:0001fa07       ?LoadMenuW@CMenu@@QAEHI@Z  00420a07 f i uafxcw:winctrl1.obj
 0001:0001fa2e       ?OnChildNotify@CButton@@MAEHIIJPAJ@Z 00420a2e f   uafxcw:winctrl1.obj
 0001:0001fa2e       ?OnChildNotify@CStatic@@MAEHIIJPAJ@Z 00420a2e f   uafxcw:winctrl1.obj
 0001:0001fa6e       ?OnChildNotify@CComboBox@@MAEHIIJPAJ@Z 00420a6e f   uafxcw:winctrl1.obj
 0001:0001faf1       ?OnChildNotify@CListBox@@MAEHIIJPAJ@Z 00420af1 f   uafxcw:winctrl1.obj
 0001:0001fbaf       ??0CWinThread@@QAE@XZ      00420baf f   uafxcw:thrdcore.obj
 0001:0001fbe5       ??1CWinThread@@UAE@XZ      00420be5 f   uafxcw:thrdcore.obj
 0001:0001fc47       ??_ECWinThread@@UAEPAXI@Z  00420c47 f i uafxcw:thrdcore.obj
 0001:0001fc47       ??_GCWinThread@@UAEPAXI@Z  00420c47 f i uafxcw:thrdcore.obj
 0001:0001fc77       ?AfxEndThread@@YGXIH@Z     00420c77 f   uafxcw:thrdcore.obj
 0001:0001fcd2       ?AfxGetCurrentMessage@@YGPAUtagMSG@@XZ 00420cd2 f   uafxcw:thrdcore.obj
 0001:0001fcdb       ?AfxGetThread@@YGPAVCWinThread@@XZ 00420cdb f   uafxcw:thrdcore.obj
 0001:0001fce4       ?AfxInitThread@@YGXXZ      00420ce4 f   uafxcw:thrdcore.obj
 0001:0001fd12       ?AfxInternalIsIdleMessage@@YAHPAUtagMSG@@@Z 00420d12 f   uafxcw:thrdcore.obj
 0001:0001fd80       ?AfxInternalPreTranslateMessage@@YAHPAUtagMSG@@@Z 00420d80 f   uafxcw:thrdcore.obj
 0001:0001fdf7       ?AfxInternalProcessWndProcException@@YGJPAVCException@@PBUtagMSG@@@Z 00420df7 f   uafxcw:thrdcore.obj
 0001:0001fe1e       ?AfxInternalPumpMessage@@YGHXZ 00420e1e f   uafxcw:thrdcore.obj
 0001:0001fe62       ?AfxIsIdleMessage@@YAHPAUtagMSG@@@Z 00420e62 f   uafxcw:thrdcore.obj
 0001:0001fe92       ?AfxPreTranslateMessage@@YAHPAUtagMSG@@@Z 00420e92 f   uafxcw:thrdcore.obj
 0001:0001fec2       ?AfxProcessWndProcException@@YGJPAVCException@@PBUtagMSG@@@Z 00420ec2 f   uafxcw:thrdcore.obj
 0001:0001fef7       ?AfxPumpMessage@@YGHXZ     00420ef7 f   uafxcw:thrdcore.obj
 0001:0001ff1f       ?AfxTermThread@@YGXPAUHINSTANCE__@@@Z 00420f1f f   uafxcw:thrdcore.obj
 0001:0001ffe7       ?CommonConstruct@CWinThread@@QAEXXZ 00420fe7 f   uafxcw:thrdcore.obj
 0001:0002001e       ?CreateThread@CWinThread@@QAEHKIPAU_SECURITY_ATTRIBUTES@@@Z 0042101e f   uafxcw:thrdcore.obj
 0001:00020132       ?Delete@CWinThread@@UAEXXZ 00421132 f   uafxcw:thrdcore.obj
 0001:00020152       ?DispatchThreadMessageEx@CWinThread@@IAEHPAUtagMSG@@@Z 00421152 f   uafxcw:thrdcore.obj
 0001:000201fa       ?ExitInstance@CWinThread@@UAEHXZ 004211fa f   uafxcw:thrdcore.obj
 0001:00020203       ?GetMainWnd@CWinThread@@UAEPAVCWnd@@XZ 00421203 f   uafxcw:thrdcore.obj
 0001:0002021e       ?GetRuntimeClass@CWinThread@@UBEPAUCRuntimeClass@@XZ 0042121e f   uafxcw:thrdcore.obj
 0001:00020224       ?IsEnterKey@@YAHPAUtagMSG@@@Z 00421224 f i uafxcw:thrdcore.obj
 0001:00020242       ?IsIdleMessage@CWinThread@@UAEHPAUtagMSG@@@Z 00421242 f   uafxcw:thrdcore.obj
 0001:00020252       ?OnIdle@CWinThread@@UAEHJ@Z 00421252 f   uafxcw:thrdcore.obj
 0001:00020373       ?PreTranslateMessage@CWinThread@@UAEHPAUtagMSG@@@Z 00421373 f   uafxcw:thrdcore.obj
 0001:00020383       ?ProcessMessageFilter@CWinThread@@UAEHHPAUtagMSG@@@Z 00421383 f   uafxcw:thrdcore.obj
 0001:000204b0       ?ProcessWndProcException@CWinThread@@UAEJPAVCException@@PBUtagMSG@@@Z 004214b0 f   uafxcw:thrdcore.obj
 0001:000204b9       ?PumpMessage@CWinThread@@UAEHXZ 004214b9 f   uafxcw:thrdcore.obj
 0001:000204be       ?Run@CWinThread@@UAEHXZ    004214be f   uafxcw:thrdcore.obj
 0001:0002057c       ?_AfxMsgFilterHook@@YGJHIJ@Z 0042157c f   uafxcw:thrdcore.obj
 0001:000205e8       ?_AfxThreadEntry@@YGIPAX@Z 004215e8 f   uafxcw:thrdcore.obj
 0001:0002074c       ??0CImageList@@QAE@XZ      0042174c f   uafxcw:winctrl2.obj
 0001:00020759       ??1CHeaderCtrl@@UAE@XZ     00421759 f   uafxcw:winctrl2.obj
 0001:000207a3       ??1CImageList@@UAE@XZ      004217a3 f   uafxcw:winctrl2.obj
 0001:000208b5       ??1CListCtrl@@UAE@XZ       004218b5 f   uafxcw:winctrl2.obj
 0001:000208ff       ??1CRgn@@UAE@XZ            004218ff f i uafxcw:winctrl2.obj
 0001:0002090a       ??1CRichEditCtrl@@UAE@XZ   0042190a f   uafxcw:winctrl2.obj
 0001:00020954       ??1CSpinButtonCtrl@@UAE@XZ 00421954 f   uafxcw:winctrl2.obj
 0001:0002099e       ??1CTreeCtrl@@UAE@XZ       0042199e f   uafxcw:winctrl2.obj
 0001:000209e8       ??4?$CStringT@_WV?$StrTraitMFC@_WV?$ChTraitsCRT@_W@ATL@@@@@ATL@@QAEAAV01@PBD@Z 004219e8 f i uafxcw:winctrl2.obj
 0001:00020a36       ??_ECHeaderCtrl@@UAEPAXI@Z 00421a36 f i uafxcw:winctrl2.obj
 0001:00020a36       ??_GCHeaderCtrl@@UAEPAXI@Z 00421a36 f i uafxcw:winctrl2.obj
 0001:00020a69       ??_ECImageList@@UAEPAXI@Z  00421a69 f i uafxcw:winctrl2.obj
 0001:00020a69       ??_GCImageList@@UAEPAXI@Z  00421a69 f i uafxcw:winctrl2.obj
 0001:00020a99       ??_ECRgn@@UAEPAXI@Z        00421a99 f i uafxcw:winctrl2.obj
 0001:00020a99       ??_GCRgn@@UAEPAXI@Z        00421a99 f i uafxcw:winctrl2.obj
 0001:00020acf       ??_ECRichEditCtrl@@UAEPAXI@Z 00421acf f i uafxcw:winctrl2.obj
 0001:00020acf       ??_GCRichEditCtrl@@UAEPAXI@Z 00421acf f i uafxcw:winctrl2.obj
 0001:00020b02       ??_ECSpinButtonCtrl@@UAEPAXI@Z 00421b02 f i uafxcw:winctrl2.obj
 0001:00020b02       ??_GCSpinButtonCtrl@@UAEPAXI@Z 00421b02 f i uafxcw:winctrl2.obj
 0001:00020b35       ??_ECTreeCtrl@@UAEPAXI@Z   00421b35 f i uafxcw:winctrl2.obj
 0001:00020b35       ??_GCTreeCtrl@@UAEPAXI@Z   00421b35 f i uafxcw:winctrl2.obj
 0001:00020b68       ?Attach@CImageList@@QAEHPAU_IMAGELIST@@@Z 00421b68 f   uafxcw:winctrl2.obj
 0001:00020b98       ?Construct@?$ConstructDestruct@VCImageList@@@@SGXPAVCObject@@@Z 00421b98 f i uafxcw:winctrl2.obj
 0001:00020bb1       ?Create@CHeaderCtrl@@UAEHKABUtagRECT@@PAVCWnd@@I@Z 00421bb1 f   uafxcw:winctrl2.obj
 0001:00020bee       ?Create@CImageList@@QAEHHHIHH@Z 00421bee f   uafxcw:winctrl2.obj
 0001:00020c15       ?Create@CImageList@@QAEHIHHK@Z 00421c15 f   uafxcw:winctrl2.obj
 0001:00020c46       ?Create@CSpinButtonCtrl@@UAEHKABUtagRECT@@PAVCWnd@@I@Z 00421c46 f   uafxcw:winctrl2.obj
 0001:00020c80       ?CreateObject@CImageList@@SGPAVCObject@@XZ 00421c80 f   uafxcw:winctrl2.obj
 0001:00020ca3       ?DeleteImageList@CImageList@@QAEHXZ 00421ca3 f   uafxcw:winctrl2.obj
 0001:00020cb8       ?Detach@CImageList@@QAEPAU_IMAGELIST@@XZ 00421cb8 f   uafxcw:winctrl2.obj
 0001:00020ce2       ?FromHandle@CImageList@@SGPAV1@PAU_IMAGELIST@@@Z 00421ce2 f   uafxcw:winctrl2.obj
 0001:00020cf4       ?FromHandlePermanent@CImageList@@SGPAV1@PAU_IMAGELIST@@@Z 00421cf4 f   uafxcw:winctrl2.obj
 0001:00020d18       ?GetBaseTypeLength@?$ChTraitsCRT@_W@ATL@@SAHPBD@Z 00421d18 f i uafxcw:winctrl2.obj
 0001:00020d30       ?GetItemData@CListCtrl@@QBEKH@Z 00421d30 f   uafxcw:winctrl2.obj
 0001:00020d72       ?GetItemData@CTreeCtrl@@QBEKPAU_TREEITEM@@@Z 00421d72 f   uafxcw:winctrl2.obj
 0001:00020dbb       ?GetItemRect@CListCtrl@@QBEHHPAUtagRECT@@I@Z 00421dbb f   uafxcw:winctrl2.obj
 0001:00020ddc       ?GetItemRect@CTreeCtrl@@QBEHPAU_TREEITEM@@PAUtagRECT@@H@Z 00421ddc f   uafxcw:winctrl2.obj
 0001:00020dfd       ?GetItemText@CListCtrl@@QBE?AV?$CStringT@_WV?$StrTraitMFC@_WV?$ChTraitsCRT@_W@ATL@@@@@ATL@@HH@Z 00421dfd f   uafxcw:winctrl2.obj
 0001:00020e7e       ?GetMessageMap@CListCtrl@@MBEPBUAFX_MSGMAP@@XZ 00421e7e f   uafxcw:winctrl2.obj
 0001:00020e7e       ?GetThisMessageMap@CListCtrl@@KGPBUAFX_MSGMAP@@XZ 00421e7e f   uafxcw:winctrl2.obj
 0001:00020e84       ?GetMessageMap@CTreeCtrl@@MBEPBUAFX_MSGMAP@@XZ 00421e84 f   uafxcw:winctrl2.obj
 0001:00020e84       ?GetThisMessageMap@CTreeCtrl@@KGPBUAFX_MSGMAP@@XZ 00421e84 f   uafxcw:winctrl2.obj
 0001:00020e8a       ?GetRuntimeClass@CHeaderCtrl@@UBEPAUCRuntimeClass@@XZ 00421e8a f   uafxcw:winctrl2.obj
 0001:00020e90       ?GetRuntimeClass@CImageList@@UBEPAUCRuntimeClass@@XZ 00421e90 f   uafxcw:winctrl2.obj
 0001:00020e96       ?GetRuntimeClass@CListCtrl@@UBEPAUCRuntimeClass@@XZ 00421e96 f   uafxcw:winctrl2.obj
 0001:00020e9c       ?GetRuntimeClass@CRichEditCtrl@@UBEPAUCRuntimeClass@@XZ 00421e9c f   uafxcw:winctrl2.obj
 0001:00020ea2       ?GetRuntimeClass@CSpinButtonCtrl@@UBEPAUCRuntimeClass@@XZ 00421ea2 f   uafxcw:winctrl2.obj
 0001:00020ea8       ?GetRuntimeClass@CTreeCtrl@@UBEPAUCRuntimeClass@@XZ 00421ea8 f   uafxcw:winctrl2.obj
 0001:00020eae       ?HitTest@CListCtrl@@QBEHVCPoint@@PAI@Z 00421eae f   uafxcw:winctrl2.obj
 0001:00020efa       ?HitTest@CTreeCtrl@@QBEPAU_TREEITEM@@VCPoint@@PAI@Z 00421efa f   uafxcw:winctrl2.obj
 0001:00020f30       ?InsertColumn@CListCtrl@@QAEHHPB_WHHH@Z 00421f30 f   uafxcw:winctrl2.obj
 0001:00020f83       ?InsertItem@CListCtrl@@QAEHIHPB_WIIHJ@Z 00421f83 f   uafxcw:winctrl2.obj
 0001:00020fcf       ?OnChildNotify@CHeaderCtrl@@MAEHIIJPAJ@Z 00421fcf f   uafxcw:winctrl2.obj
 0001:0002100f       ?OnChildNotify@CListCtrl@@MAEHIIJPAJ@Z 0042200f f   uafxcw:winctrl2.obj
 0001:0002104f       ?OnDestroy@CTreeCtrl@@QAEXXZ 0042204f f   uafxcw:winctrl2.obj
 0001:0002106a       ?OnNcDestroy@CListCtrl@@IAEXXZ 0042206a f   uafxcw:winctrl2.obj
 0001:0002108e       ?RemoveImageList@CListCtrl@@IAEXH@Z 0042208e f   uafxcw:winctrl2.obj
 0001:000210c9       ?RemoveImageList@CTreeCtrl@@IAEXH@Z 004220c9 f   uafxcw:winctrl2.obj
 0001:00021104       ?SetItem@CListCtrl@@QAEHHHIPB_WHIIJ@Z 00422104 f   uafxcw:winctrl2.obj
 0001:0002112a       ?SetItem@CListCtrl@@QAEHHHIPB_WHIIJH@Z 0042212a f   uafxcw:winctrl2.obj
 0001:0002117e       ?SetItemState@CListCtrl@@QAEHHII@Z 0042217e f   uafxcw:winctrl2.obj
 0001:000211a9       ?SetItemText@CListCtrl@@QAEHHHPB_W@Z 004221a9 f   uafxcw:winctrl2.obj
 0001:000211d4       ?afxMapHIMAGELIST@@YGPAVCHandleMap@@H@Z 004221d4 f   uafxcw:winctrl2.obj
 0001:00021245       _IsolationAwareImageList_Create@20 00422245 f i uafxcw:winctrl2.obj
 0001:00021320       _IsolationAwareImageList_Destroy@4 00422320 f i uafxcw:winctrl2.obj
 0001:000213ef       _IsolationAwareImageList_LoadImageW@28 004223ef f i uafxcw:winctrl2.obj
 0001:000214d0       ??0?$CStringT@_WV?$StrTraitMFC@_WV?$ChTraitsCRT@_W@ATL@@@@@ATL@@QAE@PBD@Z 004224d0 f i uafxcw:appcore.obj
 0001:0002151f       ??0CComBSTR@ATL@@QAE@PB_W@Z 0042251f f i uafxcw:appcore.obj
 0001:0002154f       ??0CCommandLineInfo@@QAE@XZ 0042254f f   uafxcw:appcore.obj
 0001:000215a1       ??0CWinApp@@QAE@PB_W@Z     004225a1 f   uafxcw:appcore.obj
 0001:00021701       ??1CCommandLineInfo@@UAE@XZ 00422701 f   uafxcw:appcore.obj
 0001:00021742       ??1CWinApp@@UAE@XZ         00422742 f   uafxcw:appcore.obj
 0001:00021a04       ??_ECCommandLineInfo@@UAEPAXI@Z 00422a04 f i uafxcw:appcore.obj
 0001:00021a04       ??_GCCommandLineInfo@@UAEPAXI@Z 00422a04 f i uafxcw:appcore.obj
 0001:00021a34       ??_ECWinApp@@UAEPAXI@Z     00422a34 f i uafxcw:appcore.obj
 0001:00021a34       ??_GCWinApp@@UAEPAXI@Z     00422a34 f i uafxcw:appcore.obj
 0001:00021a67       ?AfxApplicationRecoveryWrapper@@YGKPAX@Z 00422a67 f   uafxcw:appcore.obj
 0001:00021a9b       ?AfxLoadLangResourceDLL@@YGPAUHINSTANCE__@@PB_W0@Z 00422a9b f   uafxcw:appcore.obj
 0001:00021b7f       ?AfxPostQuitMessage@@YGXH@Z 00422b7f f   uafxcw:appcore.obj
 0001:00021ba9       ?ApplicationRecoveryCallback@CWinApp@@UAEKPAX@Z 00422ba9 f   uafxcw:appcore.obj
 0001:00021c0a       ?DevModeChange@CWinApp@@QAEXPA_W@Z 00422c0a f   uafxcw:appcore.obj
 0001:00021cb6       ?ExitInstance@CWinApp@@UAEHXZ 00422cb6 f   uafxcw:appcore.obj
 0001:00021d2a       ?Find@?$CStringT@_WV?$StrTraitMFC@_WV?$ChTraitsCRT@_W@ATL@@@@@ATL@@QBEHPB_WH@Z 00422d2a f i uafxcw:appcore.obj
 0001:00021d64       ?GetDataRecoveryHandler@CWinApp@@UAEPAVCDataRecoveryHandler@@XZ 00422d64 f   uafxcw:appcore.obj
 0001:00021e40       ?GetMessageMap@CWinApp@@MBEPBUAFX_MSGMAP@@XZ 00422e40 f   uafxcw:appcore.obj
 0001:00021e40       ?GetThisMessageMap@CWinApp@@KGPBUAFX_MSGMAP@@XZ 00422e40 f   uafxcw:appcore.obj
 0001:00021e46       ?GetRuntimeClass@CWinApp@@UBEPAUCRuntimeClass@@XZ 00422e46 f   uafxcw:appcore.obj
 0001:00021e4c       ?HtmlHelpW@CWinApp@@UAEXKI@Z 00422e4c f   uafxcw:appcore.obj
 0001:00021e99       ?InitApplication@CWinApp@@UAEHXZ 00422e99 f   uafxcw:appcore.obj
 0001:00021ef4       ?InitInstance@CWinApp@@UAEHXZ 00422ef4 f   uafxcw:appcore.obj
 0001:00021fb5       ?LoadAppLangResourceDLL@CWinApp@@UAEPAUHINSTANCE__@@XZ 00422fb5 f   uafxcw:appcore.obj
 0001:0002202b       ?LoadStdProfileSettings@CWinApp@@IAEXI@Z 0042302b f   uafxcw:appcore.obj
 0001:000220bf       ?LoadSysPolicies@CWinApp@@UAEHXZ 004230bf f   uafxcw:appcore.obj
 0001:000220c4       ?OnIdle@CWinApp@@UAEHJ@Z   004230c4 f   uafxcw:appcore.obj
 0001:00022182       ?ParseCommandLine@CWinApp@@QAEXAAVCCommandLineInfo@@@Z 00423182 f   uafxcw:appcore.obj
 0001:000221f4       ?ParseLast@CCommandLineInfo@@IAEXH@Z 004231f4 f   uafxcw:appcore.obj
 0001:00022227       ?ParseParam@CCommandLineInfo@@UAEXPBDHH@Z 00423227 f   uafxcw:appcore.obj
 0001:00022251       ?ParseParam@CCommandLineInfo@@UAEXPB_WHH@Z 00423251 f   uafxcw:appcore.obj
 0001:000222a2       ?ParseParamFlag@CCommandLineInfo@@IAEXPBD@Z 004232a2 f   uafxcw:appcore.obj
 0001:000224f4       ?ParseParamNotFlag@CCommandLineInfo@@IAEXPBD@Z 004234f4 f   uafxcw:appcore.obj
 0001:00022540       ?ParseParamNotFlag@CCommandLineInfo@@IAEXPB_W@Z 00423540 f   uafxcw:appcore.obj
 0001:00022594       ?ProcessWndProcException@CWinApp@@UAEJPAVCException@@PBUtagMSG@@@Z 00423594 f   uafxcw:appcore.obj
 0001:00022634       ?RegisterWithRestartManager@CWinApp@@UAEJHABV?$CStringT@_WV?$StrTraitMFC@_WV?$ChTraitsCRT@_W@ATL@@@@@ATL@@@Z 00423634 f   uafxcw:appcore.obj
 0001:000228a5       ?RegisterWithRestartManager@CWinApp@@UAEJPB_WKP6GKPAX@Z1KK@Z 004238a5 f   uafxcw:appcore.obj
 0001:000228da       ?RestartInstance@CWinApp@@UAEHXZ 004238da f   uafxcw:appcore.obj
 0001:0002293a       ?Right@?$CStringT@_WV?$StrTraitMFC@_WV?$ChTraitsCRT@_W@ATL@@@@@ATL@@QBE?AV12@H@Z 0042393a f i uafxcw:appcore.obj
 0001:0002298a       ?Run@CWinApp@@UAEHXZ       0042398a f   uafxcw:appcore.obj
 0001:000229ab       ?SaveStdProfileSettings@CWinApp@@IAEXXZ 004239ab f   uafxcw:appcore.obj
 0001:000229f8       ?WinHelpInternal@CWinApp@@UAEXKI@Z 004239f8 f   uafxcw:appcore.obj
 0001:00022a45       ?WinHelpW@CWinApp@@UAEXKI@Z 00423a45 f   uafxcw:appcore.obj
 0001:00022b58       ?_AfxLoadLangDLLFromList@@YGPAUHINSTANCE__@@PB_W0PA_W@Z 00423b58 f   uafxcw:appcore.obj
 0001:00022c3f       ?_LoadSysPolicies@CWinApp@@IAEHXZ 00423c3f f   uafxcw:appcore.obj
 0001:00022d08       ??HATL@@YA?AV?$CStringT@_WV?$StrTraitMFC@_WV?$ChTraitsCRT@_W@ATL@@@@@0@ABV10@PB_W@Z 00423d08 f i uafxcw:appui2.obj
 0001:00022d64       ??HATL@@YA?AV?$CStringT@_WV?$StrTraitMFC@_WV?$ChTraitsCRT@_W@ATL@@@@@0@PB_WABV10@@Z 00423d64 f i uafxcw:appui2.obj
 0001:00022dc7       ?AddDocTemplate@CWinApp@@QAEXPAVCDocTemplate@@@Z 00423dc7 f   uafxcw:appui2.obj
 0001:00022e1a       ?AfxDelRegTreeHelper@@YGJPAUHKEY__@@ABV?$CStringT@_WV?$StrTraitMFC@_WV?$ChTraitsCRT@_W@ATL@@@@@ATL@@PAVCAtlTransactionManager@3@@Z 00423e1a f   uafxcw:appui2.obj
 0001:00022fbb       ?Concatenate@?$CSimpleStringT@_W$0A@@ATL@@KAXAAV12@PB_WH1H@Z 00423fbb f i uafxcw:appui2.obj
 0001:0002300a       ?GetFirstDocTemplatePosition@CWinApp@@QBEPAU__POSITION@@XZ 0042400a f   uafxcw:appui2.obj
 0001:0002302b       ?GetNextDocTemplate@CWinApp@@QBEPAVCDocTemplate@@AAPAU__POSITION@@@Z 0042402b f   uafxcw:appui2.obj
 0001:00023057       ?ProcessShellCommand@CWinApp@@QAEHAAVCCommandLineInfo@@@Z 00424057 f   uafxcw:appui2.obj
 0001:0002327f       ?RegDeleteKeyW@CAtlTransactionManager@ATL@@QAEJPAUHKEY__@@PB_W@Z 0042427f f i uafxcw:appui2.obj
 0001:000232de       ?Unregister@CWinApp@@UAEHXZ 004242de f   uafxcw:appui2.obj
 0001:00023477       ??ACRecentFileList@@QAEAAV?$CStringT@_WV?$StrTraitMFC@_WV?$ChTraitsCRT@_W@ATL@@@@@ATL@@H@Z 00424477 f i uafxcw:appui.obj
 0001:00023496       ?AddToRecentFileList@CWinApp@@UAEXPB_W@Z 00424496 f   uafxcw:appui.obj
 0001:000234ce       ?CloseAllDocuments@CWinApp@@QAEXH@Z 004244ce f   uafxcw:appui.obj
 0001:000234f4       ?DoWaitCursor@CWinApp@@UAEXH@Z 004244f4 f   uafxcw:appui.obj
 0001:00023575       ?HideApplication@CWinApp@@QAEXXZ 00424575 f   uafxcw:appui.obj
 0001:000235a7       ?OnAppExit@CWinApp@@IAEXXZ 004245a7 f   uafxcw:appui.obj
 0001:000235ba       ?OnDDECommand@CWinApp@@UAEHPA_W@Z 004245ba f   uafxcw:appui.obj
 0001:000235e4       ?OnOpenRecentFile@CWinApp@@IAEHI@Z 004245e4 f   uafxcw:appui.obj
 0001:00023675       ?OnUpdateRecentFileMenu@CWinApp@@IAEXPAVCCmdUI@@@Z 00424675 f   uafxcw:appui.obj
 0001:000236bc       ?OpenDocumentFile@CWinApp@@UAEPAVCDocument@@PB_W@Z 004246bc f   uafxcw:appui.obj
 0001:000236e8       ?OpenDocumentFile@CWinApp@@UAEPAVCDocument@@PB_WH@Z 004246e8 f   uafxcw:appui.obj
 0001:00023717       ?SaveAllModified@CWinApp@@UAEHXZ 00424717 f   uafxcw:appui.obj
 0001:00023739       ?AfxMessageBox@@YGHIII@Z   00424739 f   uafxcw:appui1.obj
 0001:00023788       ?AfxMessageBox@@YGHPB_WII@Z 00424788 f   uafxcw:appui1.obj
 0001:000237d1       ?DoEnableModeless@CWinApp@@SAXH@Z 004247d1 f   uafxcw:appui1.obj
 0001:0002381b       ?DoMessageBox@CWinApp@@UAEHPB_WII@Z 0042481b f   uafxcw:appui1.obj
 0001:00023834       ?EnableModeless@CWinApp@@QAEXH@Z 00424834 f   uafxcw:appui1.obj
 0001:00023844       ?GetSafeOwner_@CWnd@@SGPAUHWND__@@PAU2@PAPAU2@@Z 00424844 f   uafxcw:appui1.obj
 0001:000238f9       ?ShowAppMessageBox@CWinApp@@SAHPAV1@PB_WII@Z 004248f9 f   uafxcw:appui1.obj
 0001:00023a6b       ??0CSingleDocTemplate@@QAE@IPAUCRuntimeClass@@00@Z 00424a6b f   uafxcw:docsingl.obj
 0001:00023a9a       ??_ECSingleDocTemplate@@UAEPAXI@Z 00424a9a f i uafxcw:docsingl.obj
 0001:00023a9a       ??_GCSingleDocTemplate@@UAEPAXI@Z 00424a9a f i uafxcw:docsingl.obj
 0001:00023ad3       ?AddDocument@CSingleDocTemplate@@UAEXPAVCDocument@@@Z 00424ad3 f   uafxcw:docsingl.obj
 0001:00023aef       ?GetFirstDocPosition@CSingleDocTemplate@@UBEPAU__POSITION@@XZ 00424aef f   uafxcw:docsingl.obj
 0001:00023afa       ?GetNextDoc@CSingleDocTemplate@@UBEPAVCDocument@@AAPAU__POSITION@@@Z 00424afa f   uafxcw:docsingl.obj
 0001:00023b14       ?GetRuntimeClass@CSingleDocTemplate@@UBEPAUCRuntimeClass@@XZ 00424b14 f   uafxcw:docsingl.obj
 0001:00023b1a       ?OpenDocumentFile@CSingleDocTemplate@@UAEPAVCDocument@@PB_WH@Z 00424b1a f   uafxcw:docsingl.obj
 0001:00023b43       ?OpenDocumentFile@CSingleDocTemplate@@UAEPAVCDocument@@PB_WHH@Z 00424b43 f   uafxcw:docsingl.obj
 0001:00023db5       ?RemoveDocument@CSingleDocTemplate@@UAEXPAVCDocument@@@Z 00424db5 f   uafxcw:docsingl.obj
 0001:00023dcf       ?SetDefaultTitle@CSingleDocTemplate@@UAEXPAVCDocument@@@Z 00424dcf f   uafxcw:docsingl.obj
 0001:00023e4f       ??0OLE_DATA@@QAE@XZ        00424e4f f   uafxcw:oleinit.obj
 0001:00023efd       ?AfxOleInit@@YGHXZ         00424efd f   uafxcw:oleinit.obj
 0001:00023f90       ?AfxOleTerm@@YGXH@Z        00424f90 f   uafxcw:oleinit.obj
 0001:00023ffe       ?AfxOleTermOrFreeLib@@YGXHH@Z 00424ffe f   uafxcw:oleinit.obj
 0001:00024069       ?memmove_s@Checked@ATL@@YAXPAXIPBXI@Z 00425069 f i uafxcw:oleinit.obj
 0001:000240ba       ??$CompareElements@HH@@YGHPBH0@Z 004250ba f i uafxcw:afxvslistbox.obj
 0001:000240ba       ??$CompareElements@II@@YGHPBI0@Z 004250ba f i uafxcw:afxtoolbarimages.obj
 0001:000240ba       ??$CompareElements@PAUHICON__@@PAU1@@@YGHPBQAUHICON__@@0@Z 004250ba f i uafxcw:afxbasetabctrl.obj
 0001:000240ba       ??$CompareElements@PAUHMENU__@@PAU1@@@YGHPBQAUHMENU__@@0@Z 004250ba f i uafxcw:afxmenuhash.obj
 0001:000240ba       ??$CompareElements@PAUHWND__@@PAU1@@@YGHPBQAUHWND__@@0@Z 004250ba f i uafxcw:afxtooltipmanager.obj
 0001:000240ba       ??$CompareElements@PAVCDocument@@PAV1@@@YGHPBQAVCDocument@@0@Z 004250ba f i uafxcw:afxdatarecovery.obj
 0001:000240ba       ??$CompareElements@PAVCWnd@@PAV1@@@YGHPBQAVCWnd@@0@Z 004250ba f i uafxcw:afxmdiclientareawnd.obj
 0001:000240ba       ??$CompareElements@PAVIControlSiteFactory@@PAV1@@@YGHPBQAVIControlSiteFactory@@0@Z 004250ba f i uafxcw:occmgr.obj
 0001:000240de       ??0?$CList@PAVIControlSiteFactory@@PAV1@@@QAE@H@Z 004250de f i uafxcw:occmgr.obj
 0001:00024104       ??0CControlSiteFactoryMgr@@QAE@XZ 00425104 f   uafxcw:occmgr.obj
 0001:00024184       ??1?$CList@PAVIControlSiteFactory@@PAV1@@@UAE@XZ 00425184 f i uafxcw:occmgr.obj
 0001:000241c3       ??1CControlSiteFactoryMgr@@UAE@XZ 004251c3 f   uafxcw:occmgr.obj
 0001:00024239       ??_E?$CList@PAVIControlSiteFactory@@PAV1@@@UAEPAXI@Z 00425239 f i uafxcw:occmgr.obj
 0001:00024239       ??_G?$CList@PAVIControlSiteFactory@@PAV1@@@UAEPAXI@Z 00425239 f i uafxcw:occmgr.obj
 0001:000242a2       ??_ECControlSiteFactoryMgr@@UAEPAXI@Z 004252a2 f i uafxcw:occmgr.obj
 0001:000242a2       ??_GCControlSiteFactoryMgr@@UAEPAXI@Z 004252a2 f i uafxcw:occmgr.obj
 0001:000242d2       ??_ECOccManager@@UAEPAXI@Z 004252d2 f i uafxcw:occmgr.obj
 0001:000242d2       ??_GCOccManager@@UAEPAXI@Z 004252d2 f i uafxcw:occmgr.obj
 0001:000242fd       ??_ECOleControlSiteFactory@@UAEPAXI@Z 004252fd f i uafxcw:occmgr.obj
 0001:000242fd       ??_EIControlSiteFactory@@UAEPAXI@Z 004252fd f i uafxcw:occmgr.obj
 0001:000242fd       ??_GCOleControlSiteFactory@@UAEPAXI@Z 004252fd f i uafxcw:occmgr.obj
 0001:000242fd       ??_GIControlSiteFactory@@UAEPAXI@Z 004252fd f i uafxcw:occmgr.obj
 0001:00024320       ?AddHead@?$CList@KK@@QAEPAU__POSITION@@K@Z 00425320 f i uafxcw:afxtoolbarcomboboxbutton.obj
 0001:00024320       ?AddHead@?$CList@PAU_ITEMIDLIST@@PAU1@@@QAEPAU__POSITION@@PAU_ITEMIDLIST@@@Z 00425320 f i uafxcw:afxshelltreectrl.obj
 0001:00024320       ?AddHead@?$CList@PAVCMFCPropertyGridProperty@@PAV1@@@QAEPAU__POSITION@@PAVCMFCPropertyGridProperty@@@Z 00425320 f i uafxcw:afxpropertygridctrl.obj
 0001:00024320       ?AddHead@?$CList@PAVIControlSiteFactory@@PAV1@@@QAEPAU__POSITION@@PAVIControlSiteFactory@@@Z 00425320 f i uafxcw:occmgr.obj
 0001:0002434d       ?AfxEnableControlContainer@@YAXPAVCOccManager@@@Z 0042534d f   uafxcw:occmgr.obj
 0001:0002437e       ?BindControls@COccManager@@IAEXPAVCWnd@@@Z 0042537e f   uafxcw:occmgr.obj
 0001:000244b3       ?CreateContainer@COccManager@@UAEPAVCOleControlContainer@@PAVCWnd@@@Z 004254b3 f   uafxcw:occmgr.obj
 0001:000244e8       ?CreateDlgControl@COccManager@@IAEHPAVCWnd@@PAUHWND__@@HPAUDLGITEMTEMPLATE@@GPAEKPAPAU3@@Z 004254e8 f   uafxcw:occmgr.obj
 0001:00024810       ?CreateDlgControls@COccManager@@UAEHPAVCWnd@@PAXPAU_AFX_OCC_DIALOG_INFO@@@Z 00425810 f   uafxcw:occmgr.obj
 0001:0002498b       ?CreateDlgControls@COccManager@@UAEHPAVCWnd@@PB_WPAU_AFX_OCC_DIALOG_INFO@@@Z 0042598b f   uafxcw:occmgr.obj
 0001:00024a1d       ?CreateObject@?$CProcessLocal@VCControlSiteFactoryMgr@@@@SGPAVCNoTrackObject@@XZ 00425a1d f i uafxcw:occmgr.obj
 0001:00024a49       ?CreateObject@?$CProcessLocal@VCOccManager@@@@SGPAVCNoTrackObject@@XZ 00425a49 f i uafxcw:occmgr.obj
 0001:00024a5e       ?CreateSite@CControlSiteFactoryMgr@@QAEPAVCOleControlSite@@PAVCOleControlContainer@@ABVCControlCreationInfo@@@Z 00425a5e f   uafxcw:occmgr.obj
 0001:00024aa0       ?CreateSite@COccManager@@UAEPAVCOleControlSite@@PAVCOleControlContainer@@ABVCControlCreationInfo@@@Z 00425aa0 f   uafxcw:occmgr.obj
 0001:00024b05       ?CreateSite@COleControlSiteFactory@@UAEPAVCOleControlSite@@PAVCOleControlContainer@@ABVCControlCreationInfo@@@Z 00425b05 f i uafxcw:occmgr.obj
 0001:00024b3a       ?Find@?$CList@II@@QBEPAU__POSITION@@IPAU2@@Z 00425b3a f i uafxcw:afxtoolbarimages.obj
 0001:00024b3a       ?Find@?$CList@PAUHWND__@@PAU1@@@QBEPAU__POSITION@@PAUHWND__@@PAU2@@Z 00425b3a f i uafxcw:afxtooltipmanager.obj
 0001:00024b3a       ?Find@?$CList@PAVIControlSiteFactory@@PAV1@@@QBEPAU__POSITION@@PAVIControlSiteFactory@@PAU2@@Z 00425b3a f i uafxcw:occmgr.obj
 0001:00024b6c       ?OnEvent@COccManager@@UAEHPAVCCmdTarget@@IPAUAFX_EVENT@@PAUAFX_CMDHANDLERINFO@@@Z 00425b6c f   uafxcw:occmgr.obj
 0001:00024b84       ?PostCreateDialog@COccManager@@UAEXPAU_AFX_OCC_DIALOG_INFO@@@Z 00425b84 f   uafxcw:occmgr.obj
 0001:00024bc6       ?PreCreateDialog@COccManager@@UAEPBUDLGTEMPLATE@@PAU_AFX_OCC_DIALOG_INFO@@PBU2@@Z 00425bc6 f   uafxcw:occmgr.obj
 0001:00024d25       ?RegisterSiteFactory@CControlSiteFactoryMgr@@QAEHPAVIControlSiteFactory@@@Z 00425d25 f   uafxcw:occmgr.obj
 0001:00024d59       ?SplitDialogTemplate@COccManager@@UAEPAUDLGTEMPLATE@@PBU2@PAPAUDLGITEMTEMPLATE@@@Z 00425d59 f   uafxcw:occmgr.obj
 0001:00024ef1       ?_AfxFindFirstDlgItem@@YGPAUDLGITEMTEMPLATE@@PBUDLGTEMPLATE@@@Z 00425ef1 f   uafxcw:occmgr.obj
 0001:00024f97       ?_AfxFindNextDlgItem@@YGPAUDLGITEMTEMPLATE@@PAU1@H@Z 00425f97 f   uafxcw:occmgr.obj
 0001:00024ffb       ??$AtlAdd@K@ATL@@YAJPAKKK@Z 00425ffb f i uafxcw:sockcore.obj
 0001:0002501e       ??$AtlAddThrow@K@ATL@@YAKKK@Z 0042601e f i uafxcw:sockcore.obj
 0001:00025044       ??1_AFX_SOCK_STATE@@UAE@XZ 00426044 f   uafxcw:sockcore.obj
 0001:00025091       ??_E_AFX_SOCK_STATE@@UAEPAXI@Z 00426091 f i uafxcw:sockcore.obj
 0001:00025091       ??_G_AFX_SOCK_STATE@@UAEPAXI@Z 00426091 f i uafxcw:sockcore.obj
 0001:000250c1       ?AfxSocketInit@@YGHPAUWSAData@@@Z 004260c1 f   uafxcw:sockcore.obj
 0001:000251db       ?AfxSocketTerm@@YGXXZ      004261db f   uafxcw:sockcore.obj
 0001:00025218       ?Allocate@?$CAtlSafeAllocBufferManager@VCCRTAllocator@ATL@@@_ATL_SAFE_ALLOCA_IMPL@ATL@@QAEPAXK@Z 00426218 f i uafxcw:sockcore.obj
 0001:00025245       ?CreateObject@?$CProcessLocal@V_AFX_SOCK_STATE@@@@SGPAVCNoTrackObject@@XZ 00426245 f i uafxcw:sockcore.obj
 0001:0002525a       ?SetFilePath@CFile@@UAEXPB_W@Z 0042625a f i uafxcw:sockcore.obj
 0001:00025286       ?_AtlVerifyStackAvailable@_ATL_SAFE_ALLOCA_IMPL@ATL@@YA_NK@Z 00426286 f i uafxcw:sockcore.obj
 0001:00025304       ??$AtlAdd@H@ATL@@YAJPAHHH@Z 00426304 f i uafxcw:doccore.obj
 0001:0002532a       ??$AtlAddThrow@H@ATL@@YAHHH@Z 0042632a f i uafxcw:doccore.obj
 0001:00025350       ??0CDocument@@QAE@XZ       00426350 f   uafxcw:doccore.obj
 0001:00025455       ??0CFileException@@QAE@HJPB_W@Z 00426455 f i uafxcw:doccore.obj
 0001:000254b0       ??0CMirrorFile@@QAE@XZ     004264b0 f i uafxcw:doccore.obj
 0001:000254d2       ??1CDocument@@UAE@XZ       004264d2 f   uafxcw:doccore.obj
 0001:000255c2       ??1CFileException@@UAE@XZ  004265c2 f i uafxcw:doccore.obj
 0001:000255d3       ??1CMirrorFile@@UAE@XZ     004265d3 f i uafxcw:doccore.obj
 0001:000255e9       ??4?$CComPtr@UIRowset@@@ATL@@QAEPAUIRowset@@PAU2@@Z 004265e9 f i uafxcw:occsite.obj
 0001:000255e9       ??4?$CComPtr@UIUnknown@@@ATL@@QAEPAUIUnknown@@PAU2@@Z 004265e9 f i uafxcw:doccore.obj
 0001:00025658       ??_ECFileException@@UAEPAXI@Z 00426658 f i uafxcw:doccore.obj
 0001:00025658       ??_GCFileException@@UAEPAXI@Z 00426658 f i uafxcw:doccore.obj
 0001:00025694       ??_ECMirrorFile@@UAEPAXI@Z 00426694 f i uafxcw:doccore.obj
 0001:00025694       ??_GCMirrorFile@@UAEPAXI@Z 00426694 f i uafxcw:doccore.obj
 0001:000256c4       ?Abort@CMirrorFile@@UAEXXZ 004266c4 f   uafxcw:doccore.obj
 0001:000256df       ?AddRef@XInitializeWithStream@CDocument@@UAGKXZ 004266df f   uafxcw:doccore.obj
 0001:00025711       ?AddRef@XObjectWithSite@CDocument@@UAGKXZ 00426711 f   uafxcw:doccore.obj
 0001:00025743       ?AddRef@XOleWindow@CDocument@@UAGKXZ 00426743 f   uafxcw:doccore.obj
 0001:00025775       ?AddRef@XPreviewHandler@CDocument@@UAGKXZ 00426775 f   uafxcw:doccore.obj
 0001:000257a7       ?AddRef@XPreviewHandlerVisuals@CDocument@@UAGKXZ 004267a7 f   uafxcw:doccore.obj
 0001:000257d9       ?AddView@CDocument@@QAEXPAVCView@@@Z 004267d9 f   uafxcw:doccore.obj
 0001:00025809       ?AfxGetTempFileName@@YAXPB_W0PA_WI@Z 00426809 f   uafxcw:doccore.obj
 0001:0002585e       ?BeginReadChunks@CDocument@@UAEXXZ 0042685e f   uafxcw:doccore.obj
 0001:00025868       ?CanCloseFrame@CDocument@@UAEHPAVCFrameWnd@@@Z 00426868 f   uafxcw:doccore.obj
 0001:000258d6       ?ClearChunkList@CDocument@@UAEXXZ 004268d6 f   uafxcw:doccore.obj
 0001:00025926       ?ClearPathName@CDocument@@UAEXXZ 00426926 f   uafxcw:doccore.obj
 0001:0002592e       ?Close@CMirrorFile@@UAEXXZ 0042692e f   uafxcw:doccore.obj
 0001:00025992       ?AdjustRect@XOleIPSite@COleControlSite@@UAGJPAUtagRECT@@@Z 00426992 f   uafxcw:occsite.obj
 0001:00025992       ?ContextSensitiveHelp@XOleWindow@CDocument@@UAGJH@Z 00426992 f   uafxcw:doccore.obj
 0001:000259b8       ?CreateFontIndirectW@CFont@@QAEHPBUtagLOGFONTW@@@Z 004269b8 f i uafxcw:doccore.obj
 0001:000259d4       ?DisconnectViews@CDocument@@QAEXXZ 004269d4 f   uafxcw:doccore.obj
 0001:000259f6       ?DoFileSave@CDocument@@UAEHXZ 004269f6 f   uafxcw:doccore.obj
 0001:00025a48       ?DoPreview@XPreviewHandler@CDocument@@UAGJXZ 00426a48 f   uafxcw:doccore.obj
 0001:00025b75       ?DoSave@CDocument@@UAEHPB_WH@Z 00426b75 f   uafxcw:doccore.obj
 0001:00025df6       ?FindChunk@CDocument@@UAEPAU__POSITION@@ABU_GUID@@K@Z 00426df6 f   uafxcw:doccore.obj
 0001:00025e73       ?GetFile@CDocument@@UAEPAVCFile@@PB_WIPAVCFileException@@@Z 00426e73 f   uafxcw:doccore.obj
 0001:00025ee0       ?GetFirstViewPosition@CDocument@@UBEPAU__POSITION@@XZ 00426ee0 f   uafxcw:doccore.obj
 0001:00025ee4       ?GetInterfaceMap@CDocument@@MBEPBUAFX_INTERFACEMAP@@XZ 00426ee4 f   uafxcw:doccore.obj
 0001:00025eea       ?GetNextView@CDocument@@UBEPAVCView@@AAPAU__POSITION@@@Z 00426eea f   uafxcw:doccore.obj
 0001:00025f06       ?GetSite@XObjectWithSite@CDocument@@UAGJABU_GUID@@PAPAX@Z 00426f06 f   uafxcw:doccore.obj
 0001:00025f5f       ?GetThisMessageMap@CDocument@@KGPBUAFX_MSGMAP@@XZ 00426f5f f   uafxcw:doccore.obj
 0001:00025f65       ?GetThumbnail@CDocument@@UAEHIPAPAUHBITMAP__@@PAW4WTS_ALPHATYPE@@@Z 00426f65 f   uafxcw:doccore.obj
 0001:000260ad       ?GetWindow@XOleWindow@CDocument@@UAGJPAPAUHWND__@@@Z 004270ad f   uafxcw:doccore.obj
 0001:000260e7       ?Initialize@XInitializeWithStream@CDocument@@UAGJPAUIStream@@K@Z 004270e7 f   uafxcw:doccore.obj
 0001:00026157       ?IsSearchAndOrganizeHandler@CDocument@@QBEHXZ 00427157 f   uafxcw:doccore.obj
 0001:00026175       ?LoadDocumentFromStream@CDocument@@UAEJPAUIStream@@K@Z 00427175 f   uafxcw:doccore.obj
 0001:0002619c       ?Mid@?$CStringT@_WV?$StrTraitMFC@_WV?$ChTraitsCRT@_W@ATL@@@@@ATL@@QBE?AV12@HH@Z 0042719c f i uafxcw:doccore.obj
 0001:0002621e       ?OnChangedViewList@CDocument@@UAEXXZ 0042721e f   uafxcw:doccore.obj
 0001:00026252       ?OnCloseDocument@CDocument@@UAEXXZ 00427252 f   uafxcw:doccore.obj
 0001:00026317       ?OnCmdMsg@CDocument@@UAEHIHPAXPAUAFX_CMDHANDLERINFO@@@Z 00427317 f   uafxcw:doccore.obj
 0001:0002636c       ?OnCreatePreviewFrame@CDocument@@UAEHXZ 0042736c f   uafxcw:doccore.obj
 0001:00026497       ?OnDocumentEvent@CDocument@@UAEXW4DocumentEvent@1@@Z 00427497 f   uafxcw:doccore.obj
 0001:00026518       ?OnFileClose@CDocument@@IAEXXZ 00427518 f   uafxcw:doccore.obj
 0001:0002654b       ?OnFileSave@CDocument@@IAEXXZ 0042754b f   uafxcw:doccore.obj
 0001:00026566       ?OnFileSaveAs@CDocument@@IAEXXZ 00427566 f   uafxcw:doccore.obj
 0001:00026585       ?OnFinalRelease@CDocument@@UAEXXZ 00427585 f   uafxcw:doccore.obj
 0001:000265c5       ?OnIdle@CDocument@@UAEXXZ  004275c5 f   uafxcw:doccore.obj
 0001:0002661d       ?OnLoadDocumentFromStream@CDocument@@UAEJPAUIStream@@K@Z 0042761d f   uafxcw:doccore.obj
 0001:000266c7       ?OnNewDocument@CDocument@@UAEHXZ 004276c7 f   uafxcw:doccore.obj
 0001:00026713       ?OnOpenDocument@CDocument@@UAEHPB_W@Z 00427713 f   uafxcw:doccore.obj
 0001:00026948       ?OnPreviewHandlerQueryFocus@CDocument@@UAEJPAPAUHWND__@@@Z 00427948 f   uafxcw:doccore.obj
 0001:00026984       ?OnPreviewHandlerTranslateAccelerator@CDocument@@UAEJPAUtagMSG@@@Z 00427984 f   uafxcw:doccore.obj
 0001:000269ad       ?OnRichPreviewUnload@CDocument@@UAEXXZ 004279ad f   uafxcw:doccore.obj
 0001:00026a61       ?OnSaveDocument@CDocument@@UAEHPB_W@Z 00427a61 f   uafxcw:doccore.obj
 0001:00026c4d       ?Open@CMirrorFile@@UAEHPB_WIPAVCFileException@@@Z 00427c4d f   uafxcw:doccore.obj
 0001:00026ec0       ?QueryFocus@XPreviewHandler@CDocument@@UAGJPAPAUHWND__@@@Z 00427ec0 f   uafxcw:doccore.obj
 0001:00026f08       ?QueryInterface@XInitializeWithStream@CDocument@@UAGJABU_GUID@@PAPAX@Z 00427f08 f   uafxcw:doccore.obj
 0001:00026f40       ?QueryInterface@XObjectWithSite@CDocument@@UAGJABU_GUID@@PAPAX@Z 00427f40 f   uafxcw:doccore.obj
 0001:00026f78       ?QueryInterface@XOleWindow@CDocument@@UAGJABU_GUID@@PAPAX@Z 00427f78 f   uafxcw:doccore.obj
 0001:00026fb0       ?QueryInterface@XPreviewHandler@CDocument@@UAGJABU_GUID@@PAPAX@Z 00427fb0 f   uafxcw:doccore.obj
 0001:00026fe8       ?QueryInterface@XPreviewHandlerVisuals@CDocument@@UAGJABU_GUID@@PAPAX@Z 00427fe8 f   uafxcw:doccore.obj
 0001:00027020       ?ReadNextChunkValue@CDocument@@UAEHPAPAUIFilterChunkValue@ATL@@@Z 00428020 f   uafxcw:doccore.obj
 0001:0002704f       ?Release@XInitializeWithStream@CDocument@@UAGKXZ 0042804f f   uafxcw:doccore.obj
 0001:00027081       ?Release@XObjectWithSite@CDocument@@UAGKXZ 00428081 f   uafxcw:doccore.obj
 0001:000270b3       ?Release@XOleWindow@CDocument@@UAGKXZ 004280b3 f   uafxcw:doccore.obj
 0001:000270e5       ?Release@XPreviewHandler@CDocument@@UAGKXZ 004280e5 f   uafxcw:doccore.obj
 0001:00027117       ?Release@XPreviewHandlerVisuals@CDocument@@UAGKXZ 00428117 f   uafxcw:doccore.obj
 0001:00027149       ?ReleaseFile@CDocument@@UAEXPAVCFile@@H@Z 00428149 f   uafxcw:doccore.obj
 0001:00027190       ?RemoveChunk@CDocument@@UAEXABU_GUID@@K@Z 00428190 f   uafxcw:doccore.obj
 0001:000271d2       ?RemoveView@CDocument@@QAEXPAVCView@@@Z 004281d2 f   uafxcw:doccore.obj
 0001:00027210       ?ReportSaveLoadException@CDocument@@UAEXPB_WPAVCException@@HI@Z 00428210 f   uafxcw:doccore.obj
 0001:000273a1       ?SaveModified@CDocument@@UAEHXZ 004283a1 f   uafxcw:doccore.obj
 0001:00027543       ?SendInitialUpdate@CDocument@@QAEXXZ 00428543 f   uafxcw:doccore.obj
 0001:0002759a       ?SetBackgroundColor@XPreviewHandlerVisuals@CDocument@@UAGJK@Z 0042859a f   uafxcw:doccore.obj
 0001:000275e3       ?SetChunkValue@CDocument@@UAEHPAUIFilterChunkValue@ATL@@@Z 004285e3 f   uafxcw:doccore.obj
 0001:00027669       ?SetFocus@XPreviewHandler@CDocument@@UAGJXZ 00428669 f   uafxcw:doccore.obj
 0001:000276aa       ?SetFont@XPreviewHandlerVisuals@CDocument@@UAGJPBUtagLOGFONTW@@@Z 004286aa f   uafxcw:doccore.obj
 0001:00027729       ?SetPathName@CDocument@@UAEXPB_WH@Z 00428729 f   uafxcw:doccore.obj
 0001:00027812       ?SetRect@XPreviewHandler@CDocument@@UAGJPBUtagRECT@@@Z 00428812 f   uafxcw:doccore.obj
 0001:00027882       ?SetSite@XObjectWithSite@CDocument@@UAGJPAUIUnknown@@@Z 00428882 f   uafxcw:doccore.obj
 0001:00027908       ?SetTextColor@XPreviewHandlerVisuals@CDocument@@UAGJK@Z 00428908 f   uafxcw:doccore.obj
 0001:00027951       ?SetTitle@CDocument@@UAEXPB_W@Z 00428951 f   uafxcw:doccore.obj
 0001:00027990       ?SetWindow@XPreviewHandler@CDocument@@UAGJPAUHWND__@@PBUtagRECT@@@Z 00428990 f   uafxcw:doccore.obj
 0001:000279ce       ?Tokenize@?$CStringT@_WV?$StrTraitMFC@_WV?$ChTraitsCRT@_W@ATL@@@@@ATL@@QBE?AV12@PB_WAAH@Z 004289ce f i uafxcw:doccore.obj
 0001:00027a97       ?TranslateAcceleratorW@XPreviewHandler@CDocument@@UAGJPAUtagMSG@@@Z 00428a97 f   uafxcw:doccore.obj
 0001:00027adf       ?Unload@XPreviewHandler@CDocument@@UAGJXZ 00428adf f   uafxcw:doccore.obj
 0001:00027b22       ?UpdateAllViews@CDocument@@QAEXPAVCView@@JPAVCObject@@@Z 00428b22 f   uafxcw:doccore.obj
 0001:00027b89       ?UpdateFrameCounts@CDocument@@UAEXXZ 00428b89 f   uafxcw:doccore.obj
 0001:00027cd9       ?AfxClassInit@@YGXPAUCRuntimeClass@@@Z 00428cd9 f   uafxcw:objcore.obj
 0001:00027d02       ?AfxDynamicDownCast@@YAPAVCObject@@PAUCRuntimeClass@@PAV1@@Z 00428d02 f   uafxcw:objcore.obj
 0001:00027d23       ?CreateObject@CRuntimeClass@@QAEPAVCObject@@XZ 00428d23 f   uafxcw:objcore.obj
 0001:00027d71       ?GetRuntimeClass@CObject@@UBEPAUCRuntimeClass@@XZ 00428d71 f   uafxcw:objcore.obj
 0001:00027d77       ?IsDerivedFrom@CRuntimeClass@@QBEHPBU1@@Z 00428d77 f   uafxcw:objcore.obj
 0001:00027da1       ?IsKindOf@CObject@@QBEHPBUCRuntimeClass@@@Z 00428da1 f   uafxcw:objcore.obj
 0001:00027dd0       ??0CArchiveException@@QAE@HPB_W@Z 00428dd0 f i uafxcw:arcex.obj
 0001:00027e25       ??_ECArchiveException@@UAEPAXI@Z 00428e25 f i uafxcw:arcex.obj
 0001:00027e25       ??_GCArchiveException@@UAEPAXI@Z 00428e25 f i uafxcw:arcex.obj
 0001:00027e61       ?AfxThrowArchiveException@@YGXHPB_W@Z 00428e61 f   uafxcw:arcex.obj
 0001:00027ea3       ?GetErrorMessage@CArchiveException@@UBEHPA_WIPAI@Z 00428ea3 f   uafxcw:arcex.obj
 0001:00027f67       ?GetRuntimeClass@CArchiveException@@UBEPAUCRuntimeClass@@XZ 00428f67 f   uafxcw:arcex.obj
 0001:00027f6d       ??0CArchive@@QAE@PAVCFile@@IHPAX@Z 00428f6d f   uafxcw:arccore.obj
 0001:000280a0       ??1CArchive@@QAE@XZ        004290a0 f   uafxcw:arccore.obj
 0001:000280ff       ??5CArchive@@QAEAAV0@AAE@Z 004290ff f i uafxcw:arccore.obj
 0001:00028147       ??5CArchive@@QAEAAV0@AAG@Z 00429147 f i uafxcw:arccore.obj
 0001:00028194       ??5CArchive@@QAEAAV0@AAJ@Z 00429194 f i uafxcw:olevar.obj
 0001:00028194       ??5CArchive@@QAEAAV0@AAK@Z 00429194 f i uafxcw:arccore.obj
 0001:000281df       ??5CArchive@@QAEAAV0@AA_K@Z 004291df f i uafxcw:arccore.obj
 0001:00028230       ??6CArchive@@QAEAAV0@E@Z   00429230 f i uafxcw:arccore.obj
 0001:00028270       ??6CArchive@@QAEAAV0@G@Z   00429270 f i uafxcw:arccore.obj
 0001:000282b5       ??6CArchive@@QAEAAV0@J@Z   004292b5 f i uafxcw:olevar.obj
 0001:000282b5       ??6CArchive@@QAEAAV0@K@Z   004292b5 f i uafxcw:arccore.obj
 0001:000282f8       ??6CArchive@@QAEAAV0@_K@Z  004292f8 f i uafxcw:arccore.obj
 0001:00028341       ?Abort@CArchive@@QAEXXZ    00429341 f   uafxcw:arccore.obj
 0001:000283d4       ?AfxReadStringLength@@YGIAAVCArchive@@AAH@Z 004293d4 f   uafxcw:arccore.obj
 0001:0002848e       ?AfxWriteStringLength@@YGXAAVCArchive@@IH@Z 0042948e f   uafxcw:arccore.obj
 0001:00028510       ?Close@CArchive@@QAEXXZ    00429510 f   uafxcw:arccore.obj
 0001:0002851e       ?FillBuffer@CArchive@@QAEXI@Z 0042951e f   uafxcw:arccore.obj
 0001:00028665       ?Flush@CArchive@@QAEXXZ    00429665 f   uafxcw:arccore.obj
 0001:0002870d       ?FromName@CRuntimeClass@@SGPAU1@PBD@Z 0042970d f   uafxcw:arccore.obj
 0001:0002875e       ?Load@CRuntimeClass@@SGPAU1@AAVCArchive@@PAI@Z 0042975e f   uafxcw:arccore.obj
 0001:000287e3       ?Read@CArchive@@QAEIPAXI@Z 004297e3 f   uafxcw:arccore.obj
 0001:0002898c       ?ReadCount@CArchive@@QAEKXZ 0042998c f   uafxcw:arccore.obj
 0001:000289c0       ?Store@CRuntimeClass@@QBEXAAVCArchive@@@Z 004299c0 f   uafxcw:arccore.obj
 0001:00028a01       ?Write@CArchive@@QAEXPBXI@Z 00429a01 f   uafxcw:arccore.obj
 0001:00028b08       ?WriteCount@CArchive@@QAEXK@Z 00429b08 f   uafxcw:arccore.obj
 0001:00028b37       ?Create@CPlex@@SGPAU1@AAPAU1@II@Z 00429b37 f   uafxcw:plex.obj
 0001:00028b68       ?FreeDataChain@CPlex@@QAEXXZ 00429b68 f   uafxcw:plex.obj
 0001:00028b7e       ??0CPushRoutingView@@QAE@PAVCView@@@Z 00429b7e f i uafxcw:viewcore.obj
 0001:00028bbc       ??0CView@@IAE@XZ           00429bbc f   uafxcw:viewcore.obj
 0001:00028bde       ??1CPushRoutingView@@QAE@XZ 00429bde f i uafxcw:viewcore.obj
 0001:00028bfc       ??1CView@@UAE@XZ           00429bfc f   uafxcw:viewcore.obj
 0001:00028d51       ??_9CView@@$BBIM@AE        00429d51 f i uafxcw:viewcore.obj
 0001:00028d60       ?GetParentSplitter@CView@@SGPAVCSplitterWnd@@PBVCWnd@@H@Z 00429d60 f   uafxcw:viewcore.obj
 0001:00028dc9       ?GetScrollBarCtrl@CView@@UBEPAVCScrollBar@@H@Z 00429dc9 f   uafxcw:viewcore.obj
 0001:00028e3a       ?GetThisMessageMap@CView@@KGPBUAFX_MSGMAP@@XZ 00429e3a f   uafxcw:viewcore.obj
 0001:00028e40       ?OnActivateView@CView@@MAEXHPAV1@0@Z 00429e40 f   uafxcw:viewcore.obj
 0001:00028e61       ?OnCmdMsg@CView@@UAEHIHPAXPAUAFX_CMDHANDLERINFO@@@Z 00429e61 f   uafxcw:viewcore.obj
 0001:00028eda       ?OnCreate@CView@@IAEHPAUtagCREATESTRUCTW@@@Z 00429eda f   uafxcw:viewcore.obj
 0001:00028f0b       ?OnDestroy@CView@@IAEXXZ   00429f0b f   uafxcw:viewcore.obj
 0001:00028f39       ?OnDragScroll@CView@@UAEKKVCPoint@@@Z 00429f39 f   uafxcw:viewcore.obj
 0001:00028f41       ?OnDropEx@CView@@UAEKPAVCOleDataObject@@KKVCPoint@@@Z 00429f41 f   uafxcw:viewcore.obj
 0001:00028f47       ?OnEndPrintPreview@CView@@MAEXPAVCDC@@PAUCPrintInfo@@UtagPOINT@@PAVCPreviewView@@@Z 00429f47 f   uafxcw:viewcore.obj
 0001:0002903d       ?OnInitialUpdate@CView@@UAEXXZ 0042a03d f   uafxcw:viewcore.obj
 0001:0002905d       ?OnMouseActivate@CView@@IAEHPAVCWnd@@II@Z 0042a05d f   uafxcw:viewcore.obj
 0001:000290d9       ?OnNextPaneCmd@CView@@IAEHI@Z 0042a0d9 f   uafxcw:viewcore.obj
 0001:00029116       ?OnPaint@CView@@IAEXXZ     0042a116 f   uafxcw:viewcore.obj
 0001:00029171       ?OnPrepareDC@CView@@UAEXPAVCDC@@PAUCPrintInfo@@@Z 0042a171 f   uafxcw:viewcore.obj
 0001:000291a1       ?OnPrint@CView@@MAEXPAVCDC@@PAUCPrintInfo@@@Z 0042a1a1 f   uafxcw:viewcore.obj
 0001:000291c5       ?OnPrintClient@CView@@IAEJPAVCDC@@I@Z 0042a1c5 f   uafxcw:viewcore.obj
 0001:00029211       ?OnSplitCmd@CView@@IAEHI@Z 0042a211 f   uafxcw:viewcore.obj
 0001:0002923d       ?OnUpdate@CView@@MAEXPAV1@JPAVCObject@@@Z 0042a23d f   uafxcw:viewcore.obj
 0001:0002924d       ?OnUpdateNextPaneMenu@CView@@IAEXPAVCCmdUI@@@Z 0042a24d f   uafxcw:viewcore.obj
 0001:000292ad       ?OnUpdateSplitCmd@CView@@IAEXPAVCCmdUI@@@Z 0042a2ad f   uafxcw:viewcore.obj
 0001:000292ee       ?Pop@CPushRoutingView@@QAEXXZ 0042a2ee f i uafxcw:viewcore.obj
 0001:00029310       ?PreCreateWindow@CView@@MAEHAAUtagCREATESTRUCTW@@@Z 0042a310 f   uafxcw:viewcore.obj
 0001:0002934c       ??0CImage@ATL@@QAE@XZ      0042a34c f i uafxcw:viewscrl.obj
 0001:0002938e       ??0CInitGDIPlus@CImage@ATL@@QAE@XZ 0042a38e f i uafxcw:viewscrl.obj
 0001:000293c3       ??0CScrollView@@IAE@XZ     0042a3c3 f   uafxcw:viewscrl.obj
 0001:00029427       ??0_AFX_MOUSEANCHORWND@@QAE@AAVCPoint@@@Z 0042a427 f   uafxcw:viewscrl.obj
 0001:00029477       ??1CImage@ATL@@UAE@XZ      0042a477 f i uafxcw:viewscrl.obj
 0001:0002949b       ??1CScrollView@@UAE@XZ     0042a49b f   uafxcw:viewscrl.obj
 0001:0002951c       ??_ECImage@ATL@@UAEPAXI@Z  0042a51c f i uafxcw:viewscrl.obj
 0001:0002951c       ??_GCImage@ATL@@UAEPAXI@Z  0042a51c f i uafxcw:viewscrl.obj
 0001:0002953e       ??_ECScrollView@@UAEPAXI@Z 0042a53e f i uafxcw:viewscrl.obj
 0001:0002953e       ??_GCScrollView@@UAEPAXI@Z 0042a53e f i uafxcw:viewscrl.obj
 0001:00029571       ??_E_AFX_MOUSEANCHORWND@@UAEPAXI@Z 0042a571 f i uafxcw:viewscrl.obj
 0001:00029571       ??_G_AFX_MOUSEANCHORWND@@UAEPAXI@Z 0042a571 f i uafxcw:viewscrl.obj
 0001:000295aa       ?CalcWindowRect@CScrollView@@UAEXPAUtagRECT@@I@Z 0042a5aa f   uafxcw:viewscrl.obj
 0001:0002964b       ?CenterOnPoint@CScrollView@@IAEXVCPoint@@@Z 0042a64b f   uafxcw:viewscrl.obj
 0001:0002970d       ?CheckScrollBars@CScrollView@@QBEXAAH0@Z 0042a70d f   uafxcw:viewscrl.obj
 0001:00029794       ?Create@_AFX_MOUSEANCHORWND@@QAEHPAVCScrollView@@@Z 0042a794 f   uafxcw:viewscrl.obj
 0001:000298d3       ?CreateEx@CImage@ATL@@QAEHHHHKPBKK@Z 0042a8d3 f i uafxcw:viewscrl.obj
 0001:00029a14       ?DecreaseCImageCount@CInitGDIPlus@CImage@ATL@@QAEXXZ 0042aa14 f i uafxcw:viewscrl.obj
 0001:00029a39       ?Detach@CImage@ATL@@QAEPAUHBITMAP__@@XZ 0042aa39 f i uafxcw:viewscrl.obj
 0001:00029a5d       ?DoMouseWheel@CScrollView@@QAEHIFVCPoint@@@Z 0042aa5d f   uafxcw:viewscrl.obj
 0001:00029b38       ?Ellipse@CDC@@QAEHPBUtagRECT@@@Z 0042ab38 f i uafxcw:viewscrl.obj
 0001:00029b56       ?GetDeviceScrollPosition@CScrollView@@QBE?AVCPoint@@XZ 0042ab56 f   uafxcw:viewscrl.obj
 0001:00029b7f       ?GetInitGDIPlusInstance@CImage@ATL@@CAPAVCInitGDIPlus@12@XZ 0042ab7f f i uafxcw:viewscrl.obj
 0001:00029baf       ?GetMessageMap@CScrollView@@MBEPBUAFX_MSGMAP@@XZ 0042abaf f   uafxcw:viewscrl.obj
 0001:00029baf       ?GetThisMessageMap@CScrollView@@KGPBUAFX_MSGMAP@@XZ 0042abaf f   uafxcw:viewscrl.obj
 0001:00029bb5       ?GetMessageMap@_AFX_MOUSEANCHORWND@@MBEPBUAFX_MSGMAP@@XZ 0042abb5 f   uafxcw:viewscrl.obj
 0001:00029bbb       ?GetRuntimeClass@CScrollView@@UBEPAUCRuntimeClass@@XZ 0042abbb f   uafxcw:viewscrl.obj
 0001:00029bc1       ?GetScrollBarSizes@CScrollView@@IAEXAAVCSize@@@Z 0042abc1 f   uafxcw:viewscrl.obj
 0001:00029c48       ?GetScrollBarState@CScrollView@@IAEXVCSize@@AAV2@1AAVCPoint@@H@Z 0042ac48 f   uafxcw:viewscrl.obj
 0001:00029d13       ?GetTrueClientSize@CScrollView@@IAEHAAVCSize@@0@Z 0042ad13 f   uafxcw:viewscrl.obj
 0001:00029db7       ?GetWheelScrollDistance@CScrollView@@UAE?AVCSize@@V2@HH@Z 0042adb7 f   uafxcw:viewscrl.obj
 0001:00029ded       ?HandleMButtonDown@CScrollView@@QAEJIJ@Z 0042aded f   uafxcw:viewscrl.obj
 0001:00029f08       ?IncreaseCImageCount@CInitGDIPlus@CImage@ATL@@QAEXXZ 0042af08 f i uafxcw:viewscrl.obj
 0001:00029f23       ?OnHScroll@CScrollView@@QAEXIIPAVCScrollBar@@@Z 0042af23 f   uafxcw:viewscrl.obj
 0001:00029f7f       ?OnMouseWheel@CScrollView@@QAEHIFVCPoint@@@Z 0042af7f f   uafxcw:viewscrl.obj
 0001:00029fb3       ?OnPaint@_AFX_MOUSEANCHORWND@@QAEXXZ 0042afb3 f   uafxcw:viewscrl.obj
 0001:0002a03d       ?OnPrepareDC@CScrollView@@UAEXPAVCDC@@PAUCPrintInfo@@@Z 0042b03d f   uafxcw:viewscrl.obj
 0001:0002a16e       ?OnPrintClient@CScrollView@@QAEJPAVCDC@@I@Z 0042b16e f   uafxcw:viewscrl.obj
 0001:0002a2da       ?OnScroll@CScrollView@@UAEHIIH@Z 0042b2da f   uafxcw:viewscrl.obj
 0001:0002a3f0       ?OnScrollBy@CScrollView@@UAEHVCSize@@H@Z 0042b3f0 f   uafxcw:viewscrl.obj
 0001:0002a502       ?OnSize@CScrollView@@QAEXIHH@Z 0042b502 f   uafxcw:viewscrl.obj
 0001:0002a531       ?OnTimer@_AFX_MOUSEANCHORWND@@QAEXI@Z 0042b531 f   uafxcw:viewscrl.obj
 0001:0002a7a0       ?OnVScroll@CScrollView@@QAEXIIPAVCScrollBar@@@Z 0042b7a0 f   uafxcw:viewscrl.obj
 0001:0002a7ff       ?ReleaseGDIPlus@CInitGDIPlus@CImage@ATL@@QAEXXZ 0042b7ff f i uafxcw:viewscrl.obj
 0001:0002a826       ?ResizeParentToFit@CScrollView@@QAEXH@Z 0042b826 f   uafxcw:viewscrl.obj
 0001:0002a99b       ?ScrollToDevicePosition@CScrollView@@IAEXUtagPOINT@@@Z 0042b99b f   uafxcw:viewscrl.obj
 0001:0002a9ed       ?SetBitmap@_AFX_MOUSEANCHORWND@@QAEXI@Z 0042b9ed f   uafxcw:viewscrl.obj
 0001:0002aa1c       ?SetScaleToFitSize@CScrollView@@QAEXUtagSIZE@@@Z 0042ba1c f   uafxcw:viewscrl.obj
 0001:0002aad8       ?SetScrollSizes@CScrollView@@QAEXHUtagSIZE@@ABU2@1@Z 0042bad8 f   uafxcw:viewscrl.obj
 0001:0002ac53       ?SetViewportExt@CDC@@QAE?AVCSize@@UtagSIZE@@@Z 0042bc53 f i uafxcw:viewscrl.obj
 0001:0002ac7d       ?SetViewportOrg@CDC@@QAE?AVCPoint@@UtagPOINT@@@Z 0042bc7d f i uafxcw:viewscrl.obj
 0001:0002aca7       ?SetWindowExt@CDC@@QAE?AVCSize@@UtagSIZE@@@Z 0042bca7 f i uafxcw:viewscrl.obj
 0001:0002acd1       ?UpdateBars@CScrollView@@IAEXXZ 0042bcd1 f   uafxcw:viewscrl.obj
 0001:0002aea3       ?UpdateBitmapInfo@CImage@ATL@@AAEXW4DIBOrientation@12@@Z 0042bea3 f i uafxcw:viewscrl.obj
 0001:0002af62       ?WindowProc@_AFX_MOUSEANCHORWND@@UAEJIIJ@Z 0042bf62 f   uafxcw:viewscrl.obj
 0001:0002b013       ?_AfxGetMouseScrollLines@@YGIXZ 0042c013 f   uafxcw:viewscrl.obj
 0001:0002b047       ??0CFormView@@IAE@I@Z      0042c047 f   uafxcw:viewform.obj
 0001:0002b091       ??1CFormView@@UAE@XZ       0042c091 f   uafxcw:viewform.obj
 0001:0002b210       ??_ECFormView@@UAEPAXI@Z   0042c210 f i uafxcw:viewform.obj
 0001:0002b210       ??_GCFormView@@UAEPAXI@Z   0042c210 f i uafxcw:viewform.obj
 0001:0002b243       ?Create@CFormView@@MAEHPB_W0KABUtagRECT@@PAVCWnd@@IPAUCCreateContext@@@Z 0042c243 f   uafxcw:viewform.obj
 0001:0002b39c       ?GetMessageMap@CFormView@@MBEPBUAFX_MSGMAP@@XZ 0042c39c f   uafxcw:viewform.obj
 0001:0002b39c       ?GetThisMessageMap@CFormView@@KGPBUAFX_MSGMAP@@XZ 0042c39c f   uafxcw:viewform.obj
 0001:0002b3a2       ?GetOccDialogInfo@CFormView@@MAEPAU_AFX_OCC_DIALOG_INFO@@XZ 0042c3a2 f   uafxcw:viewform.obj
 0001:0002b46f       ?GetRuntimeClass@CFormView@@UBEPAUCRuntimeClass@@XZ 0042c46f f   uafxcw:viewform.obj
 0001:0002b475       ?HandleInitDialog@CFormView@@IAEJIJ@Z 0042c475 f   uafxcw:viewform.obj
 0001:0002b4c7       ?OnActivateFrame@CFormView@@MAEXIPAVCFrameWnd@@@Z 0042c4c7 f   uafxcw:viewform.obj
 0001:0002b4d9       ?OnActivateView@CFormView@@MAEXHPAVCView@@0@Z 0042c4d9 f   uafxcw:viewform.obj
 0001:0002b4fd       ?OnCreate@CFormView@@IAEHPAUtagCREATESTRUCTW@@@Z 0042c4fd f   uafxcw:viewform.obj
 0001:0002b515       ?OnDraw@CFormView@@MAEXPAVCDC@@@Z 0042c515 f   uafxcw:viewform.obj
 0001:0002b51e       ?OnInitialUpdate@CFormView@@UAEXXZ 0042c51e f   uafxcw:viewform.obj
 0001:0002b53a       ?OnPrintClient@CFormView@@IAEJPAVCDC@@I@Z 0042c53a f   uafxcw:viewform.obj
 0001:0002b543       ?OnSetFocus@CFormView@@IAEXPAVCWnd@@@Z 0042c543 f   uafxcw:viewform.obj
 0001:0002b589       ?PreTranslateMessage@CFormView@@MAEHPAUtagMSG@@@Z 0042c589 f   uafxcw:viewform.obj
 0001:0002b606       ?SaveFocusControl@CFormView@@IAEHXZ 0042c606 f   uafxcw:viewform.obj
 0001:0002b634       ?SetOccDialogInfo@CFormView@@MAEHPAU_AFX_OCC_DIALOG_INFO@@@Z 0042c634 f   uafxcw:viewform.obj
 0001:0002b647       ??1CDCCache@CImage@ATL@@QAE@XZ 0042c647 f i uafxcw:stdafx.obj
 0001:0002b665       ?GetCDCCacheInstance@CImage@ATL@@CAPAVCDCCache@12@XZ 0042c665 f i uafxcw:stdafx.obj
 0001:0002b695       _IsolationAwareUnregisterClassW@8 0042c695 f i uafxcw:stdafx.obj
 0001:0002b746       ??0CThreadSlotData@@QAE@XZ 0042c746 f   uafxcw:afxtls.obj
 0001:0002b786       ??1CProcessLocalObject@@QAE@XZ 0042c786 f   uafxcw:afxtls.obj
 0001:0002b7b5       ??1CThreadLocalObject@@QAE@XZ 0042c7b5 f   uafxcw:afxtls.obj
 0001:0002b7d3       ??1CThreadSlotData@@QAE@XZ 0042c7d3 f   uafxcw:afxtls.obj
 0001:0002b861       ??2CNoTrackObject@@SGPAXI@Z 0042c861 f   uafxcw:afxtls.obj
 0001:0002b87d       ??3CNoTrackObject@@SGXPAX@Z 0042c87d f   uafxcw:afxtls.obj
 0001:0002b891       ??_ECThreadData@@UAEPAXI@Z 0042c891 f i uafxcw:afxtls.obj
 0001:0002b891       ??_GCThreadData@@UAEPAXI@Z 0042c891 f i uafxcw:afxtls.obj
 0001:0002b8c1       ?AddHead@CSimpleList@@QAEXPAX@Z 0042c8c1 f   uafxcw:afxtls.obj
 0001:0002b8e1       ?AfxTermLocalData@@YGXPAUHINSTANCE__@@H@Z 0042c8e1 f   uafxcw:afxtls.obj
 0001:0002b8f8       ?AfxTlsRelease@@YGXXZ      0042c8f8 f   uafxcw:afxtls.obj
 0001:0002b922       ?AllocSlot@CThreadSlotData@@QAEHXZ 0042c922 f   uafxcw:afxtls.obj
 0001:0002ba62       ?DeleteValues@CThreadSlotData@@QAEXPAUCThreadData@@PAUHINSTANCE__@@@Z 0042ca62 f   uafxcw:afxtls.obj
 0001:0002bb27       ?DeleteValues@CThreadSlotData@@QAEXPAUHINSTANCE__@@H@Z 0042cb27 f   uafxcw:afxtls.obj
 0001:0002bb81       ?FreeSlot@CThreadSlotData@@QAEXH@Z 0042cb81 f   uafxcw:afxtls.obj
 0001:0002bbfc       ?GetData@CProcessLocalObject@@QAEPAVCNoTrackObject@@P6GPAV2@XZ@Z 0042cbfc f   uafxcw:afxtls.obj
 0001:0002bc58       ?GetData@CThreadLocalObject@@QAEPAVCNoTrackObject@@P6GPAV2@XZ@Z 0042cc58 f   uafxcw:afxtls.obj
 0001:0002bce3       ?GetDataNA@CThreadLocalObject@@QAEPAVCNoTrackObject@@XZ 0042cce3 f   uafxcw:afxtls.obj
 0001:0002bcfd       ?GetThreadValue@CThreadSlotData@@QAEPAXH@Z 0042ccfd f i uafxcw:afxtls.obj
 0001:0002bd51       ?Remove@CSimpleList@@QAEHPAX@Z 0042cd51 f   uafxcw:afxtls.obj
 0001:0002bda4       ?SetValue@CThreadSlotData@@QAEXHPAX@Z 0042cda4 f   uafxcw:afxtls.obj
 0001:0002bed6       ??0AFX_MAINTAIN_STATE2@@QAE@PAVAFX_MODULE_STATE@@@Z 0042ced6 f   uafxcw:afxstate.obj
 0001:0002bedb       ??0AFX_MODULE_STATE@@QAE@H@Z 0042cedb f   uafxcw:afxstate.obj
 0001:0002bf7d       ??0AFX_MODULE_THREAD_STATE@@QAE@XZ 0042cf7d f   uafxcw:afxstate.obj
 0001:0002bfa4       ??0_AFX_THREAD_STATE@@QAE@XZ 0042cfa4 f   uafxcw:afxstate.obj
 0001:0002bfbb       ??1?$CThreadLocal@VAFX_MODULE_THREAD_STATE@@@@QAE@XZ 0042cfbb f i uafxcw:afxstate.obj
 0001:0002bfc0       ??1AFX_MODULE_STATE@@UAE@XZ 0042cfc0 f   uafxcw:afxstate.obj
 0001:0002c064       ??1AFX_MODULE_THREAD_STATE@@UAE@XZ 0042d064 f   uafxcw:afxstate.obj
 0001:0002c1bb       ??1_AFX_THREAD_STATE@@UAE@XZ 0042d1bb f   uafxcw:afxstate.obj
 0001:0002c1f3       ??_EAFX_MODULE_STATE@@UAEPAXI@Z 0042d1f3 f i uafxcw:afxstate.obj
 0001:0002c1f3       ??_E_AFX_BASE_MODULE_STATE@@UAEPAXI@Z 0042d1f3 f i uafxcw:afxstate.obj
 0001:0002c1f3       ??_GAFX_MODULE_STATE@@UAEPAXI@Z 0042d1f3 f i uafxcw:afxstate.obj
 0001:0002c1f3       ??_G_AFX_BASE_MODULE_STATE@@UAEPAXI@Z 0042d1f3 f i uafxcw:afxstate.obj
 0001:0002c226       ??_EAFX_MODULE_THREAD_STATE@@UAEPAXI@Z 0042d226 f i uafxcw:afxstate.obj
 0001:0002c226       ??_GAFX_MODULE_THREAD_STATE@@UAEPAXI@Z 0042d226 f i uafxcw:afxstate.obj
 0001:0002c256       ??_E_AFX_THREAD_STATE@@UAEPAXI@Z 0042d256 f i uafxcw:afxstate.obj
 0001:0002c256       ??_G_AFX_THREAD_STATE@@UAEPAXI@Z 0042d256 f i uafxcw:afxstate.obj
 0001:0002c289       ?AfxGetModuleState@@YGPAVAFX_MODULE_STATE@@XZ 0042d289 f   uafxcw:afxstate.obj
 0001:0002c2bc       ?AfxGetModuleThreadState@@YGPAVAFX_MODULE_THREAD_STATE@@XZ 0042d2bc f   uafxcw:afxstate.obj
 0001:0002c2d7       ?AfxGetPerUserRegistration@@YGHXZ 0042d2d7 f   uafxcw:afxstate.obj
 0001:0002c2dd       ?AfxGetThreadState@@YGPAV_AFX_THREAD_STATE@@XZ 0042d2dd f   uafxcw:afxstate.obj
 0001:0002c2f5       ?CreateObject@?$CProcessLocal@V_AFX_BASE_MODULE_STATE@@@@SGPAVCNoTrackObject@@XZ 0042d2f5 f i uafxcw:afxstate.obj
 0001:0002c333       ?Unlock@CTypeLibCache@@QAEXXZ 0042d333 f   uafxcw:afxstate.obj
 0001:0002c37a       ?AfxRegCreateKey@@YGJPAUHKEY__@@PB_WPAPAU1@PAVCAtlTransactionManager@ATL@@@Z 0042d37a f   uafxcw:ctlreg.obj
 0001:0002c41e       ?AfxRegOpenKeyEx@@YGJPAUHKEY__@@PB_WKKPAPAU1@PAVCAtlTransactionManager@ATL@@@Z 0042d41e f   uafxcw:ctlreg.obj
 0001:0002c4b8       ?AfxRegQueryValue@@YGJPAUHKEY__@@PB_WPA_WPAJ@Z 0042d4b8 f   uafxcw:ctlreg.obj
 0001:0002c53d       ?AfxRegSetValue@@YGJPAUHKEY__@@PB_WK1K@Z 0042d53d f   uafxcw:ctlreg.obj
 0001:0002c5c5       ?Create@CRegKey@ATL@@QAEJPAUHKEY__@@PB_WPA_WKKPAU_SECURITY_ATTRIBUTES@@PAK@Z 0042d5c5 f i uafxcw:ctlreg.obj
 0001:0002c663       ?Left@?$CStringT@_WV?$StrTraitMFC@_WV?$ChTraitsCRT@_W@ATL@@@@@ATL@@QBE?AV12@H@Z 0042d663 f i uafxcw:ctlreg.obj
 0001:0002c6a9       ?tcscpy_s@Checked@ATL@@YAXPA_WIPB_W@Z 0042d6a9 f i uafxcw:ctlreg.obj
 0001:0002c6c5       ?ExternalAddRef@CCmdTarget@@QAEKXZ 0042d6c5 f   uafxcw:oleunk.obj
 0001:0002c6e9       ?ExternalDisconnect@CCmdTarget@@QAEXXZ 0042d6e9 f   uafxcw:oleunk.obj
 0001:0002c70d       ?ExternalQueryInterface@CCmdTarget@@QAEKPBXPAPAX@Z 0042d70d f   uafxcw:oleunk.obj
 0001:0002c738       ?ExternalRelease@CCmdTarget@@QAEKXZ 0042d738 f   uafxcw:oleunk.obj
 0001:0002c757       ?GetInterface@CCmdTarget@@QAEPAUIUnknown@@PBX@Z 0042d757 f   uafxcw:oleunk.obj
 0001:0002c824       ?InternalQueryInterface@CCmdTarget@@QAEKPBXPAPAX@Z 0042d824 f   uafxcw:oleunk.obj
 0001:0002c865       ?InternalRelease@CCmdTarget@@QAEKXZ 0042d865 f   uafxcw:oleunk.obj
 0001:0002c8b9       ?QueryAggregates@CCmdTarget@@QAEPAUIUnknown@@PBX@Z 0042d8b9 f   uafxcw:oleunk.obj
 0001:0002c933       ?_AfxQueryInterface@@YGPAUIUnknown@@PAU1@ABU_GUID@@@Z 0042d933 f   uafxcw:oleunk.obj
 0001:0002c963       ?_AfxRelease@@YGKPAPAUIUnknown@@@Z 0042d963 f   uafxcw:oleunk.obj
 0001:0002c98e       ?_AfxReleaseManagedRefs@@YGXPAUIUnknown@@@Z 0042d98e f   uafxcw:oleunk.obj
 0001:0002c9f0       ??0AUX_DATA@@QAE@XZ        0042d9f0 f   uafxcw:auxdata.obj
 0001:0002ca37       ??1AUX_DATA@@QAE@XZ        0042da37 f   uafxcw:auxdata.obj
 0001:0002cb41       ?UpdateSysColors@AUX_DATA@@QAEXXZ 0042db41 f   uafxcw:auxdata.obj
 0001:0002cb93       ?UpdateSysMetrics@AUX_DATA@@QAEXXZ 0042db93 f   uafxcw:auxdata.obj
 0001:0002cbf7       ?AfxIsValidAddress@@YGHPBXIH@Z 0042dbf7 f   uafxcw:validadd.obj
 0001:0002cc06       ?AfxIsValidString@@YGHPB_WH@Z 0042dc06 f   uafxcw:validadd.obj
 0001:0002cc15       ??$HashKey@H@@YGIH@Z       0042dc15 f i uafxcw:afxvslistbox.obj
 0001:0002cc15       ??$HashKey@I@@YGII@Z       0042dc15 f i uafxcw:afxtoolbarimages.obj
 0001:0002cc15       ??$HashKey@K@@YGIK@Z       0042dc15 f i uafxcw:olevar.obj
 0001:0002cc15       ??$HashKey@PAUHICON__@@@@YGIPAUHICON__@@@Z 0042dc15 f i uafxcw:afxbasetabctrl.obj
 0001:0002cc15       ??$HashKey@PAUHWND__@@@@YGIPAUHWND__@@@Z 0042dc15 f i uafxcw:afxvisualmanageroffice2007.obj
 0001:0002cc15       ??$HashKey@PAVCDocument@@@@YGIPAVCDocument@@@Z 0042dc15 f i uafxcw:afxdatarecovery.obj
 0001:0002cc15       ??$HashKey@PAVCWnd@@@@YGIPAVCWnd@@@Z 0042dc15 f i uafxcw:afxmdiclientareawnd.obj
 0001:0002cc43       ??0?$CFixedStringT@V?$CStringT@_WV?$StrTraitMFC@_WV?$ChTraitsCRT@_W@ATL@@@@@ATL@@$0BAA@@ATL@@QAE@PB_W@Z 0042dc43 f i uafxcw:olevar.obj
 0001:0002cc91       ??0CFixedStringMgr@ATL@@QAE@PAUCStringData@1@HPAUIAtlStringMgr@1@@Z 0042dc91 f i uafxcw:olevar.obj
 0001:0002ccd0       ??0COleVariant@@QAE@ABUtagVARIANT@@@Z 0042dcd0 f   uafxcw:olevar.obj
 0001:0002ccd0       ??0COleVariant@@QAE@PBUtagVARIANT@@@Z 0042dcd0 f   uafxcw:olevar.obj
 0001:0002ccf3       ??0COleVariant@@QAE@FG@Z   0042dcf3 f   uafxcw:olevar.obj
 0001:0002cd28       ??0COleVariant@@QAE@JG@Z   0042dd28 f   uafxcw:olevar.obj
 0001:0002cd8d       ??0COleVariant@@QAE@PB_WG@Z 0042dd8d f   uafxcw:olevar.obj
 0001:0002cddf       ??1?$CFixedStringT@V?$CStringT@_WV?$StrTraitMFC@_WV?$ChTraitsCRT@_W@ATL@@@@@ATL@@$0BAA@@ATL@@UAE@XZ 0042dddf f i uafxcw:olevar.obj
 0001:0002ce05       ??1CFixedStringMgr@ATL@@UAE@XZ 0042de05 f i uafxcw:olevar.obj
 0001:0002ce0c       ??1COleVariant@@QAE@XZ     0042de0c f i uafxcw:olevar.obj
 0001:0002ce14       ??4COleVariant@@QAEABV0@ABUtagVARIANT@@@Z 0042de14 f   uafxcw:olevar.obj
 0001:0002ce14       ??4COleVariant@@QAEABV0@ABV0@@Z 0042de14 f   uafxcw:olevar.obj
 0001:0002ce36       ??4COleVariant@@QAEABV0@J@Z 0042de36 f   uafxcw:olevar.obj
 0001:0002ce77       ??_E?$CFixedStringT@V?$CStringT@_WV?$StrTraitMFC@_WV?$ChTraitsCRT@_W@ATL@@@@@ATL@@$0BAA@@ATL@@UAEPAXI@Z 0042de77 f i uafxcw:olevar.obj
 0001:0002ce77       ??_G?$CFixedStringT@V?$CStringT@_WV?$StrTraitMFC@_WV?$ChTraitsCRT@_W@ATL@@@@@ATL@@$0BAA@@ATL@@UAEPAXI@Z 0042de77 f i uafxcw:olevar.obj
 0001:0002ce9c       ??_ECFixedStringMgr@ATL@@UAEPAXI@Z 0042de9c f i uafxcw:olevar.obj
 0001:0002ce9c       ??_GCFixedStringMgr@ATL@@UAEPAXI@Z 0042de9c f i uafxcw:olevar.obj
 0001:0002cebf       ?AfxCheckError@@YGXJ@Z     0042debf f   uafxcw:olevar.obj
 0001:0002cee2       ?AfxVariantInit@@YGXPAUtagVARIANT@@@Z 0042dee2 f   uafxcw:olevar.obj
 0001:0002cef8       ?Allocate@CFixedStringMgr@ATL@@UAEPAUCStringData@2@HH@Z 0042def8 f i uafxcw:olevar.obj
 0001:0002cf73       ?AtlConvertSystemTimeToVariantTime@ATL@@YAHABU_SYSTEMTIME@@PAN@Z 0042df73 f i uafxcw:olevar.obj
 0001:0002d023       ?ChangeType@COleVariant@@QAEXGPAUtagVARIANT@@@Z 0042e023 f   uafxcw:olevar.obj
 0001:0002d052       ?Format@COleDateTime@ATL@@QBE?AV?$CStringT@_WV?$StrTraitMFC@_WV?$ChTraitsCRT@_W@ATL@@@@@2@KK@Z 0042e052 f i uafxcw:olevar.obj
 0001:0002d191       ?Free@CFixedStringMgr@ATL@@UAEXPAUCStringData@2@@Z 0042e191 f i uafxcw:olevar.obj
 0001:0002d1d9       ?Reallocate@CFixedStringMgr@ATL@@UAEPAUCStringData@2@PAU32@HH@Z 0042e1d9 f i uafxcw:olevar.obj
 0001:0002d2dd       ?SetDateTime@COleDateTime@ATL@@QAEHHHHHHH@Z 0042e2dd f i uafxcw:olevar.obj
 0001:0002d379       ??0CBrush@@QAE@K@Z         0042e379 f   uafxcw:wingdi.obj
 0001:0002d3bd       ??0CClientDC@@QAE@PAVCWnd@@@Z 0042e3bd f   uafxcw:wingdi.obj
 0001:0002d412       ??0CDC@@QAE@XZ             0042e412 f   uafxcw:wingdi.obj
 0001:0002d426       ??0CPaintDC@@QAE@PAVCWnd@@@Z 0042e426 f   uafxcw:wingdi.obj
 0001:0002d47b       ??0CPen@@QAE@HHK@Z         0042e47b f   uafxcw:wingdi.obj
 0001:0002d4c5       ??0CWindowDC@@QAE@PAVCWnd@@@Z 0042e4c5 f   uafxcw:wingdi.obj
 0001:0002d51a       ??1CBrush@@UAE@XZ          0042e51a f i uafxcw:wingdi.obj
 0001:0002d525       ??1CClientDC@@UAE@XZ       0042e525 f   uafxcw:wingdi.obj
 0001:0002d579       ??1CDC@@UAE@XZ             0042e579 f   uafxcw:wingdi.obj
 0001:0002d5c5       ??1CPaintDC@@UAE@XZ        0042e5c5 f   uafxcw:wingdi.obj
 0001:0002d61e       ??1CPen@@UAE@XZ            0042e61e f i uafxcw:wingdi.obj
 0001:0002d629       ??1CWindowDC@@UAE@XZ       0042e629 f   uafxcw:wingdi.obj
 0001:0002d67d       ??_ECBrush@@UAEPAXI@Z      0042e67d f i uafxcw:wingdi.obj
 0001:0002d67d       ??_GCBrush@@UAEPAXI@Z      0042e67d f i uafxcw:wingdi.obj
 0001:0002d6b3       ??_ECClientDC@@UAEPAXI@Z   0042e6b3 f i uafxcw:wingdi.obj
 0001:0002d6b3       ??_GCClientDC@@UAEPAXI@Z   0042e6b3 f i uafxcw:wingdi.obj
 0001:0002d6e3       ??_ECDC@@UAEPAXI@Z         0042e6e3 f i uafxcw:wingdi.obj
 0001:0002d6e3       ??_GCDC@@UAEPAXI@Z         0042e6e3 f i uafxcw:wingdi.obj
 0001:0002d713       ??_ECPaintDC@@UAEPAXI@Z    0042e713 f i uafxcw:wingdi.obj
 0001:0002d713       ??_GCPaintDC@@UAEPAXI@Z    0042e713 f i uafxcw:wingdi.obj
 0001:0002d743       ??_ECPen@@UAEPAXI@Z        0042e743 f i uafxcw:wingdi.obj
 0001:0002d743       ??_GCPen@@UAEPAXI@Z        0042e743 f i uafxcw:wingdi.obj
 0001:0002d779       ??_ECWindowDC@@UAEPAXI@Z   0042e779 f i uafxcw:wingdi.obj
 0001:0002d779       ??_GCWindowDC@@UAEPAXI@Z   0042e779 f i uafxcw:wingdi.obj
 0001:0002d7a9       ?AfxGetDitheredBitmap@@YGXABVCBitmap@@PAV1@KK@Z 0042e7a9 f   uafxcw:wingdi.obj
 0001:0002dafe       ?AfxGetGrayBitmap@@YGXABVCBitmap@@PAV1@K@Z 0042eafe f   uafxcw:wingdi.obj
 0001:0002ddb3       ?AfxThrowResourceException@@YGXXZ 0042edb3 f   uafxcw:wingdi.obj
 0001:0002ddcd       ?AfxThrowUserException@@YGXXZ 0042edcd f   uafxcw:wingdi.obj
 0001:0002dde7       ?Attach@CDC@@QAEHPAUHDC__@@@Z 0042ede7 f   uafxcw:wingdi.obj
 0001:0002de29       ?Attach@CGdiObject@@QAEHPAX@Z 0042ee29 f   uafxcw:wingdi.obj
 0001:0002de55       ?ClientToScreen@CWnd@@QBEXPAUtagRECT@@@Z 0042ee55 f   uafxcw:wingdi.obj
 0001:0002de94       ?Construct@?$ConstructDestruct@VCDC@@@@SGXPAVCObject@@@Z 0042ee94 f i uafxcw:wingdi.obj
 0001:0002deb4       ?Construct@?$ConstructDestruct@VCGdiObject@@@@SGXPAVCObject@@@Z 0042eeb4 f i uafxcw:wingdi.obj
 0001:0002decd       ?CreateObject@CDC@@SGPAVCObject@@XZ 0042eecd f   uafxcw:wingdi.obj
 0001:0002def7       ?CreateObject@CGdiObject@@SGPAVCObject@@XZ 0042eef7 f   uafxcw:wingdi.obj
 0001:0002df1a       ?DPtoLP@CDC@@QBEXPAUtagSIZE@@@Z 0042ef1a f   uafxcw:wingdi.obj
 0001:0002df83       ?DeleteDC@CDC@@QAEHXZ      0042ef83 f   uafxcw:wingdi.obj
 0001:0002df99       ?DeleteObject@CGdiObject@@QAEHXZ 0042ef99 f   uafxcw:wingdi.obj
 0001:0002dfaf       ?Detach@CDC@@QAEPAUHDC__@@XZ 0042efaf f   uafxcw:wingdi.obj
 0001:0002dfec       ?Detach@CGdiObject@@QAEPAXXZ 0042efec f   uafxcw:wingdi.obj
 0001:0002e016       ?DrawTextExW@CDC@@UAEHPA_WHPAUtagRECT@@IPAUtagDRAWTEXTPARAMS@@@Z 0042f016 f i uafxcw:wingdi.obj
 0001:0002e035       ?DrawTextW@CDC@@UAEHPB_WHPAUtagRECT@@I@Z 0042f035 f i uafxcw:wingdi.obj
 0001:0002e051       ?Escape@CDC@@UAEHHHPBDPAX@Z 0042f051 f i uafxcw:wingdi.obj
 0001:0002e06d       ?ExcludeClipRect@CDC@@QAEHPBUtagRECT@@@Z 0042f06d f   uafxcw:wingdi.obj
 0001:0002e0ce       ?ExtTextOutW@CDC@@UAEHHHIPBUtagRECT@@PB_WIPAH@Z 0042f0ce f i uafxcw:wingdi.obj
 0001:0002e0f3       ?FromHandle@CDC@@SGPAV1@PAUHDC__@@@Z 0042f0f3 f   uafxcw:wingdi.obj
 0001:0002e105       ?FromHandle@CGdiObject@@SGPAV1@PAX@Z 0042f105 f   uafxcw:wingdi.obj
 0001:0002e117       ?GetClipBox@CDC@@UBEHPAUtagRECT@@@Z 0042f117 f   uafxcw:wingdi.obj
 0001:0002e12a       ?GetLayout@CDC@@QBEKXZ     0042f12a f   uafxcw:wingdi.obj
 0001:0002e134       ?GetRuntimeClass@CBitmap@@UBEPAUCRuntimeClass@@XZ 0042f134 f   uafxcw:wingdi.obj
 0001:0002e13a       ?GetRuntimeClass@CBrush@@UBEPAUCRuntimeClass@@XZ 0042f13a f   uafxcw:wingdi.obj
 0001:0002e140       ?GetRuntimeClass@CClientDC@@UBEPAUCRuntimeClass@@XZ 0042f140 f   uafxcw:wingdi.obj
 0001:0002e146       ?GetRuntimeClass@CDC@@UBEPAUCRuntimeClass@@XZ 0042f146 f   uafxcw:wingdi.obj
 0001:0002e14c       ?GetRuntimeClass@CFont@@UBEPAUCRuntimeClass@@XZ 0042f14c f   uafxcw:wingdi.obj
 0001:0002e152       ?GetRuntimeClass@CGdiObject@@UBEPAUCRuntimeClass@@XZ 0042f152 f   uafxcw:wingdi.obj
 0001:0002e158       ?GetRuntimeClass@CPaintDC@@UBEPAUCRuntimeClass@@XZ 0042f158 f   uafxcw:wingdi.obj
 0001:0002e15e       ?GetRuntimeClass@CPalette@@UBEPAUCRuntimeClass@@XZ 0042f15e f   uafxcw:wingdi.obj
 0001:0002e164       ?GetRuntimeClass@CPen@@UBEPAUCRuntimeClass@@XZ 0042f164 f   uafxcw:wingdi.obj
 0001:0002e16a       ?GetRuntimeClass@CResourceException@@UBEPAUCRuntimeClass@@XZ 0042f16a f   uafxcw:wingdi.obj
 0001:0002e170       ?GetRuntimeClass@CRgn@@UBEPAUCRuntimeClass@@XZ 0042f170 f   uafxcw:wingdi.obj
 0001:0002e176       ?GetRuntimeClass@CUserException@@UBEPAUCRuntimeClass@@XZ 0042f176 f   uafxcw:wingdi.obj
 0001:0002e17c       ?GetRuntimeClass@CWindowDC@@UBEPAUCRuntimeClass@@XZ 0042f17c f   uafxcw:wingdi.obj
 0001:0002e182       ?GetViewportExt@CDC@@QBE?AVCSize@@XZ 0042f182 f i uafxcw:wingdi.obj
 0001:0002e1a6       ?GetWindowExt@CDC@@QBE?AVCSize@@XZ 0042f1a6 f i uafxcw:wingdi.obj
 0001:0002e1ca       ?GrayStringW@CDC@@UAEHPAVCBrush@@P6GHPAUHDC__@@JH@ZJHHHHH@Z 0042f1ca f i uafxcw:wingdi.obj
 0001:0002e1fa       ?IntersectClipRect@CDC@@QAEHPBUtagRECT@@@Z 0042f1fa f   uafxcw:wingdi.obj
 0001:0002e25b       ?LPtoDP@CDC@@QBEXPAUtagSIZE@@@Z 0042f25b f   uafxcw:wingdi.obj
 0001:0002e2c4       ?LineTo@CDC@@QAEHHH@Z      0042f2c4 f   uafxcw:wingdi.obj
 0001:0002e2f9       ?MoveTo@CDC@@QAE?AVCPoint@@HH@Z 0042f2f9 f   uafxcw:wingdi.obj
 0001:0002e33e       ?OffsetViewportOrg@CDC@@UAE?AVCPoint@@HH@Z 0042f33e f   uafxcw:wingdi.obj
 0001:0002e383       ?OffsetWindowOrg@CDC@@QAE?AVCPoint@@HH@Z 0042f383 f   uafxcw:wingdi.obj
 0001:0002e3c8       ?PtVisible@CDC@@UBEHHH@Z   0042f3c8 f i uafxcw:wingdi.obj
 0001:0002e3de       ?RectVisible@CDC@@UBEHPBUtagRECT@@@Z 0042f3de f i uafxcw:wingdi.obj
 0001:0002e3f1       ?ReleaseAttribDC@CDC@@UAEXXZ 0042f3f1 f   uafxcw:wingdi.obj
 0001:0002e3f6       ?ReleaseOutputDC@CDC@@UAEXXZ 0042f3f6 f   uafxcw:wingdi.obj
 0001:0002e3fb       ?RestoreDC@CDC@@UAEHH@Z    0042f3fb f   uafxcw:wingdi.obj
 0001:0002e43c       ?SaveDC@CDC@@UAEHXZ        0042f43c f   uafxcw:wingdi.obj
 0001:0002e46d       ?ScaleViewportExt@CDC@@UAE?AVCSize@@HHHH@Z 0042f46d f   uafxcw:wingdi.obj
 0001:0002e4be       ?ScaleWindowExt@CDC@@UAE?AVCSize@@HHHH@Z 0042f4be f   uafxcw:wingdi.obj
 0001:0002e50f       ?ScreenToClient@CWnd@@QBEXPAUtagRECT@@@Z 0042f50f f   uafxcw:wingdi.obj
 0001:0002e54e       ?SelectClipRgn@CDC@@QAEHPAVCRgn@@@Z 0042f54e f   uafxcw:wingdi.obj
 0001:0002e591       ?SelectClipRgn@CDC@@QAEHPAVCRgn@@H@Z 0042f591 f   uafxcw:wingdi.obj
 0001:0002e5da       ?SelectGdiObject@CDC@@KGPAVCGdiObject@@PAUHDC__@@PAX@Z 0042f5da f   uafxcw:wingdi.obj
 0001:0002e5f3       ?SelectObject@CDC@@QAEHPAVCRgn@@@Z 0042f5f3 f   uafxcw:wingdi.obj
 0001:0002e639       ?SelectObject@CDC@@QAEPAVCBrush@@PAV2@@Z 0042f639 f   uafxcw:wingdi.obj
 0001:0002e639       ?SelectObject@CDC@@QAEPAVCPen@@PAV2@@Z 0042f639 f   uafxcw:wingdi.obj
 0001:0002e639       ?SelectObject@CDC@@UAEPAVCFont@@PAV2@@Z 0042f639 f   uafxcw:wingdi.obj
 0001:0002e682       ?SelectPalette@CDC@@QAEPAVCPalette@@PAV2@H@Z 0042f682 f   uafxcw:wingdi.obj
 0001:0002e6a6       ?SelectStockObject@CDC@@UAEPAVCGdiObject@@H@Z 0042f6a6 f   uafxcw:wingdi.obj
 0001:0002e6e6       ?SetAttribDC@CDC@@UAEXPAUHDC__@@@Z 0042f6e6 f   uafxcw:wingdi.obj
 0001:0002e6e6       ?ShowButton@CMFCAutoHideButton@@UAEXH@Z 0042f6e6 f   uafxcw:afxautohidebutton.obj
 0001:0002e6f3       ?SetBkColor@CDC@@UAEKK@Z   0042f6f3 f   uafxcw:wingdi.obj
 0001:0002e725       ?SetBkMode@CDC@@QAEHH@Z    0042f725 f   uafxcw:wingdi.obj
 0001:0002e756       ?SetLayout@CDC@@QAEKK@Z    0042f756 f   uafxcw:wingdi.obj
 0001:0002e769       ?SetMapMode@CDC@@UAEHH@Z   0042f769 f   uafxcw:wingdi.obj
 0001:0002e79a       ?SetOutputDC@CDC@@UAEXPAUHDC__@@@Z 0042f79a f   uafxcw:wingdi.obj
 0001:0002e7a7       ?SetPolyFillMode@CDC@@QAEHH@Z 0042f7a7 f   uafxcw:wingdi.obj
 0001:0002e7d8       ?SetROP2@CDC@@QAEHH@Z      0042f7d8 f   uafxcw:wingdi.obj
 0001:0002e809       ?SetTextAlign@CDC@@QAEII@Z 0042f809 f   uafxcw:wingdi.obj
 0001:0002e841       ?SetTextColor@CDC@@UAEKK@Z 0042f841 f   uafxcw:wingdi.obj
 0001:0002e873       ?SetViewportExt@CDC@@UAE?AVCSize@@HH@Z 0042f873 f   uafxcw:wingdi.obj
 0001:0002e8b8       ?SetViewportOrg@CDC@@UAE?AVCPoint@@HH@Z 0042f8b8 f   uafxcw:wingdi.obj
 0001:0002e8fd       ?SetWindowExt@CDC@@UAE?AVCSize@@HH@Z 0042f8fd f   uafxcw:wingdi.obj
 0001:0002e942       ?SetWindowOrg@CDC@@QAE?AVCPoint@@HH@Z 0042f942 f   uafxcw:wingdi.obj
 0001:0002e987       ?TabbedTextOutW@CDC@@UAE?AVCSize@@HHPB_WHHPAHH@Z 0042f987 f i uafxcw:wingdi.obj
 0001:0002e9bf       ?TextOutW@CDC@@UAEHHHPB_WH@Z 0042f9bf f i uafxcw:wingdi.obj
 0001:0002e9db       ?afxMapHDC@@YGPAVCHandleMap@@H@Z 0042f9db f   uafxcw:wingdi.obj
 0001:0002ea4c       ?afxMapHGDIOBJ@@YGPAVCHandleMap@@H@Z 0042fa4c f   uafxcw:wingdi.obj
 0001:0002eabd       ?AfxFormatString1@@YGXAAV?$CStringT@_WV?$StrTraitMFC@_WV?$ChTraitsCRT@_W@ATL@@@@@ATL@@IPB_W@Z 0042fabd f   uafxcw:apphelp.obj
 0001:0002ead5       ?AfxFormatStrings@@YGXAAV?$CStringT@_WV?$StrTraitMFC@_WV?$ChTraitsCRT@_W@ATL@@@@@ATL@@IPBQB_WH@Z 0042fad5 f   uafxcw:apphelp.obj
 0001:0002eb1e       ?AfxFormatStrings@@YGXAAV?$CStringT@_WV?$StrTraitMFC@_WV?$ChTraitsCRT@_W@ATL@@@@@ATL@@PB_WPBQB_WH@Z 0042fb1e f   uafxcw:apphelp.obj
 0001:0002ec90       ?AfxCancelModes@@YGXPAUHWND__@@@Z 0042fc90 f   uafxcw:winutil.obj
 0001:0002ed0a       ?AfxCriticalNewHandler@@YAHI@Z 0042fd0a f   uafxcw:winutil.obj
 0001:0002ed5c       ?AfxDeleteObject@@YGXPAPAX@Z 0042fd5c f   uafxcw:winutil.obj
 0001:0002ed82       ?AfxGlobalFree@@YGXPAX@Z   0042fd82 f   uafxcw:winutil.obj
 0001:0002edb5       ?AfxSetWindowText@@YGXPAUHWND__@@PB_W@Z 0042fdb5 f   uafxcw:winutil.obj
 0001:0002ee46       ?AtlHresultFromLastError@ATL@@YAJXZ 0042fe46 f i uafxcw:winutil.obj
 0001:0002ee59       ?GetCommCtrlVersion@@YAJPAK0@Z 0042fe59 f   uafxcw:winutil.obj
 0001:0002eefb       ?_AfxChildWindowFromPoint@@YGPAUHWND__@@PAU1@UtagPOINT@@@Z 0042fefb f   uafxcw:winutil.obj
 0001:0002ef9a       ?_AfxCompareClassName@@YGHPAUHWND__@@PB_W@Z 0042ff9a f   uafxcw:winutil.obj
 0001:0002efe8       ?_AfxIsComboBoxControl@@YGHPAUHWND__@@I@Z 0042ffe8 f   uafxcw:winutil.obj
 0001:0002f050       ?_AfxTopChildWindowFromPoint@@YGPAUHWND__@@PAU1@UtagPOINT@@@Z 00430050 f   uafxcw:winutil.obj
 0001:0002f114       ?AfxCriticalInit@@YGHXZ    00430114 f   uafxcw:afxcrit.obj
 0001:0002f138       ?AfxCriticalTerm@@YGXXZ    00430138 f   uafxcw:afxcrit.obj
 0001:0002f17d       ?AfxLockGlobals@@YGXH@Z    0043017d f   uafxcw:afxcrit.obj
 0001:0002f1f1       ?AfxUnlockGlobals@@YGXH@Z  004301f1 f   uafxcw:afxcrit.obj
 0001:0002f215       ?AfxNewHandler@@YAHI@Z     00430215 f   uafxcw:afxmem.obj
 0001:0002f21a       ?AfxSetNewHandler@@YGP6AHI@ZP6AHI@Z@Z 0043021a f   uafxcw:afxmem.obj
 0001:0002f22f       ??0CMapPtrToPtr@@QAE@H@Z   0043022f f   uafxcw:map_pp.obj
 0001:0002f260       ??1CMapPtrToPtr@@UAE@XZ    00430260 f   uafxcw:map_pp.obj
 0001:0002f29f       ??ACMapPtrToPtr@@QAEAAPAXPAX@Z 0043029f f   uafxcw:map_pp.obj
 0001:0002f2f6       ??_ECMapPtrToPtr@@UAEPAXI@Z 004302f6 f i uafxcw:map_pp.obj
 0001:0002f2f6       ??_GCMapPtrToPtr@@UAEPAXI@Z 004302f6 f i uafxcw:map_pp.obj
 0001:0002f35f       ?FreeAssoc@CMapPtrToPtr@@IAEXPAUCAssoc@1@@Z 0043035f f   uafxcw:map_pp.obj
 0001:0002f37c       ?GetAssocAt@CMapPtrToPtr@@IBEPAUCAssoc@1@PAXAAI1@Z 0043037c f   uafxcw:map_pp.obj
 0001:0002f3ba       ?GetNextAssoc@CMapPtrToPtr@@QBEXAAPAU__POSITION@@AAPAX1@Z 004303ba f   uafxcw:map_pp.obj
 0001:0002f442       ?GetRuntimeClass@CMapPtrToPtr@@UBEPAUCRuntimeClass@@XZ 00430442 f   uafxcw:map_pp.obj
 0001:0002f448       ?GetValueAt@CMapPtrToPtr@@QBEPAXPAX@Z 00430448 f   uafxcw:map_pp.obj
 0001:0002f48d       ?InitHashTable@CMapPtrToPtr@@QAEXIH@Z 0043048d f   uafxcw:map_pp.obj
 0001:0002f48d       ?InitHashTable@CMapStringToPtr@@QAEXIH@Z 0043048d f   uafxcw:map_sp.obj
 0001:0002f48d       ?InitHashTable@CMapWordToOb@@QAEXIH@Z 0043048d f   uafxcw:map_wo.obj
 0001:0002f4ea       ?Lookup@CMapPtrToPtr@@QBEHPAXAAPAX@Z 004304ea f   uafxcw:map_pp.obj
 0001:0002f512       ?NewAssoc@CMapPtrToPtr@@IAEPAUCAssoc@1@XZ 00430512 f   uafxcw:map_pp.obj
 0001:0002f55e       ?RemoveAll@?$CMap@HHHH@@QAEXXZ 0043055e f   uafxcw:afxheaderctrl.obj
 0001:0002f55e       ?RemoveAll@?$CMap@HHII@@QAEXXZ 0043055e f   uafxcw:afxvslistbox.obj
 0001:0002f55e       ?RemoveAll@?$CMap@IAAIPAVCMFCToolBarButton@@AAPAV1@@@QAEXXZ 0043055e f   uafxcw:afxtoolbar.obj
 0001:0002f55e       ?RemoveAll@?$CMap@IIHH@@QAEXXZ 0043055e f   uafxcw:afxtoolbarimages.obj
 0001:0002f55e       ?RemoveAll@?$CMap@IIII@@QAEXXZ 0043055e f   uafxcw:afxpopupmenubar.obj
 0001:0002f55e       ?RemoveAll@?$CMap@IIKK@@QAEXXZ 0043055e f   uafxcw:afxcolormenubutton.obj
 0001:0002f55e       ?RemoveAll@?$CMap@IIPAUHICON__@@PAU1@@@QAEXXZ 0043055e f   uafxcw:afxtabctrl.obj
 0001:0002f55e       ?RemoveAll@?$CMap@IIPAUHWND__@@PAU1@@@QAEXXZ 0043055e f   uafxcw:afxpaneframewnd.obj
 0001:0002f55e       ?RemoveAll@?$CMap@IIPAVCMFCRibbonStatusBarPane@@PAV1@@@QAEXXZ 0043055e f   uafxcw:afxribbonstatusbarpane.obj
 0001:0002f55e       ?RemoveAll@?$CMap@IIPAVCPane@@PAV1@@@QAEXXZ 0043055e f   uafxcw:afxdockingmanager.obj
 0001:0002f55e       ?RemoveAll@?$CMap@PAUHICON__@@PAU1@HH@@QAEXXZ 0043055e f   uafxcw:afxbasetabctrl.obj
 0001:0002f55e       ?RemoveAll@?$CMap@PAUHMENU__@@AAPAU1@PAXAAPAX@@QAEXXZ 0043055e f   uafxcw:afxmenuhash.obj
 0001:0002f55e       ?RemoveAll@?$CMap@PAUHWND__@@PAU1@HH@@QAEXXZ 0043055e f   uafxcw:afxvisualmanageroffice2007.obj
 0001:0002f55e       ?RemoveAll@?$CMap@PAVCWnd@@PAV1@PAVCImageList@@PAV2@@@QAEXXZ 0043055e f   uafxcw:afxmdiclientareawnd.obj
 0001:0002f55e       ?RemoveAll@CMapPtrToPtr@@QAEXXZ 0043055e f   uafxcw:map_pp.obj
 0001:0002f55e       ?RemoveAll@CMapWordToOb@@QAEXXZ 0043055e f   uafxcw:map_wo.obj
 0001:0002f589       ?RemoveKey@CMapPtrToPtr@@QAEHPAX@Z 00430589 f   uafxcw:map_pp.obj
 0001:0002f5d4       ??0CChevronOwnerDrawMenu@@QAE@XZ 004305d4 f   uafxcw:winmenu.obj
 0001:0002f65d       ??_ECChevronOwnerDrawMenu@@UAEPAXI@Z 0043065d f i uafxcw:winmenu.obj
 0001:0002f65d       ??_GCChevronOwnerDrawMenu@@UAEPAXI@Z 0043065d f i uafxcw:winmenu.obj
 0001:0002f68d       ?Attach@CMenu@@QAEHPAUHMENU__@@@Z 0043068d f   uafxcw:winmenu.obj
 0001:0002f6b9       ?Construct@?$ConstructDestruct@VCMenu@@@@SGXPAVCObject@@@Z 004306b9 f i uafxcw:winmenu.obj
 0001:0002f6d2       ?CreateObject@CMenu@@SGPAVCObject@@XZ 004306d2 f   uafxcw:winmenu.obj
 0001:0002f6f5       ?DestroyMenu@CMenu@@QAEHXZ 004306f5 f   uafxcw:winmenu.obj
 0001:0002f70b       ?Detach@CMenu@@QAEPAUHMENU__@@XZ 0043070b f   uafxcw:winmenu.obj
 0001:0002f735       ?DrawItem@CChevronOwnerDrawMenu@@UAEXPAUtagDRAWITEMSTRUCT@@@Z 00430735 f   uafxcw:winmenu.obj
 0001:0002fc3f       ?FromHandle@CMenu@@SGPAV1@PAUHMENU__@@@Z 00430c3f f   uafxcw:winmenu.obj
 0001:0002fc51       ?FromHandlePermanent@CMenu@@SGPAV1@PAUHMENU__@@@Z 00430c51 f   uafxcw:winmenu.obj
 0001:0002fc75       ?GetMenuStringW@CMenu@@QBEHIAAV?$CStringT@_WV?$StrTraitMFC@_WV?$ChTraitsCRT@_W@ATL@@@@@ATL@@I@Z 00430c75 f   uafxcw:winmenu.obj
 0001:0002fccd       ?GetRuntimeClass@CMenu@@UBEPAUCRuntimeClass@@XZ 00430ccd f   uafxcw:winmenu.obj
 0001:0002fcd3       ?MeasureItem@CChevronOwnerDrawMenu@@UAEXPAUtagMEASUREITEMSTRUCT@@@Z 00430cd3 f   uafxcw:winmenu.obj
 0001:0002fe17       ?afxMapHMENU@@YGPAVCHandleMap@@H@Z 00430e17 f   uafxcw:winmenu.obj
 0001:0002fe88       ??$SafeRelease@UID2D1HwndRenderTarget@@@@YAXPAPAUID2D1HwndRenderTarget@@@Z 00430e88 f i uafxcw:afxrendertarget.obj
 0001:0002fead       ??0CD2DSizeU@@QAE@II@Z     00430ead f   uafxcw:afxrendertarget.obj
 0001:0002fec1       ??0_AFX_D2D_STATE@@QAE@XZ  00430ec1 f   uafxcw:afxrendertarget.obj
 0001:0002fede       ??_E_AFX_D2D_STATE@@UAEPAXI@Z 00430ede f i uafxcw:afxrendertarget.obj
 0001:0002fede       ??_G_AFX_D2D_STATE@@UAEPAXI@Z 00430ede f i uafxcw:afxrendertarget.obj
 0001:0002ff47       ?AfxReleaseD2DRefs@@YAXXZ  00430f47 f   uafxcw:afxrendertarget.obj
 0001:0002ff5c       ?BeginDraw@CRenderTarget@@QAEXXZ 00430f5c f   uafxcw:afxrendertarget.obj
 0001:0002ffb4       ?BindDC@CDCRenderTarget@@QAEHABVCDC@@ABVCRect@@@Z 00430fb4 f   uafxcw:afxrendertarget.obj
 0001:0002fff0       ?Create@CDCRenderTarget@@QAEHABUD2D1_RENDER_TARGET_PROPERTIES@@@Z 00430ff0 f   uafxcw:afxrendertarget.obj
 0001:00030077       ?Create@CHwndRenderTarget@@QAEHPAUHWND__@@@Z 00431077 f   uafxcw:afxrendertarget.obj
 0001:0003017d       ?CreateObject@?$CProcessLocal@V_AFX_D2D_STATE@@@@SGPAVCNoTrackObject@@XZ 0043117d f i uafxcw:afxrendertarget.obj
 0001:0003019c       ?EndDraw@CRenderTarget@@QAEJXZ 0043119c f   uafxcw:afxrendertarget.obj
 0001:000301c3       ?InitD2D@_AFX_D2D_STATE@@QAEHW4D2D1_FACTORY_TYPE@@W4DWRITE_FACTORY_TYPE@@@Z 004311c3 f   uafxcw:afxrendertarget.obj
 0001:000302b0       ?ReCreate@CHwndRenderTarget@@QAEHPAUHWND__@@@Z 004312b0 f   uafxcw:afxrendertarget.obj
 0001:0003032b       ?ReleaseD2DRefs@_AFX_D2D_STATE@@QAEXXZ 0043132b f   uafxcw:afxrendertarget.obj
 0001:000303bc       ?Resize@CHwndRenderTarget@@QAEHABVCD2DSizeU@@@Z 004313bc f   uafxcw:afxrendertarget.obj
 0001:000303df       ?Resize@ID2D1HwndRenderTarget@@QAEJABUD2D_SIZE_U@@@Z 004313df f i uafxcw:afxrendertarget.obj
 0001:000303fe       ?VerifyResource@CRenderTarget@@IAEHPAVCD2DResource@@@Z 004313fe f   uafxcw:afxrendertarget.obj
 0001:0003044d       ?AfxOleCanExitApp@@YGHXZ   0043144d f   uafxcw:olelock.obj
 0001:0003045d       ?AfxOleGetUserCtrl@@YGHXZ  0043145d f   uafxcw:olelock.obj
 0001:00030466       ?AfxOleLockApp@@YGXXZ      00431466 f   uafxcw:olelock.obj
 0001:00030470       ?AfxOleOnReleaseAllObjects@@YGXXZ 00431470 f   uafxcw:olelock.obj
 0001:000304d0       ?AfxOleSetUserCtrl@@YGXH@Z 004314d0 f   uafxcw:olelock.obj
 0001:000304e2       ?AfxOleUnlockApp@@YGXXZ    004314e2 f   uafxcw:olelock.obj
 0001:000304f6       ??$SerializeElements@UItem@CMFCDynamicLayoutData@@@@YGXAAVCArchive@@PAUItem@CMFCDynamicLayoutData@@H@Z 004314f6 f i uafxcw:afxlayout.obj
 0001:00030598       ??0?$CList@PAUAFX_DYNAMIC_LAYOUT_ITEM@@PAU1@@@QAE@H@Z 00431598 f i uafxcw:afxlayout.obj
 0001:000305be       ??0?$CList@UItem@CMFCDynamicLayoutData@@AAU12@@@QAE@H@Z 004315be f i uafxcw:afxlayout.obj
 0001:000305e4       ??0AFX_DYNAMIC_LAYOUT_ITEM@@QAE@PAUHWND__@@ABUMoveSettings@CMFCDynamicLayout@@ABUSizeSettings@3@@Z 004315e4 f i uafxcw:afxlayout.obj
 0001:0003061e       ??0CMFCDynamicLayout@@QAE@XZ 0043161e f   uafxcw:afxlayout.obj
 0001:00030648       ??1CMFCDynamicLayout@@UAE@XZ 00431648 f   uafxcw:afxlayout.obj
 0001:000306b5       ??1CMFCDynamicLayoutData@@QAE@XZ 004316b5 f i uafxcw:afxlayout.obj
 0001:000306f8       ??_E?$CList@PAUAFX_DYNAMIC_LAYOUT_ITEM@@PAU1@@@UAEPAXI@Z 004316f8 f i uafxcw:afxlayout.obj
 0001:000306f8       ??_G?$CList@PAUAFX_DYNAMIC_LAYOUT_ITEM@@PAU1@@@UAEPAXI@Z 004316f8 f i uafxcw:afxlayout.obj
 0001:00030761       ??_E?$CList@UItem@CMFCDynamicLayoutData@@AAU12@@@UAEPAXI@Z 00431761 f i uafxcw:afxlayout.obj
 0001:00030761       ??_G?$CList@UItem@CMFCDynamicLayoutData@@AAU12@@@UAEPAXI@Z 00431761 f i uafxcw:afxlayout.obj
 0001:000307ca       ??_ECMFCDynamicLayout@@UAEPAXI@Z 004317ca f i uafxcw:afxlayout.obj
 0001:000307ca       ??_GCMFCDynamicLayout@@UAEPAXI@Z 004317ca f i uafxcw:afxlayout.obj
 0001:000307fa       ?AddItem@CMFCDynamicLayout@@QAEHPAUHWND__@@UMoveSettings@1@USizeSettings@1@@Z 004317fa f   uafxcw:afxlayout.obj
 0001:0003089c       ?AddTail@?$CList@UItem@CMFCDynamicLayoutData@@AAU12@@@QAEPAU__POSITION@@AAUItem@CMFCDynamicLayoutData@@@Z 0043189c f i uafxcw:afxlayout.obj
 0001:000308d0       ?Adjust@CMFCDynamicLayout@@QAEXXZ 004318d0 f   uafxcw:afxlayout.obj
 0001:0003097d       ?AdjustItemRect@CMFCDynamicLayout@@IBEIAAUAFX_DYNAMIC_LAYOUT_ITEM@@AAVCRect@@@Z 0043197d f   uafxcw:afxlayout.obj
 0001:00030b61       ?ApplyLayoutDataTo@CMFCDynamicLayoutData@@QAEHPAVCWnd@@H@Z 00431b61 f   uafxcw:afxlayout.obj
 0001:00030c6d       ?CorrectItem@CMFCDynamicLayout@@IBEXAAUAFX_DYNAMIC_LAYOUT_ITEM@@@Z 00431c6d f   uafxcw:afxlayout.obj
 0001:00030d02       ?Create@CMFCDynamicLayout@@QAEHPAVCWnd@@@Z 00431d02 f   uafxcw:afxlayout.obj
 0001:00030d20       ?FindItem@CMFCDynamicLayout@@IAEPAUAFX_DYNAMIC_LAYOUT_ITEM@@PAUHWND__@@@Z 00431d20 f   uafxcw:afxlayout.obj
 0001:00030d40       ?FreeNode@?$CList@IAAI@@IAEXPAUCNode@1@@Z 00431d40 f i uafxcw:afxdockingmanager.obj
 0001:00030d40       ?FreeNode@?$CList@II@@IAEXPAUCNode@1@@Z 00431d40 f i uafxcw:afxcommandmanager.obj
 0001:00030d40       ?FreeNode@?$CList@PAUAFX_DYNAMIC_LAYOUT_ITEM@@PAU1@@@IAEXPAUCNode@1@@Z 00431d40 f i uafxcw:afxlayout.obj
 0001:00030d40       ?FreeNode@?$CList@PAUHWND__@@AAPAU1@@@IAEXPAUCNode@1@@Z 00431d40 f i uafxcw:afxdockingmanager.obj
 0001:00030d40       ?FreeNode@?$CList@PAUHWND__@@PAU1@@@IAEXPAUCNode@1@@Z 00431d40 f i uafxcw:afxtooltipmanager.obj
 0001:00030d40       ?FreeNode@?$CList@PAVCFrameWnd@@PAV1@@@IAEXPAUCNode@1@@Z 00431d40 f i uafxcw:afxframeimpl.obj
 0001:00030d40       ?FreeNode@?$CList@PAVCMFCButton@@PAV1@@@IAEXPAUCNode@1@@Z 00431d40 f i uafxcw:afxvslistbox.obj
 0001:00030d40       ?FreeNode@?$CList@PAVCMFCPropertyGridProperty@@PAV1@@@IAEXPAUCNode@1@@Z 00431d40 f i uafxcw:afxpropertygridctrl.obj
 0001:00030d40       ?FreeNode@?$CList@PAVCPropertyPage@@PAV1@@@IAEXPAUCNode@1@@Z 00431d40 f i uafxcw:afxtoolbarscustomizedialog.obj
 0001:00030d5d       ?GetItemRect@CMFCDynamicLayout@@IBE?AVCRect@@AAUAFX_DYNAMIC_LAYOUT_ITEM@@@Z 00431d5d f   uafxcw:afxlayout.obj
 0001:00030dc9       ?GetRuntimeClass@CMFCDynamicLayout@@UBEPAUCRuntimeClass@@XZ 00431dc9 f   uafxcw:afxlayout.obj
 0001:00030dcf       ?LoadResource@CMFCDynamicLayout@@SAHPAVCWnd@@PAXK@Z 00431dcf f   uafxcw:afxlayout.obj
 0001:00030e46       ?MoveHorizontalAndVertical@CMFCDynamicLayout@@SA?AUMoveSettings@1@HH@Z 00431e46 f   uafxcw:afxlayout.obj
 0001:00030e46       ?SizeHorizontalAndVertical@CMFCDynamicLayout@@SA?AUSizeSettings@1@HH@Z 00431e46 f   uafxcw:afxlayout.obj
 0001:00030e59       ?MoveNone@CMFCDynamicLayout@@SA?AUMoveSettings@1@XZ 00431e59 f   uafxcw:afxlayout.obj
 0001:00030e59       ?SizeNone@CMFCDynamicLayout@@SA?AUSizeSettings@1@XZ 00431e59 f   uafxcw:afxlayout.obj
 0001:00030e68       ?NewNode@?$CList@UItem@CMFCDynamicLayoutData@@AAU12@@@IAEPAUCNode@1@PAU21@0@Z 00431e68 f i uafxcw:afxlayout.obj
 0001:00030ed8       ?PrepareItem@CMFCDynamicLayout@@IBEHAAUAFX_DYNAMIC_LAYOUT_ITEM@@@Z 00431ed8 f   uafxcw:afxlayout.obj
 0001:00031032       ?ReadResource@CMFCDynamicLayoutData@@QAEHPAXI@Z 00432032 f   uafxcw:afxlayout.obj
 0001:0003110d       ?RemoveHead@?$CList@PAUAFX_DYNAMIC_LAYOUT_ITEM@@PAU1@@@QAEPAUAFX_DYNAMIC_LAYOUT_ITEM@@XZ 0043210d f i uafxcw:afxlayout.obj
 0001:0003110d       ?RemoveHead@?$CList@PAVCMFCButton@@PAV1@@@QAEPAVCMFCButton@@XZ 0043210d f i uafxcw:afxvslistbox.obj
 0001:0003110d       ?RemoveHead@?$CList@PAVCMFCPropertyGridProperty@@PAV1@@@QAEPAVCMFCPropertyGridProperty@@XZ 0043210d f i uafxcw:afxpropertygridctrl.obj
 0001:0003110d       ?RemoveHead@?$CList@PAVCPropertyPage@@PAV1@@@QAEPAVCPropertyPage@@XZ 0043210d f i uafxcw:afxtoolbarscustomizedialog.obj
 0001:0003113b       ?Serialize@?$CList@UItem@CMFCDynamicLayoutData@@AAU12@@@UAEXAAVCArchive@@@Z 0043213b f i uafxcw:afxlayout.obj
 0001:000311b3       ?SizeVertical@CMFCDynamicLayout@@SA?AUSizeSettings@1@H@Z 004321b3 f   uafxcw:afxlayout.obj
 0001:000311c4       ?_AfxApplicationRecoveryFinished@@YAXH@Z 004321c4 f   uafxcw:afxwinverapi.obj
 0001:00031219       ?_AfxApplicationRecoveryInProgress@@YAJPAH@Z 00432219 f   uafxcw:afxwinverapi.obj
 0001:00031275       ?_AfxBeginBufferedPaint@@YAPAXPAUHDC__@@PBUtagRECT@@W4_BP_BUFFERFORMAT@@PAU_BP_PAINTPARAMS@@PAPAU1@@Z 00432275 f   uafxcw:afxwinverapi.obj
 0001:000312da       ?_AfxBufferedPaintInit@@YAJXZ 004322da f   uafxcw:afxwinverapi.obj
 0001:0003132f       ?_AfxBufferedPaintUnInit@@YAJXZ 0043232f f   uafxcw:afxwinverapi.obj
 0001:00031384       ?_AfxChangeWindowMessageFilter@@YAHIK@Z 00432384 f   uafxcw:afxwinverapi.obj
 0001:000313e0       ?_AfxDrawThemeTextEx@@YAJPAXPAUHDC__@@HHPB_WHKPAUtagRECT@@PBU_DTTOPTS@@@Z 004323e0 f   uafxcw:afxwinverapi.obj
 0001:0003146f       ?_AfxDwmDefWindowProc@@YAHPAUHWND__@@IIJPAJ@Z 0043246f f   uafxcw:afxwinverapi.obj
 0001:000314d4       ?_AfxDwmInvalidateIconicBitmaps@@YAJPAUHWND__@@@Z 004324d4 f   uafxcw:afxwinverapi.obj
 0001:00031530       ?_AfxDwmIsCompositionEnabled@@YAJPAH@Z 00432530 f   uafxcw:afxwinverapi.obj
 0001:0003158f       ?_AfxDwmSetIconicLivePreviewBitmap@@YAJPAUHWND__@@PAUHBITMAP__@@PAUtagPOINT@@K@Z 0043258f f   uafxcw:afxwinverapi.obj
 0001:000315f4       ?_AfxDwmSetIconicThumbnail@@YAJPAUHWND__@@PAUHBITMAP__@@K@Z 004325f4 f   uafxcw:afxwinverapi.obj
 0001:00031656       ?_AfxDwmSetWindowAttribute@@YAJPAUHWND__@@KPBXK@Z 00432656 f   uafxcw:afxwinverapi.obj
 0001:000316bb       ?_AfxEndBufferedPaint@@YAJPAXH@Z 004326bb f   uafxcw:afxwinverapi.obj
 0001:0003171a       ?_AfxGetLocaleInfoEx@@YAHPB_WKPA_WH@Z 0043271a f   uafxcw:afxwinverapi.obj
 0001:00031793       ?_AfxGetThreadPreferredUILanguages@@YAHKPAKPA_W0@Z 00432793 f   uafxcw:afxwinverapi.obj
 0001:00031974       ?_AfxInitNetworkAddressControl@@YAHXZ 00432974 f   uafxcw:afxwinverapi.obj
 0001:000319c6       ?_AfxIsTaskDialogSupported@@YAHXZ 004329c6 f   uafxcw:afxwinverapi.obj
 0001:00031a11       ?_AfxRegisterApplicationRecoveryCallback@@YAJP6GKPAX@Z0KK@Z 00432a11 f   uafxcw:afxwinverapi.obj
 0001:00031a76       ?_AfxRegisterApplicationRestart@@YAJPB_WK@Z 00432a76 f   uafxcw:afxwinverapi.obj
 0001:00031ad5       ?_AfxSHCreateItemFromParsingName@@YAJPB_WPAUIBindCtx@@ABU_GUID@@PAPAX@Z 00432ad5 f   uafxcw:afxwinverapi.obj
 0001:00031b3a       ?_AfxSHGetKnownFolderPath@@YAJABU_GUID@@KPAXPAPA_W@Z 00432b3a f   uafxcw:afxwinverapi.obj
 0001:00031b9f       ?_AfxTaskDialogIndirect@@YAJPBU_TASKDIALOGCONFIG@@PAH11@Z 00432b9f f   uafxcw:afxwinverapi.obj
 0001:00031c04       ?_AtlAsciiToWLower@ATL@@YA_W_W@Z 00432c04 f i uafxcw:afxwinverapi.obj
 0001:00031c1e       ?_AtlDownlevelLCIDToLocaleName@ATL@@YAHKPA_WH@Z 00432c1e f i uafxcw:afxwinverapi.obj
 0001:00031c89       ?_AtlDownlevelLocaleNameToLCID@ATL@@YAKPB_W@Z 00432c89 f i uafxcw:afxwinverapi.obj
 0001:00031cb3       ?_AtlGetTableIndexFromLcid@ATL@@YAHK@Z 00432cb3 f i uafxcw:afxwinverapi.obj
 0001:00031ce8       ?_AtlGetTableIndexFromLocaleName@ATL@@YAHPB_W@Z 00432ce8 f i uafxcw:afxwinverapi.obj
 0001:00031d36       ?_AtlWcsnicmpAscii@ATL@@YAHPB_W0I@Z 00432d36 f i uafxcw:afxwinverapi.obj
 0001:00031d8b       ??0CHandleMap@@QAE@PAUCRuntimeClass@@P6GXPAVCObject@@@Z2IH@Z 00432d8b f   uafxcw:winhand.obj
 0001:00031e13       ??1CHandleMap@@UAE@XZ      00432e13 f i uafxcw:winhand.obj
 0001:00031e6e       ??_ECHandleMap@@UAEPAXI@Z  00432e6e f i uafxcw:winhand.obj
 0001:00031e6e       ??_GCHandleMap@@UAEPAXI@Z  00432e6e f i uafxcw:winhand.obj
 0001:00031e90       ?AfxLockTempMaps@@YGXXZ    00432e90 f   uafxcw:winhand.obj
 0001:00031e99       ?AfxUnlockTempMaps@@YGHH@Z 00432e99 f   uafxcw:winhand.obj
 0001:00031f9d       ?DeleteTemp@CHandleMap@@QAEXXZ 00432f9d f   uafxcw:winhand.obj
 0001:0003200e       ?FromHandle@CHandleMap@@QAEPAVCObject@@PAX@Z 0043300e f   uafxcw:winhand.obj
 0001:000320d4       ??0CPropertyPage@@QAE@IIK@Z 004330d4 f   uafxcw:dlgprop.obj
 0001:0003213c       ??0CPropertyPage@@QAE@XZ   0043313c f   uafxcw:dlgprop.obj
 0001:0003219b       ??0CPropertySheet@@QAE@PB_WPAVCWnd@@I@Z 0043319b f   uafxcw:dlgprop.obj
 0001:00032228       ??1CPropertyPage@@UAE@XZ   00433228 f   uafxcw:dlgprop.obj
 0001:000322bb       ??1CPropertySheet@@UAE@XZ  004332bb f   uafxcw:dlgprop.obj
 0001:000322f1       ??9ATL@@YA_NABV?$CStringT@_WV?$StrTraitMFC@_WV?$ChTraitsCRT@_W@ATL@@@@@0@0@Z 004332f1 f i uafxcw:dlgprop.obj
 0001:0003234b       ??9CPoint@@QBEHUtagPOINT@@@Z 0043334b f i uafxcw:afxvslistbox.obj
 0001:0003234b       ??9CSize@@QBEHUtagSIZE@@@Z 0043334b f i uafxcw:dlgprop.obj
 0001:00032368       ??_ECPropertyPage@@UAEPAXI@Z 00433368 f i uafxcw:dlgprop.obj
 0001:00032368       ??_GCPropertyPage@@UAEPAXI@Z 00433368 f i uafxcw:dlgprop.obj
 0001:0003239b       ??_ECPropertySheet@@UAEPAXI@Z 0043339b f i uafxcw:dlgprop.obj
 0001:0003239b       ??_GCPropertySheet@@UAEPAXI@Z 0043339b f i uafxcw:dlgprop.obj
 0001:000323ce       ?AddPage@CPropertySheet@@QAEXPAVCPropertyPage@@@Z 004333ce f   uafxcw:dlgprop.obj
 0001:00032516       ?AfxPropPageCallback@@YGIPAUHWND__@@IPAU_PROPSHEETPAGEW@@@Z 00433516 f   uafxcw:dlgprop.obj
 0001:0003255e       ?AfxPropSheetCallback@@YGHPAUHWND__@@IJ@Z 0043355e f   uafxcw:dlgprop.obj
 0001:000325bb       ?AllocPSP@CPropertyPage@@IAEXK@Z 004335bb f   uafxcw:dlgprop.obj
 0001:000325fd       ?BuildPropPageArray@CPropertySheet@@UAEXXZ 004335fd f   uafxcw:dlgprop.obj
 0001:00032710       ?Cleanup@CPropertyPage@@IAEXXZ 00433710 f   uafxcw:dlgprop.obj
 0001:00032754       ?CommonConstruct@CPropertyPage@@IAEXPB_WI@Z 00433754 f   uafxcw:dlgprop.obj
 0001:0003282b       ?CommonConstruct@CPropertySheet@@QAEXPAVCWnd@@I@Z 0043382b f   uafxcw:dlgprop.obj
 0001:000328aa       ?ContinueModal@CPropertySheet@@UAEHXZ 004338aa f   uafxcw:dlgprop.obj
 0001:000328d2       ?Create@CPropertySheet@@UAEHPAVCWnd@@KK@Z 004338d2 f   uafxcw:dlgprop.obj
 0001:00032a1b       ?DoModal@CPropertySheet@@UAEHXZ 00433a1b f   uafxcw:dlgprop.obj
 0001:00032bf3       ?GetActiveIndex@CPropertySheet@@QBEHXZ 00433bf3 f   uafxcw:dlgprop.obj
 0001:00032c20       ?GetActivePage@CPropertySheet@@QBEPAVCPropertyPage@@XZ 00433c20 f   uafxcw:dlgprop.obj
 0001:00032c51       ?GetMessageMap@CPropertyPage@@MBEPBUAFX_MSGMAP@@XZ 00433c51 f   uafxcw:dlgprop.obj
 0001:00032c51       ?GetThisMessageMap@CPropertyPage@@KGPBUAFX_MSGMAP@@XZ 00433c51 f   uafxcw:dlgprop.obj
 0001:00032c57       ?GetMessageMap@CPropertySheet@@MBEPBUAFX_MSGMAP@@XZ 00433c57 f   uafxcw:dlgprop.obj
 0001:00032c57       ?GetThisMessageMap@CPropertySheet@@KGPBUAFX_MSGMAP@@XZ 00433c57 f   uafxcw:dlgprop.obj
 0001:00032c5d       ?GetPage@CPropertySheet@@QBEPAVCPropertyPage@@H@Z 00433c5d f i uafxcw:dlgprop.obj
 0001:00032c7c       ?GetPageCount@CPropertySheet@@QBEHXZ 00433c7c f   uafxcw:dlgprop.obj
 0001:00032ca9       ?GetPageIndex@CPropertySheet@@QAEHPAVCPropertyPage@@@Z 00433ca9 f   uafxcw:dlgprop.obj
 0001:00032ce1       ?GetParentSheet@CPropertyPage@@UAEPAVCPropertySheet@@XZ 00433ce1 f   uafxcw:dlgprop.obj
 0001:00032d0f       ?GetRuntimeClass@CPropertyPage@@UBEPAUCRuntimeClass@@XZ 00433d0f f   uafxcw:dlgprop.obj
 0001:00032d15       ?GetRuntimeClass@CPropertySheet@@UBEPAUCRuntimeClass@@XZ 00433d15 f   uafxcw:dlgprop.obj
 0001:00032d1b       ?GetTabControl@CPropertySheet@@QBEPAVCTabCtrl@@XZ 00433d1b f i uafxcw:dlgprop.obj
 0001:00032d34       ?HandleInitDialog@CPropertySheet@@IAEJIJ@Z 00433d34 f   uafxcw:dlgprop.obj
 0001:00032ed5       ?InitDialogInfo@CPropertyPage@@IAEPBUDLGTEMPLATE@@PBU2@@Z 00433ed5 f   uafxcw:dlgprop.obj
 0001:00032f19       ?MapWizardResult@CPropertyPage@@IAEJJ@Z 00433f19 f   uafxcw:dlgprop.obj
 0001:00032f88       ?OnApply@CPropertyPage@@UAEHXZ 00433f88 f   uafxcw:dlgprop.obj
 0001:00032fa6       ?OnClose@CPropertySheet@@IAEXXZ 00433fa6 f   uafxcw:dlgprop.obj
 0001:00032fce       ?OnCommand@CPropertySheet@@UAEHIJ@Z 00433fce f   uafxcw:dlgprop.obj
 0001:00033042       ?OnCommandHelp@CPropertySheet@@IAEJIJ@Z 00434042 f   uafxcw:dlgprop.obj
 0001:00033062       ?OnCtlColor@CPropertyPage@@IAEPAUHBRUSH__@@PAVCDC@@PAVCWnd@@I@Z 00434062 f   uafxcw:dlgprop.obj
 0001:00033093       ?OnCtlColor@CPropertySheet@@IAEPAUHBRUSH__@@PAVCDC@@PAVCWnd@@I@Z 00434093 f   uafxcw:dlgprop.obj
 0001:000330d0       ?OnGetMinMaxInfo@CPropertySheet@@IAEXPAUtagMINMAXINFO@@@Z 004340d0 f   uafxcw:dlgprop.obj
 0001:0003310d       ?OnInitDialog@CPropertySheet@@UAEHXZ 0043410d f   uafxcw:dlgprop.obj
 0001:0003332d       ?OnKickIdle@CPropertySheet@@IAEJIJ@Z 0043432d f   uafxcw:dlgprop.obj
 0001:00033355       ?OnKillActive@CPropertyPage@@UAEHXZ 00434355 f   uafxcw:dlgprop.obj
 0001:00033363       ?OnNcCreate@CPropertySheet@@IAEHPAUtagCREATESTRUCTW@@@Z 00434363 f   uafxcw:dlgprop.obj
 0001:000333a6       ?OnNotify@CPropertyPage@@MAEHIJPAJ@Z 004343a6 f   uafxcw:dlgprop.obj
 0001:00033542       ?OnReset@CPropertyPage@@UAEXXZ 00434542 f   uafxcw:dlgprop.obj
 0001:0003355d       ?OnSetActive@CPropertyPage@@UAEHXZ 0043455d f   uafxcw:dlgprop.obj
 0001:0003363b       ?OnSetDefID@CPropertySheet@@IAEJIJ@Z 0043463b f   uafxcw:dlgprop.obj
 0001:000336fc       ?OnSysCommand@CPropertySheet@@IAEXIJ@Z 004346fc f   uafxcw:dlgprop.obj
 0001:00033737       ?OnWizardFinish@CPropertyPage@@UAEHXZ 00434737 f   uafxcw:dlgprop.obj
 0001:0003378f       ?OnWizardFinishEx@CPropertyPage@@UAEPAUHWND__@@XZ 0043478f f   uafxcw:dlgprop.obj
 0001:000337af       ?PreProcessPageTemplate@CPropertyPage@@IAEXAAU_PROPSHEETPAGEW@@H@Z 004347af f   uafxcw:dlgprop.obj
 0001:0003385d       ?PreTranslateMessage@CPropertyPage@@MAEHPAUtagMSG@@@Z 0043485d f   uafxcw:dlgprop.obj
 0001:0003386e       ?PreTranslateMessage@CPropertySheet@@UAEHPAUtagMSG@@@Z 0043486e f   uafxcw:dlgprop.obj
 0001:00033944       ?SetActivePage@CPropertySheet@@QAEHH@Z 00434944 f   uafxcw:dlgprop.obj
 0001:00033972       ?SetActivePage@CPropertySheet@@QAEHPAVCPropertyPage@@@Z 00434972 f   uafxcw:dlgprop.obj
 0001:00033999       ?SetTitle@CPropertySheet@@QAEXPB_WI@Z 00434999 f   uafxcw:dlgprop.obj
 0001:00033a00       ?_AfxChangePropPageFont@@YGPAUDLGTEMPLATE@@PBU1@H@Z 00434a00 f   uafxcw:dlgprop.obj
 0001:00033abc       _IsolationAwareCreatePropertySheetPageW@4 00434abc f i uafxcw:dlgprop.obj
 0001:00033bc8       _IsolationAwareDestroyPropertySheetPage@4 00434bc8 f i uafxcw:dlgprop.obj
 0001:00033c97       _IsolationAwarePropertySheetW@4 00434c97 f i uafxcw:dlgprop.obj
 0001:00033d71       _PrshtIsolationAwarePrivatetRgCebPnQQeRff_pbZPgYQP_QYY@4 00434d71 f i uafxcw:dlgprop.obj
 0001:00033e17       ??0CPtrList@@QAE@H@Z       00434e17 f   uafxcw:list_p.obj
 0001:00033e3d       ??1CPtrList@@UAE@XZ        00434e3d f   uafxcw:list_p.obj
 0001:00033e7c       ??_ECPtrList@@UAEPAXI@Z    00434e7c f i uafxcw:list_p.obj
 0001:00033e7c       ??_GCPtrList@@UAEPAXI@Z    00434e7c f i uafxcw:list_p.obj
 0001:00033ee5       ?AddHead@CObList@@QAEPAU__POSITION@@PAVCObject@@@Z 00434ee5 f   uafxcw:list_o.obj
 0001:00033ee5       ?AddHead@CPtrList@@QAEPAU__POSITION@@PAX@Z 00434ee5 f   uafxcw:list_p.obj
 0001:00033f12       ?AddTail@CObList@@QAEPAU__POSITION@@PAVCObject@@@Z 00434f12 f   uafxcw:list_o.obj
 0001:00033f12       ?AddTail@CPtrList@@QAEPAU__POSITION@@PAX@Z 00434f12 f   uafxcw:list_p.obj
 0001:00033f3e       ?Find@CObList@@QBEPAU__POSITION@@PAVCObject@@PAU2@@Z 00434f3e f   uafxcw:list_o.obj
 0001:00033f3e       ?Find@CPtrList@@QBEPAU__POSITION@@PAXPAU2@@Z 00434f3e f   uafxcw:list_p.obj
 0001:00033f65       ?FreeNode@CObList@@IAEXPAUCNode@1@@Z 00434f65 f   uafxcw:list_o.obj
 0001:00033f65       ?FreeNode@CPtrList@@IAEXPAUCNode@1@@Z 00434f65 f   uafxcw:list_p.obj
 0001:00033f8c       ?GetRuntimeClass@CPtrList@@UBEPAUCRuntimeClass@@XZ 00434f8c f   uafxcw:list_p.obj
 0001:00033f92       ?InsertBefore@CObList@@QAEPAU__POSITION@@PAU2@PAVCObject@@@Z 00434f92 f   uafxcw:list_o.obj
 0001:00033f92       ?InsertBefore@CPtrList@@QAEPAU__POSITION@@PAU2@PAX@Z 00434f92 f   uafxcw:list_p.obj
 0001:00033fd0       ?NewNode@CObList@@IAEPAUCNode@1@PAU21@0@Z 00434fd0 f   uafxcw:list_o.obj
 0001:00033fd0       ?NewNode@CPtrList@@IAEPAUCNode@1@PAU21@0@Z 00434fd0 f   uafxcw:list_p.obj
 0001:00034029       ?RemoveAt@CObList@@QAEXPAU__POSITION@@@Z 00435029 f   uafxcw:list_o.obj
 0001:00034029       ?RemoveAt@CPtrList@@QAEXPAU__POSITION@@@Z 00435029 f   uafxcw:list_p.obj
 0001:0003406c       ?RemoveHead@CObList@@QAEPAVCObject@@XZ 0043506c f   uafxcw:list_o.obj
 0001:0003406c       ?RemoveHead@CPtrList@@QAEPAXXZ 0043506c f   uafxcw:list_p.obj
 0001:0003409e       ?AfxRegisterMFCCtrlClasses@@YAXXZ 0043509e f   uafxcw:afxctrlcontainer2.obj
 0001:0003413d       ?PreUnsubclassControl@CMFCControlContainer@@IAEXPAVCWnd@@@Z 0043513d f   uafxcw:afxctrlcontainer2.obj
 0001:00034196       ?SubclassDlgControls@CMFCControlContainer@@QAEHXZ 00435196 f   uafxcw:afxctrlcontainer2.obj
 0001:0003424b       ?UTF8ToString@CMFCControlContainer@@SGHPBDAAV?$CStringT@_WV?$StrTraitMFC@_WV?$ChTraitsCRT@_W@ATL@@@@@ATL@@H@Z 0043524b f   uafxcw:afxctrlcontainer2.obj
 0001:000342d7       ??0CDialogTemplate@@QAE@PBUDLGTEMPLATE@@@Z 004352d7 f   uafxcw:dlgtempl.obj
 0001:00034312       ??1CDialogTemplate@@QAE@XZ 00435312 f   uafxcw:dlgtempl.obj
 0001:00034320       ?Detach@CDialogTemplate@@QAEPAXXZ 00435320 f   uafxcw:dlgtempl.obj
 0001:00034326       ?GetFont@CDialogTemplate@@SAHPBUDLGTEMPLATE@@AAV?$CStringT@_WV?$StrTraitMFC@_WV?$ChTraitsCRT@_W@ATL@@@@@ATL@@AAG@Z 00435326 f   uafxcw:dlgtempl.obj
 0001:00034380       ?GetFontSizeField@CDialogTemplate@@KAPAEPBUDLGTEMPLATE@@@Z 00435380 f   uafxcw:dlgtempl.obj
 0001:000343d5       ?GetTemplateSize@CDialogTemplate@@KAIPBUDLGTEMPLATE@@@Z 004353d5 f   uafxcw:dlgtempl.obj
 0001:000344c1       ?HasFont@@YAHPBUDLGTEMPLATE@@@Z 004354c1 f i uafxcw:dlgtempl.obj
 0001:000344dc       ?SetFont@CDialogTemplate@@QAEHPB_WG@Z 004354dc f   uafxcw:dlgtempl.obj
 0001:00034633       ?SetSystemFont@CDialogTemplate@@QAEHG@Z 00435633 f   uafxcw:dlgtempl.obj
 0001:000346de       ?SetTemplate@CDialogTemplate@@IAEHPBUDLGTEMPLATE@@I@Z 004356de f   uafxcw:dlgtempl.obj
 0001:00034743       ??0CMFCControlContainer@@QAE@PAVCWnd@@@Z 00435743 f   uafxcw:afxctrlcontainer.obj
 0001:00034780       ??1CMFCControlContainer@@UAE@XZ 00435780 f   uafxcw:afxctrlcontainer.obj
 0001:000347da       ??_ECMFCControlContainer@@UAEPAXI@Z 004357da f i uafxcw:afxctrlcontainer.obj
 0001:000347da       ??_GCMFCControlContainer@@UAEPAXI@Z 004357da f i uafxcw:afxctrlcontainer.obj
 0001:0003480a       ?AfxDoRegisterMFCControlClass@@YAXPB_W0@Z 0043580a f   uafxcw:afxctrlcontainer.obj
 0001:0003485b       ?ClearControlData@CMFCControlContainer@@QAEXXZ 0043585b f   uafxcw:afxctrlcontainer.obj
 0001:000348ba       ?CreateDlgControl@CMFCControlContainer@@IAEPAVCWnd@@PB_W@Z 004358ba f   uafxcw:afxctrlcontainer.obj
 0001:00034b62       ?FreeSubclassedControls@CMFCControlContainer@@QAEXXZ 00435b62 f   uafxcw:afxctrlcontainer.obj
 0001:00034bc4       ?GetControlData@CMFCControlContainer@@QAEHGAAKAAPAE@Z 00435bc4 f   uafxcw:afxctrlcontainer.obj
 0001:00034c01       ?IsSubclassedFeaturePackControl@CMFCControlContainer@@QAEHPAUHWND__@@@Z 00435c01 f   uafxcw:afxctrlcontainer.obj
 0001:00034c41       ?ReSubclassControl@CMFCControlContainer@@QAEHPAUHWND__@@GAAVCWnd@@@Z 00435c41 f   uafxcw:afxctrlcontainer.obj
 0001:00034d27       ?SetControlData@CMFCControlContainer@@QAEXGKPAE@Z 00435d27 f   uafxcw:afxctrlcontainer.obj
 0001:00034da4       ?ActivateOnBtnUp@CMFCBaseTabCtrl@@MBEHXZ 00435da4 f i uafxcw:afxpropertysheet.obj
 0001:00034dab       ?AddRemoveSeparator@CMFCOutlookBarPane@@MAEXPBVCMFCToolBarButton@@ABVCPoint@@1@Z 00435dab f i uafxcw:afxpropertysheet.obj
 0001:00034dab       ?OnAfterDock@CPane@@MAEXPAVCBasePane@@PBUtagRECT@@W4AFX_DOCK_METHOD@@@Z 00435dab f i uafxcw:afxpane.obj
 0001:00034dab       ?OnContextMenu@CMFCPrintPreviewToolBar@@IAEXPAVCWnd@@VCPoint@@@Z 00435dab f i uafxcw:afxpreviewviewex.obj
 0001:00034dab       ?OnDrawMenuLogo@CFrameWndEx@@UAEXPAVCDC@@PAVCMFCPopupMenu@@ABVCRect@@@Z 00435dab f i uafxcw:afxframewndex.obj
 0001:00034dab       ?OnDrawMenuLogo@CMDIFrameWndEx@@UAEXPAVCDC@@PAVCMFCPopupMenu@@ABVCRect@@@Z 00435dab f i uafxcw:afxmdiframewndex.obj
 0001:00034dab       ?OnDrawMenuLogo@COleDocIPFrameWndEx@@UAEXPAVCDC@@PAVCMFCPopupMenu@@ABVCRect@@@Z 00435dab f i uafxcw:afxoledocipframewndex.obj
 0001:00034dab       ?OnDrawMenuLogo@COleIPFrameWndEx@@UAEXPAVCDC@@PAVCMFCPopupMenu@@ABVCRect@@@Z 00435dab f i uafxcw:afxoleipframewndex.obj
 0001:00034dab       ?OnLBSelChangedNotify@CFileDialog@@MAEXIII@Z 00435dab f i uafxcw:dlgfile.obj
 0001:00034dab       ?OnNcLButtonDblClk@CMFCEditBrowseCtrl@@IAEXIVCPoint@@@Z 00435dab f i uafxcw:afxeditbrowsectrl.obj
 0001:00034dab       ?OnSize@COleIPFrameWnd@@IAEXIHH@Z 00435dab f i uafxcw:oleipfrm.obj
 0001:00034dae       ?CalcRectEdit@CMFCTabCtrl@@UAEXAAVCRect@@@Z 00435dae f i uafxcw:afxpropertysheet.obj
 0001:00034dce       ?CanAutoHide@CBasePane@@UBEHXZ 00435dce f i uafxcw:afxpropertysheet.obj
 0001:00034dd8       ?CanBeClosed@CMFCToolBar@@UBEHXZ 00435dd8 f i uafxcw:afxpropertysheet.obj
 0001:00034de4       ?CanBeDocked@CPane@@UBEHPAVCBasePane@@@Z 00435de4 f i uafxcw:afxpropertysheet.obj
 0001:00034e2a       ?CanBeResized@CBasePane@@UBEHXZ 00435e2a f i uafxcw:afxpropertysheet.obj
 0001:00034e34       ?CanBeRestored@CMFCOutlookBarPane@@UBEHXZ 00435e34 f i uafxcw:afxpropertysheet.obj
 0001:00034e40       ?DockPaneStandard@CPane@@UAEPAV1@AAH@Z 00435e40 f i uafxcw:afxpropertysheet.obj
 0001:00034e4f       ?DockToFrameWindow@CBasePane@@UAEHKPBUtagRECT@@KPAV1@HH@Z 00435e4f f i uafxcw:afxbasepane.obj
 0001:00034e4f       ?DockToFrameWindow@CPane@@UAEHKPBUtagRECT@@KPAVCBasePane@@HH@Z 00435e4f f i uafxcw:afxpropertysheet.obj
 0001:00034e4f       ?FloatPane@CBasePane@@UAEHVCRect@@W4AFX_DOCK_METHOD@@_N@Z 00435e4f f i uafxcw:afxbasepane.obj
 0001:00034e4f       ?OnNcPaint@CMFCVisualManager@@UAEHPAVCWnd@@ABVCObList@@VCRect@@@Z 00435e4f f i uafxcw:afxvisualmanager.obj
 0001:00034e54       ?AllowDestroyEmptyTabbedPane@CMFCOutlookBar@@UBEHXZ 00435e54 f i uafxcw:afxoutlookbar.obj
 0001:00034e54       ?DoesAllowDynInsertBefore@CBasePane@@UBEHXZ 00435e54 f i uafxcw:afxpropertysheet.obj
 0001:00034e6f       ?DoesAllowSiblingBars@CPane@@UBEHXZ 00435e6f f i uafxcw:afxpropertysheet.obj
 0001:00034e7b       ?DrawTextW@CDC@@QAEHABV?$CStringT@_WV?$StrTraitMFC@_WV?$ChTraitsCRT@_W@ATL@@@@@ATL@@PAUtagRECT@@I@Z 00435e7b f i uafxcw:afxpropertysheet.obj
 0001:00034ea8       ?GetActiveTab@CMFCBaseTabCtrl@@UBEHXZ 00435ea8 f i uafxcw:afxpropertysheet.obj
 0001:00034ea8       ?GetShutdownByRestartManager@CDataRecoveryHandler@@UBEHXZ 00435ea8 f i uafxcw:afxdatarecovery.obj
 0001:00034eaf       ?GetActiveTabColor@CMFCBaseTabCtrl@@UBEKXZ 00435eaf f i uafxcw:afxpropertysheet.obj
 0001:00034ec3       ?GetActiveTabTextColor@CMFCBaseTabCtrl@@UBEKXZ 00435ec3 f i uafxcw:afxpropertysheet.obj
 0001:00034ed7       ?GetButtonSize@CMFCToolBar@@QBE?AVCSize@@XZ 00435ed7 f i uafxcw:afxpropertysheet.obj
 0001:00034f66       ?GetColumnWidth@CMFCToolBar@@UBEHXZ 00435f66 f i uafxcw:afxpropertysheet.obj
 0001:00034f91       ?GetCommandTarget@CMFCToolBar@@MBEPAVCWnd@@XZ 00435f91 f i uafxcw:afxpropertysheet.obj
 0001:00034fd1       ?GetCurrentAlignment@CMFCOutlookBarPane@@MBEKXZ 00435fd1 f i uafxcw:afxpropertysheet.obj
 0001:00034fdd       ?GetEnabledAlignment@CBasePane@@UBEKXZ 00435fdd f i uafxcw:afxpropertysheet.obj
 0001:00034fe4       ?GetExclusiveRowMode@CPane@@UBEHXZ 00435fe4 f i uafxcw:afxpropertysheet.obj
 0001:00034feb       ?GetFirstVisibleTabNum@CMFCTabCtrl@@UBEHXZ 00435feb f i uafxcw:afxpropertysheet.obj
 0001:00035014       ?GetGlobalData@@YAPAUAFX_GLOBAL_DATA@@XZ 00436014 f i uafxcw:afxpropertysheet.obj
 0001:00035038       ?GetImageList@CMFCBaseTabCtrl@@UBEPBVCImageList@@XZ 00436038 f i uafxcw:afxpropertysheet.obj
 0001:0003505c       ?GetImageSize@CMFCBaseTabCtrl@@UBE?AVCSize@@XZ 0043605c f i uafxcw:afxpropertysheet.obj
 0001:00035077       ?GetInstance@CMFCVisualManager@@SGPAV1@XZ 00436077 f i uafxcw:afxpropertysheet.obj
 0001:000350f1       ?GetMinSize@CMFCBaseToolBar@@UBEXAAVCSize@@@Z 004360f1 f i uafxcw:afxpropertysheet.obj
 0001:0003512d       ?GetNavBarWidth@CMFCPropertySheet@@QBEHXZ 0043612d f   uafxcw:afxpropertysheet.obj
 0001:0003514d       ?GetPaneIcon@CBasePane@@UAEPAUHICON__@@H@Z 0043614d f i uafxcw:afxpropertysheet.obj
 0001:00035164       ?GetPaneStyle@CBasePane@@UBEKXZ 00436164 f i uafxcw:afxpropertysheet.obj
 0001:0003516b       ?GetRecentVisibleState@CBasePane@@UBEHXZ 0043616b f i uafxcw:afxpropertysheet.obj
 0001:00035172       ?GetDockingTabsBordersSize@CMFCVisualManager@@UAEHXZ 00436172 f i uafxcw:afxvisualmanager.obj
 0001:00035172       ?GetFirstVisibleTabNum@CMFCBaseTabCtrl@@UBEHXZ 00436172 f i uafxcw:afxbasetabctrl.obj
 0001:00035172       ?GetMDITabsBordersSize@CMFCVisualManager@@UAEHXZ 00436172 f i uafxcw:afxvisualmanager.obj
 0001:00035172       ?GetResizeStep@CPane@@UBEHXZ 00436172 f i uafxcw:afxpropertysheet.obj
 0001:00035172       ?GetToolbarDisabledColor@CMFCVisualManager@@UBEKXZ 00436172 f i uafxcw:afxvisualmanager.obj
 0001:00035176       ?GetRibbonImageScale@AFX_GLOBAL_DATA@@QAENXZ 00436176 f i uafxcw:afxpropertysheet.obj
 0001:00035189       ?GetTabArea@CMFCTabCtrl@@UBEXAAVCRect@@0@Z 00436189 f i uafxcw:afxpropertysheet.obj
 0001:000351c1       ?GetTabBorderSize@CMFCBaseTabCtrl@@UBEHXZ 004361c1 f i uafxcw:afxpropertysheet.obj
 0001:000351ea       ?GetTabsHeight@CMFCTabCtrl@@UBEHXZ 004361ea f i uafxcw:afxpropertysheet.obj
 0001:00035233       ?GetSaveDocumentInfoOnIdle@CDataRecoveryHandler@@UBEHXZ 00436233 f i uafxcw:afxdatarecovery.obj
 0001:00035233       ?GetTabsNum@CMFCBaseTabCtrl@@UBEHXZ 00436233 f i uafxcw:afxpropertysheet.obj
 0001:0003523a       ?GetTabsRect@CMFCTabCtrl@@UBEXAAVCRect@@@Z 0043623a f i uafxcw:afxpropertysheet.obj
 0001:00035252       ?IsActiveTabCloseButton@CMFCTabCtrl@@UBEHXZ 00436252 f i uafxcw:afxpropertysheet.obj
 0001:00035259       ?IsDragMode@CPane@@UBEHXZ  00436259 f i uafxcw:afxpropertysheet.obj
 0001:00035260       ?IsFlatFrame@CMFCTabCtrl@@UBEHXZ 00436260 f i uafxcw:afxpropertysheet.obj
 0001:00035267       ?IsFlatTab@CMFCTabCtrl@@UBEHXZ 00436267 f i uafxcw:afxpropertysheet.obj
 0001:0003526e       ?IsFloating@CMFCToolBar@@UBEHXZ 0043626e f i uafxcw:afxpropertysheet.obj
 0001:00035275       ?IsHideSingleTab@CMFCBaseTabCtrl@@UBEHXZ 00436275 f i uafxcw:afxpropertysheet.obj
 0001:0003527c       ?IsHorizontal@CBasePane@@UBEHXZ 0043627c f i uafxcw:afxpropertysheet.obj
 0001:0003529c       ?IsInPlaceEdit@CMFCBaseTabCtrl@@UBEHXZ 0043629c f i uafxcw:afxpropertysheet.obj
 0001:000352a3       ?IsLeftRightRounded@CMFCTabCtrl@@UBEHXZ 004362a3 f i uafxcw:afxpropertysheet.obj
 0001:000352aa       ?IsOneNoteStyle@CMFCTabCtrl@@UBEHXZ 004362aa f i uafxcw:afxpropertysheet.obj
 0001:000352b1       ?IsPureMenuButton@CMFCToolBar@@MBEHPAVCMFCToolBarButton@@@Z 004362b1 f i uafxcw:afxpropertysheet.obj
 0001:000352ba       ?IsResourceChanged@CMFCToolBar@@UBEHXZ 004362ba f i uafxcw:afxpropertysheet.obj
 0001:000352c1       ?IsRestoredFromRegistry@CBasePane@@UBEHXZ 004362c1 f i uafxcw:afxpropertysheet.obj
 0001:000352c8       ?IsVS2005Style@CMFCTabCtrl@@UBEHXZ 004362c8 f i uafxcw:afxpropertysheet.obj
 0001:000352cf       ?MoveWindow@CWnd@@QAEXPBUtagRECT@@H@Z 004362cf f i uafxcw:afxpropertysheet.obj
 0001:000352f3       ?SetControlBarStyle@CBasePane@@UAEXK@Z 004362f3 f i uafxcw:afxpropertysheet.obj
 0001:00035303       ?SetExclusiveRowMode@CPane@@UAEXH@Z 00436303 f i uafxcw:afxpropertysheet.obj
 0001:00035313       ?SetPaneAlignment@CBasePane@@UAEXK@Z 00436313 f i uafxcw:afxpropertysheet.obj
 0001:0003532e       ?SetPaneStyle@CBasePane@@UAEXK@Z 0043632e f i uafxcw:afxpropertysheet.obj
 0001:0003533e       ?SetParentCategory@CMFCRibbonBaseElement@@UAEXPAVCMFCRibbonCategory@@@Z 0043633e f i uafxcw:afxbaseribbonelement.obj
 0001:0003533e       ?SetRestoredFromRegistry@CBasePane@@UAEXH@Z 0043633e f i uafxcw:afxpropertysheet.obj
 0001:0003534e       _IsolationAwareImageList_AddMasked@12 0043634e f i uafxcw:afxpropertysheet.obj
 0001:0003542e       _IsolationAwareImageList_GetIcon@12 0043642e f i uafxcw:afxpropertysheet.obj
 0001:00035503       ??0CMFCPropertyPage@@QAE@XZ 00436503 f   uafxcw:afxpropertypage.obj
 0001:0003553e       ??1CMFCPropertyPage@@UAE@XZ 0043653e f   uafxcw:afxpropertypage.obj
 0001:0003555a       ??_ECMFCPropertyPage@@UAEPAXI@Z 0043655a f i uafxcw:afxpropertypage.obj
 0001:0003555a       ??_GCMFCPropertyPage@@UAEPAXI@Z 0043655a f i uafxcw:afxpropertypage.obj
 0001:0003558d       ?CommonInit@CMFCPropertyPage@@IAEXXZ 0043658d f   uafxcw:afxpropertypage.obj
 0001:000355aa       ?CreateObject@CMFCPropertyPage@@SGPAVCObject@@XZ 004365aa f   uafxcw:afxpropertypage.obj
 0001:000355da       ?GetMessageMap@CMFCPropertyPage@@MBEPBUAFX_MSGMAP@@XZ 004365da f   uafxcw:afxpropertypage.obj
 0001:000355e0       ?GetRuntimeClass@CMFCPropertyPage@@UBEPAUCRuntimeClass@@XZ 004365e0 f   uafxcw:afxpropertypage.obj
 0001:000355e6       ?OnActivate@CMFCPropertyPage@@IAEXIPAVCWnd@@H@Z 004365e6 f   uafxcw:afxpropertypage.obj
 0001:00035609       ?OnCommand@CDialogEx@@MAEHIJ@Z 00436609 f   uafxcw:afxdialogex.obj
 0001:00035609       ?OnCommand@CMFCPropertyPage@@MAEHIJ@Z 00436609 f   uafxcw:afxpropertypage.obj
 0001:0003563b       ?OnEraseBkgnd@CMFCPropertyPage@@IAEHPAVCDC@@@Z 0043663b f   uafxcw:afxpropertypage.obj
 0001:00035760       ?OnInitDialog@CMFCPropertyPage@@MAEHXZ 00436760 f   uafxcw:afxpropertypage.obj
 0001:00035821       ?OnNcActivate@CDialogEx@@IAEHH@Z 00436821 f   uafxcw:afxdialogex.obj
 0001:00035821       ?OnNcActivate@CMFCPropertyPage@@IAEHH@Z 00436821 f   uafxcw:afxpropertypage.obj
 0001:0003585b       ?OnSetActive@CMFCPropertyPage@@UAEHXZ 0043685b f   uafxcw:afxpropertypage.obj
 0001:000358a1       ?PreTranslateMessage@CMFCPropertyPage@@UAEHPAUtagMSG@@@Z 004368a1 f   uafxcw:afxpropertypage.obj
 0001:000358cd       ?SetActiveMenu@CDialogEx@@IAEXPAVCMFCPopupMenu@@@Z 004368cd f   uafxcw:afxdialogex.obj
 0001:000358cd       ?SetActiveMenu@CMFCPropertyPage@@IAEXPAVCMFCPopupMenu@@@Z 004368cd f   uafxcw:afxpropertypage.obj
 0001:000358dc       ?CreateObject@CObArray@@SGPAVCObject@@XZ 004368dc f   uafxcw:array_o.obj
 0001:000358fc       ??0CObArray@@QAE@XZ        004368fc f   uafxcw:array_o.obj
 0001:00035913       ??1CObArray@@UAE@XZ        00436913 f   uafxcw:array_o.obj
 0001:00035923       ??_ECObArray@@UAEPAXI@Z    00436923 f i uafxcw:array_o.obj
 0001:00035923       ??_GCObArray@@UAEPAXI@Z    00436923 f i uafxcw:array_o.obj
 0001:0003595d       ?GetRuntimeClass@CObArray@@UBEPAUCRuntimeClass@@XZ 0043695d f   uafxcw:array_o.obj
 0001:00035963       ?Serialize@CObArray@@UAEXAAVCArchive@@@Z 00436963 f   uafxcw:array_o.obj
 0001:000359d9       ?SetAtGrow@CObArray@@QAEXHPAVCObject@@@Z 004369d9 f   uafxcw:array_o.obj
 0001:000359d9       ?SetAtGrow@CPtrArray@@QAEXHPAX@Z 004369d9 f   uafxcw:array_p.obj
 0001:000359d9       ?SetAtGrow@CUIntArray@@QAEXHI@Z 004369d9 f   uafxcw:array_u.obj
 0001:00035a0c       ?SetSize@CObArray@@QAEXHH@Z 00436a0c f   uafxcw:array_o.obj
 0001:00035a0c       ?SetSize@CPtrArray@@QAEXHH@Z 00436a0c f   uafxcw:array_p.obj
 0001:00035a0c       ?SetSize@CUIntArray@@QAEXHH@Z 00436a0c f   uafxcw:array_u.obj
 0001:00035b8d       ?AfxWingdixTerm@@YAXXZ     00436b8d f   uafxcw:wingdix.obj
 0001:00035b98       ?DPtoHIMETRIC@CDC@@QBEXPAUtagSIZE@@@Z 00436b98 f   uafxcw:wingdix.obj
 0001:00035c3b       ?Draw3dRect@CDC@@QAEXHHHHKK@Z 00436c3b f   uafxcw:wingdix.obj
 0001:00035ca3       ?Draw3dRect@CDC@@QAEXPBUtagRECT@@KK@Z 00436ca3 f   uafxcw:wingdix.obj
 0001:00035cca       ?DrawDragRect@CDC@@QAEXPBUtagRECT@@UtagSIZE@@01PAVCBrush@@2@Z 00436cca f   uafxcw:wingdix.obj
 0001:00035f89       ?FillSolidRect@CDC@@QAEXHHHHK@Z 00436f89 f   uafxcw:wingdix.obj
 0001:00035fe9       ?FillSolidRect@CDC@@QAEXPBUtagRECT@@K@Z 00436fe9 f   uafxcw:wingdix.obj
 0001:0003602b       ?GetHalftoneBrush@CDC@@SGPAVCBrush@@XZ 0043702b f   uafxcw:wingdix.obj
 0001:000360cf       ?HIMETRICtoDP@CDC@@QBEXPAUtagSIZE@@@Z 004370cf f   uafxcw:wingdix.obj
 0001:00036172       ??0CPtrArray@@QAE@XZ       00437172 f   uafxcw:array_p.obj
 0001:00036189       ??1CPtrArray@@UAE@XZ       00437189 f   uafxcw:array_p.obj
 0001:00036199       ??_ECPtrArray@@UAEPAXI@Z   00437199 f i uafxcw:array_p.obj
 0001:00036199       ??_GCPtrArray@@UAEPAXI@Z   00437199 f i uafxcw:array_p.obj
 0001:000361d3       ?GetRuntimeClass@CPtrArray@@UBEPAUCRuntimeClass@@XZ 004371d3 f   uafxcw:array_p.obj
 0001:000361d9       ?InsertAt@CPtrArray@@QAEXHPAXH@Z 004371d9 f   uafxcw:array_p.obj
 0001:00036287       ?RemoveAt@?$CArray@HH@@QAEXHH@Z 00437287 f   uafxcw:afxbasetabctrl.obj
 0001:00036287       ?RemoveAt@?$CArray@PAVCMFCRibbonBaseElement@@PAV1@@@QAEXHH@Z 00437287 f   uafxcw:afxribbonbutton.obj
 0001:00036287       ?RemoveAt@CPtrArray@@QAEXHH@Z 00437287 f   uafxcw:array_p.obj
 0001:000362db       ?SetAt@?$CArray@HH@@QAEXHH@Z 004372db f i uafxcw:afxtoolbarslistcheckbox.obj
 0001:000362db       ?SetAt@CPtrArray@@QAEXHPAX@Z 004372db f i uafxcw:array_p.obj
 0001:000362fd       ??0CMiniFrameWnd@@QAE@XZ   004372fd f   uafxcw:winmini.obj
 0001:00036329       ??1CMiniFrameWnd@@UAE@XZ   00437329 f   uafxcw:winmini.obj
 0001:00036381       ??_ECMiniFrameWnd@@UAEPAXI@Z 00437381 f i uafxcw:winmini.obj
 0001:00036381       ??_GCMiniFrameWnd@@UAEPAXI@Z 00437381 f i uafxcw:winmini.obj
 0001:000363b4       ?CalcBorders@CMiniFrameWnd@@SGXPAUtagRECT@@KK@Z 004373b4 f   uafxcw:winmini.obj
 0001:000363ce       ?Create@CMiniFrameWnd@@UAEHPB_W0KABUtagRECT@@PAVCWnd@@I@Z 004373ce f   uafxcw:winmini.obj
 0001:000363ee       ?CreateEx@CMiniFrameWnd@@UAEHKPB_W0KABUtagRECT@@PAVCWnd@@I@Z 004373ee f   uafxcw:winmini.obj
 0001:00036489       ?CreateObject@CMiniFrameWnd@@SGPAVCObject@@XZ 00437489 f   uafxcw:winmini.obj
 0001:000364b9       ?GetMessageMap@CMiniFrameWnd@@MBEPBUAFX_MSGMAP@@XZ 004374b9 f   uafxcw:winmini.obj
 0001:000364b9       ?GetThisMessageMap@CMiniFrameWnd@@KGPBUAFX_MSGMAP@@XZ 004374b9 f   uafxcw:winmini.obj
 0001:000364bf       ?GetRuntimeClass@CMiniFrameWnd@@UBEPAUCRuntimeClass@@XZ 004374bf f   uafxcw:winmini.obj
 0001:000364c5       ?OnFloatStatus@CMiniFrameWnd@@QAEJIJ@Z 004374c5 f   uafxcw:winmini.obj
 0001:000364c5       ?OnFloatStatus@CPaneFrameWnd@@IAEJIJ@Z 004374c5 f   uafxcw:afxpaneframewnd.obj
 0001:0003656c       ?OnGetMinMaxInfo@CMiniFrameWnd@@QAEXPAUtagMINMAXINFO@@@Z 0043756c f   uafxcw:winmini.obj
 0001:000365e4       ?OnNcActivate@CMiniFrameWnd@@QAEHH@Z 004375e4 f   uafxcw:winmini.obj
 0001:00036611       ?OnNcCreate@CMiniFrameWnd@@QAEHPAUtagCREATESTRUCTW@@@Z 00437611 f   uafxcw:winmini.obj
 0001:00036611       ?OnNcCreate@CPaneFrameWnd@@IAEHPAUtagCREATESTRUCTW@@@Z 00437611 f   uafxcw:afxpaneframewnd.obj
 0001:0003669c       ?OnNcHitTest@CMiniFrameWnd@@QAEJVCPoint@@@Z 0043769c f   uafxcw:winmini.obj
 0001:000367c6       ?OnQueryCenterWnd@CMiniFrameWnd@@QAEJIJ@Z 004377c6 f   uafxcw:winmini.obj
 0001:000367ec       ?OnSysCommand@CMiniFrameWnd@@QAEXIJ@Z 004377ec f   uafxcw:winmini.obj
 0001:00036855       ?PreCreateWindow@CMiniFrameWnd@@MAEHAAUtagCREATESTRUCTW@@@Z 00437855 f   uafxcw:winmini.obj
 0001:00036891       ??0CControlBar@@IAE@XZ     00437891 f   uafxcw:barcore.obj
 0001:0003691e       ??1CControlBar@@UAE@XZ     0043791e f   uafxcw:barcore.obj
 0001:000369c4       ?AllocElements@CControlBar@@QAEHHH@Z 004379c4 f   uafxcw:barcore.obj
 0001:00036a2d       ?CalcDynamicLayout@CControlBar@@UAE?AVCSize@@HK@Z 00437a2d f   uafxcw:barcore.obj
 0001:00036a61       ?CalcFixedLayout@CBasePane@@UAE?AVCSize@@HH@Z 00437a61 f   uafxcw:afxbasepane.obj
 0001:00036a61       ?CalcFixedLayout@CControlBar@@UAE?AVCSize@@HH@Z 00437a61 f   uafxcw:barcore.obj
 0001:00036a94       ?CalcInsideRect@CControlBar@@UBEXAAVCRect@@H@Z 00437a94 f   uafxcw:barcore.obj
 0001:00036b83       ?DelayShow@CControlBar@@UAEXH@Z 00437b83 f   uafxcw:barcore.obj
 0001:00036bbe       ?DestroyWindow@CControlBar@@UAEHXZ 00437bbe f   uafxcw:barcore.obj
 0001:00036bf6       ?DoPaint@CControlBar@@UAEXPAVCDC@@@Z 00437bf6 f   uafxcw:barcore.obj
 0001:00036c6c       ?DrawBorders@CControlBar@@UAEXPAVCDC@@AAVCRect@@@Z 00437c6c f   uafxcw:barcore.obj
 0001:00036eee       ?DrawGripper@CControlBar@@UAEXPAVCDC@@ABVCRect@@@Z 00437eee f   uafxcw:barcore.obj
 0001:00036f53       ?DrawNCGripper@CControlBar@@UAEXPAVCDC@@ABVCRect@@@Z 00437f53 f   uafxcw:barcore.obj
 0001:00036fb8       ?DrawNonThemedGripper@CControlBar@@UAEHPAVCDC@@ABVCRect@@@Z 00437fb8 f   uafxcw:barcore.obj
 0001:00037059       ?DrawThemedGripper@CControlBar@@UAEHPAVCDC@@ABVCRect@@H@Z 00438059 f   uafxcw:barcore.obj
 0001:00037230       ?EraseNonClient@CControlBar@@QAEXXZ 00438230 f   uafxcw:barcore.obj
 0001:00037322       ?GetThisMessageMap@CControlBar@@KGPBUAFX_MSGMAP@@XZ 00438322 f   uafxcw:barcore.obj
 0001:00037328       ?IsVisible@CControlBar@@UBEHXZ 00438328 f   uafxcw:barcore.obj
 0001:00037349       ?OnCancel@CCommonDialog@@MAEXXZ 00438349 f i uafxcw:dlgcomm.obj
 0001:00037349       ?OnCancelMode@CMFCColorPickerCtrl@@IAEXXZ 00438349 f i uafxcw:afxcolorpickerctrl.obj
 0001:00037349       ?OnCancelMode@CWnd@@IAEXXZ 00438349 f i uafxcw:barcore.obj
 0001:00037349       ?OnPaint@CCommonDialog@@IAEXXZ 00438349 f i uafxcw:dlgcomm.obj
 0001:0003734e       ?OnCreate@CControlBar@@QAEHPAUtagCREATESTRUCTW@@@Z 0043834e f   uafxcw:barcore.obj
 0001:000373f7       ?OnCtlColor@CControlBar@@QAEPAUHBRUSH__@@PAVCDC@@PAVCWnd@@I@Z 004383f7 f   uafxcw:barcore.obj
 0001:00037454       ?OnDestroy@CControlBar@@QAEXXZ 00438454 f   uafxcw:barcore.obj
 0001:000374cc       ?OnHelpHitTest@CBasePane@@IAEJIJ@Z 004384cc f   uafxcw:afxbasepane.obj
 0001:000374cc       ?OnHelpHitTest@CControlBar@@QAEJIJ@Z 004384cc f   uafxcw:barcore.obj
 0001:00037524       ?OnIdleUpdateCmdUI@CControlBar@@QAEJIJ@Z 00438524 f   uafxcw:barcore.obj
 0001:000375ec       ?OnInitialUpdate@CControlBar@@QAEXXZ 004385ec f   uafxcw:barcore.obj
 0001:000375f6       ?OnLButtonDblClk@CControlBar@@QAEXIVCPoint@@@Z 004385f6 f   uafxcw:barcore.obj
 0001:0003764a       ?OnLButtonDown@CControlBar@@QAEXIVCPoint@@@Z 0043864a f   uafxcw:barcore.obj
 0001:000376b0       ?OnMouseActivate@CControlBar@@QAEHPAVCWnd@@II@Z 004386b0 f   uafxcw:barcore.obj
 0001:000376d1       ?OnPaint@CControlBar@@QAEXXZ 004386d1 f   uafxcw:barcore.obj
 0001:0003772a       ?OnSizeParent@CControlBar@@QAEJIJ@Z 0043872a f   uafxcw:barcore.obj
 0001:000378c5       ?OnThemeChanged@CControlBar@@QAEJXZ 004388c5 f   uafxcw:barcore.obj
 0001:00037910       ?OnTimer@CControlBar@@QAEXI@Z 00438910 f   uafxcw:barcore.obj
 0001:00037ab7       ?OnWindowPosChanging@CControlBar@@QAEXPAUtagWINDOWPOS@@@Z 00438ab7 f   uafxcw:barcore.obj
 0001:00037be4       ?PostNcDestroy@CControlBar@@UAEXXZ 00438be4 f   uafxcw:barcore.obj
 0001:00037c07       ?PreCreateWindow@CControlBar@@UAEHAAUtagCREATESTRUCTW@@@Z 00438c07 f   uafxcw:barcore.obj
 0001:00037c79       ?PreTranslateMessage@CControlBar@@UAEHPAUtagMSG@@@Z 00438c79 f   uafxcw:barcore.obj
 0001:00037ec1       ?RecalcDelayShow@CControlBar@@UAEKPAUAFX_SIZEPARENTPARAMS@@@Z 00438ec1 f   uafxcw:barcore.obj
 0001:00037f5c       ?ResetTimer@CControlBar@@QAEXII@Z 00438f5c f   uafxcw:barcore.obj
 0001:00037f94       ?SetBarStyle@CControlBar@@QAEXK@Z 00438f94 f   uafxcw:barcore.obj
 0001:00037fd5       ?SetBorders@CControlBar@@QAEXHHHH@Z 00438fd5 f   uafxcw:barcore.obj
 0001:00038000       ?SetStatusText@CControlBar@@UAEHH@Z 00439000 f   uafxcw:barcore.obj
 0001:0003809d       ?WindowProc@CControlBar@@UAEJIIJ@Z 0043909d f   uafxcw:barcore.obj
 0001:000381aa       ??0CDockContext@@QAE@PAVCControlBar@@@Z 004391aa f   uafxcw:dockcont.obj
 0001:00038287       ??1CDockContext@@UAE@XZ    00439287 f   uafxcw:dockcont.obj
 0001:000383a5       ??_ECDockContext@@UAEPAXI@Z 004393a5 f i uafxcw:dockcont.obj
 0001:000383a5       ??_GCDockContext@@UAEPAXI@Z 004393a5 f i uafxcw:dockcont.obj
 0001:000383ca       ?CanDock@CDockContext@@QAEKXZ 004393ca f   uafxcw:dockcont.obj
 0001:00038542       ?CancelLoop@CDockContext@@QAEXXZ 00439542 f   uafxcw:dockcont.obj
 0001:00038589       ?DrawFocusRect@CDockContext@@QAEXH@Z 00439589 f   uafxcw:dockcont.obj
 0001:000386d9       ?EndDrag@CDockContext@@QAEXXZ 004396d9 f   uafxcw:dockcont.obj
 0001:00038811       ?EndResize@CDockContext@@QAEXXZ 00439811 f   uafxcw:dockcont.obj
 0001:0003886e       ?GetDockBar@CDockContext@@QAEPAVCDockBar@@K@Z 0043986e f   uafxcw:dockcont.obj
 0001:000388ba       ?InitLoop@CDockContext@@QAEXXZ 004398ba f   uafxcw:dockcont.obj
 0001:00038973       ?Move@CDockContext@@QAEXVCPoint@@@Z 00439973 f   uafxcw:dockcont.obj
 0001:000389ea       ?OnKey@CDockContext@@QAEXHH@Z 004399ea f   uafxcw:dockcont.obj
 0001:00038a11       ?StartDrag@CDockContext@@UAEXVCPoint@@@Z 00439a11 f   uafxcw:dockcont.obj
 0001:00038e2c       ?StartResize@CDockContext@@UAEXHVCPoint@@@Z 00439e2c f   uafxcw:dockcont.obj
 0001:00038f9d       ?Stretch@CDockContext@@QAEXVCPoint@@@Z 00439f9d f   uafxcw:dockcont.obj
 0001:00039151       ?ToggleDocking@CDockContext@@UAEXXZ 0043a151 f   uafxcw:dockcont.obj
 0001:00039260       ?Track@CDockContext@@QAEHXZ 0043a260 f   uafxcw:dockcont.obj
 0001:00039389       ?UpdateState@CDockContext@@QAEXPAHH@Z 0043a389 f   uafxcw:dockcont.obj
 0001:000393e9       ?_AfxAdjustRectangle@@YGXAAVCRect@@VCPoint@@@Z 0043a3e9 f   uafxcw:dockcont.obj
 0001:0003942c       ??0CMapStringToPtr@@QAE@H@Z 0043a42c f   uafxcw:map_sp.obj
 0001:0003945d       ??1CMapStringToPtr@@UAE@XZ 0043a45d f   uafxcw:map_sp.obj
 0001:0003949c       ??ACMapStringToPtr@@QAEAAPAXPB_W@Z 0043a49c f   uafxcw:map_sp.obj
 0001:0003951a       ??_ECMapStringToPtr@@UAEPAXI@Z 0043a51a f i uafxcw:map_sp.obj
 0001:0003951a       ??_GCMapStringToPtr@@UAEPAXI@Z 0043a51a f i uafxcw:map_sp.obj
 0001:00039583       ?GetAssocAt@CMapStringToPtr@@IBEPAUCAssoc@1@PB_WAAI1@Z 0043a583 f   uafxcw:map_sp.obj
 0001:000395d8       ?GetRuntimeClass@CMapStringToPtr@@UBEPAUCRuntimeClass@@XZ 0043a5d8 f   uafxcw:map_sp.obj
 0001:000395de       ?HashKey@CMapStringToPtr@@QBEIPB_W@Z 0043a5de f i uafxcw:map_sp.obj
 0001:00039631       ?Lookup@CMapStringToPtr@@QBEHPB_WAAPAX@Z 0043a631 f   uafxcw:map_sp.obj
 0001:00039659       ?LookupKey@CMapStringToPtr@@QBEHPB_WAAPB_W@Z 0043a659 f   uafxcw:map_sp.obj
 0001:00039681       ?NewAssoc@CMapStringToPtr@@IAEPAUCAssoc@1@XZ 0043a681 f   uafxcw:map_sp.obj
 0001:000396d7       ?RemoveAll@CMapStringToPtr@@QAEXXZ 0043a6d7 f   uafxcw:map_sp.obj
 0001:00039737       ??0CArchiveStream@@QAE@PAVCArchive@@@Z 0043a737 f   uafxcw:arcstrm.obj
 0001:0003974c       ?CopyTo@CArchiveStream@@UAGJPAUIStream@@T_ULARGE_INTEGER@@PAT3@2@Z 0043a74c f   uafxcw:arcstrm.obj
 0001:0003974c       ?GetIDsOfNames@XAmbientProps@COleControlSite@@UAGJABU_GUID@@PAPA_WIKPAJ@Z 0043a74c f   uafxcw:occsite.obj
 0001:0003974c       ?GetIDsOfNames@XEventSink@COleControlSite@@UAGJABU_GUID@@PAPA_WIKPAJ@Z 0043a74c f   uafxcw:occsite.obj
 0001:0003974c       ?LockRegion@CArchiveStream@@UAGJT_ULARGE_INTEGER@@0K@Z 0043a74c f   uafxcw:arcstrm.obj
 0001:0003974c       ?UnlockRegion@CArchiveStream@@UAGJT_ULARGE_INTEGER@@0K@Z 0043a74c f   uafxcw:arcstrm.obj
 0001:0003974c       ?get_accHelpTopic@CMFCBaseAccessibleObject@@UAEJPAPA_WUtagVARIANT@@PAJ@Z 0043a74c f   uafxcw:afxbaseribbonelement.obj
 0001:00039754       ?QueryInterface@CArchiveStream@@UAGJABU_GUID@@PAPAX@Z 0043a754 f   uafxcw:arcstrm.obj
 0001:000397a3       ?Read@CArchiveStream@@UAGJPAXKPAK@Z 0043a7a3 f   uafxcw:arcstrm.obj
 0001:000397f5       ?RequestNewObjectLayout@XOleClientSite@COleControlSite@@UAGJXZ 0043a7f5 f   uafxcw:occsite.obj
 0001:000397f5       ?Revert@CArchiveStream@@UAGJXZ 0043a7f5 f   uafxcw:arcstrm.obj
 0001:000397f5       ?SaveObject@XOleClientSite@COleControlSite@@UAGJXZ 0043a7f5 f   uafxcw:occsite.obj
 0001:000397f5       ?ShowPropertyFrame@XOleControlSite@COleControlSite@@UAGJXZ 0043a7f5 f   uafxcw:occsite.obj
 0001:000397fd       ?Seek@CArchiveStream@@UAGJT_LARGE_INTEGER@@KPAT_ULARGE_INTEGER@@@Z 0043a7fd f   uafxcw:arcstrm.obj
 0001:00039874       ?InsertMenus@XOleIPFrame@COleControlContainer@@UAGJPAUHMENU__@@PAUtagOleMenuGroupWidths@@@Z 0043a874 f   uafxcw:occcont.obj
 0001:00039874       ?Stat@CArchiveStream@@UAGJPAUtagSTATSTG@@K@Z 0043a874 f   uafxcw:arcstrm.obj
 0001:00039874       ?TranslateAcceleratorW@XOleControlSite@COleControlSite@@UAGJPAUtagMSG@@K@Z 0043a874 f   uafxcw:occsite.obj
 0001:00039874       ?TranslateAcceleratorW@XOleIPFrame@COleControlContainer@@UAGJPAUtagMSG@@G@Z 0043a874 f   uafxcw:occcont.obj
 0001:0003987c       ?Write@CArchiveStream@@UAGJPBXKPAK@Z 0043a87c f   uafxcw:arcstrm.obj
 0001:000398cf       ??0CRecentFileList@@QAE@IPB_W0HH@Z 0043a8cf f   uafxcw:filelist.obj
 0001:000399b6       ??1CRecentFileList@@UAE@XZ 0043a9b6 f   uafxcw:filelist.obj
 0001:000399ef       ??HATL@@YA?AV?$CStringT@_WV?$StrTraitMFC@_WV?$ChTraitsCRT@_W@ATL@@@@@0@ABV10@0@Z 0043a9ef f i uafxcw:filelist.obj
 0001:00039a42       ??_E?$CStringT@_WV?$StrTraitMFC@_WV?$ChTraitsCRT@_W@ATL@@@@@ATL@@QAEPAXI@Z 0043aa42 f i uafxcw:filelist.obj
 0001:00039ad2       ??_ECRecentFileList@@UAEPAXI@Z 0043aad2 f i uafxcw:filelist.obj
 0001:00039ad2       ??_GCRecentFileList@@UAEPAXI@Z 0043aad2 f i uafxcw:filelist.obj
 0001:00039af4       ?Add@CRecentFileList@@QAEXPAUIShellItem@@PB_W@Z 0043aaf4 f   uafxcw:filelist.obj
 0001:00039b51       ?Add@CRecentFileList@@UAEXPB_W0@Z 0043ab51 f   uafxcw:filelist.obj
 0001:00039c22       ?Add@CRecentFileList@@UAEXPB_W@Z 0043ac22 f   uafxcw:filelist.obj
 0001:00039ce8       ?GetDisplayName@CRecentFileList@@UBEHAAV?$CStringT@_WV?$StrTraitMFC@_WV?$ChTraitsCRT@_W@ATL@@@@@ATL@@HPB_WHH@Z 0043ace8 f   uafxcw:filelist.obj
 0001:00039ebb       ?ReadList@CRecentFileList@@UAEXXZ 0043aebb f   uafxcw:filelist.obj
 0001:00039f7a       ?Remove@CRecentFileList@@UAEXH@Z 0043af7a f   uafxcw:filelist.obj
 0001:00039fc3       ?UpdateMenu@CRecentFileList@@UAEXPAVCCmdUI@@@Z 0043afc3 f   uafxcw:filelist.obj
 0001:0003a2a8       ?WriteList@CRecentFileList@@UAEXXZ 0043b2a8 f   uafxcw:filelist.obj
 0001:0003a357       ?_AfxAbbreviateName@@YGXPA_WHH@Z 0043b357 f   uafxcw:filelist.obj
 0001:0003a47f       ?tcscat_s@Checked@ATL@@YAXPA_WIPB_W@Z 0043b47f f i uafxcw:filelist.obj
 0001:0003a49b       ??$CompareElements@V?$CStringT@_WV?$StrTraitMFC@_WV?$ChTraitsCRT@_W@ATL@@@@@ATL@@PB_W@@YGHPBV?$CStringT@_WV?$StrTraitMFC@_WV?$ChTraitsCRT@_W@ATL@@@@@ATL@@PBQB_W@Z 0043b49b f i uafxcw:afxdatarecovery.obj
 0001:0003a4c4       ??$SerializeElements@_N@@YGXAAVCArchive@@PA_NH@Z 0043b4c4 f i uafxcw:afxdatarecovery.obj
 0001:0003a54a       ??0?$CMap@PAVCDocument@@PAV1@V?$CStringT@_WV?$StrTraitMFC@_WV?$ChTraitsCRT@_W@ATL@@@@@ATL@@PB_W@@QAE@H@Z 0043b54a f i uafxcw:afxdatarecovery.obj
 0001:0003a574       ??0?$CMap@V?$CStringT@_WV?$StrTraitMFC@_WV?$ChTraitsCRT@_W@ATL@@@@@ATL@@PB_WPAVCDocument@@PAV3@@@QAE@H@Z 0043b574 f i uafxcw:afxdatarecovery.obj
 0001:0003a59e       ??0?$CMap@V?$CStringT@_WV?$StrTraitMFC@_WV?$ChTraitsCRT@_W@ATL@@@@@ATL@@PB_WV12@PB_W@@QAE@H@Z 0043b59e f i uafxcw:afxdatarecovery.obj
 0001:0003a5c8       ??0?$CMap@V?$CStringT@_WV?$StrTraitMFC@_WV?$ChTraitsCRT@_W@ATL@@@@@ATL@@PB_W_N_N@@QAE@H@Z 0043b5c8 f i uafxcw:afxdatarecovery.obj
 0001:0003a5f2       ??0CDataRecoveryHandler@@QAE@KH@Z 0043b5f2 f   uafxcw:afxdatarecovery.obj
 0001:0003a698       ??1?$CMap@PAVCDocument@@PAV1@V?$CStringT@_WV?$StrTraitMFC@_WV?$ChTraitsCRT@_W@ATL@@@@@ATL@@PB_W@@UAE@XZ 0043b698 f i uafxcw:afxdatarecovery.obj
 0001:0003a6d7       ??1?$CMap@V?$CStringT@_WV?$StrTraitMFC@_WV?$ChTraitsCRT@_W@ATL@@@@@ATL@@PB_WPAVCDocument@@PAV3@@@UAE@XZ 0043b6d7 f i uafxcw:afxdatarecovery.obj
 0001:0003a716       ??1?$CMap@V?$CStringT@_WV?$StrTraitMFC@_WV?$ChTraitsCRT@_W@ATL@@@@@ATL@@PB_WV12@PB_W@@UAE@XZ 0043b716 f i uafxcw:afxdatarecovery.obj
 0001:0003a755       ??1?$CMap@V?$CStringT@_WV?$StrTraitMFC@_WV?$ChTraitsCRT@_W@ATL@@@@@ATL@@PB_W_N_N@@UAE@XZ 0043b755 f i uafxcw:afxdatarecovery.obj
 0001:0003a794       ??1CDataRecoveryHandler@@UAE@XZ 0043b794 f   uafxcw:afxdatarecovery.obj
 0001:0003a89a       ??1CPair@?$CMap@V?$CStringT@_WV?$StrTraitMFC@_WV?$ChTraitsCRT@_W@ATL@@@@@ATL@@PB_WV12@PB_W@@QAE@XZ 0043b89a f i uafxcw:afxdatarecovery.obj
 0001:0003a8b3       ??A?$CMap@PAVCDocument@@PAV1@V?$CStringT@_WV?$StrTraitMFC@_WV?$ChTraitsCRT@_W@ATL@@@@@ATL@@PB_W@@QAEAAV?$CStringT@_WV?$StrTraitMFC@_WV?$ChTraitsCRT@_W@ATL@@@@@ATL@@PAVCDocument@@@Z 0043b8b3 f i uafxcw:afxdatarecovery.obj
 0001:0003a91a       ??A?$CMap@V?$CStringT@_WV?$StrTraitMFC@_WV?$ChTraitsCRT@_W@ATL@@@@@ATL@@PB_WHH@@QAEAAHPB_W@Z 0043b91a f i uafxcw:afxmousemanager.obj
 0001:0003a91a       ??A?$CMap@V?$CStringT@_WV?$StrTraitMFC@_WV?$ChTraitsCRT@_W@ATL@@@@@ATL@@PB_WPAVCDocument@@PAV3@@@QAEAAPAVCDocument@@PB_W@Z 0043b91a f i uafxcw:afxdatarecovery.obj
 0001:0003a91a       ??A?$CMap@V?$CStringT@_WV?$StrTraitMFC@_WV?$ChTraitsCRT@_W@ATL@@@@@ATL@@PB_WPAVCObList@@PAV3@@@QAEAAPAVCObList@@PB_W@Z 0043b91a f i uafxcw:afxtoolbarscustomizedialog.obj
 0001:0003a91a       ??A?$CMap@V?$CStringT@_WV?$StrTraitMFC@_WV?$ChTraitsCRT@_W@ATL@@@@@ATL@@PB_W_N_N@@QAEAA_NPB_W@Z 0043b91a f i uafxcw:afxdatarecovery.obj
 0001:0003a981       ??A?$CMap@V?$CStringT@_WV?$StrTraitMFC@_WV?$ChTraitsCRT@_W@ATL@@@@@ATL@@PB_WV12@PB_W@@QAEAAV?$CStringT@_WV?$StrTraitMFC@_WV?$ChTraitsCRT@_W@ATL@@@@@ATL@@PB_W@Z 0043b981 f i uafxcw:afxdatarecovery.obj
 0001:0003a9e8       ??_E?$CMap@PAVCDocument@@PAV1@V?$CStringT@_WV?$StrTraitMFC@_WV?$ChTraitsCRT@_W@ATL@@@@@ATL@@PB_W@@UAEPAXI@Z 0043b9e8 f i uafxcw:afxdatarecovery.obj
 0001:0003a9e8       ??_G?$CMap@PAVCDocument@@PAV1@V?$CStringT@_WV?$StrTraitMFC@_WV?$ChTraitsCRT@_W@ATL@@@@@ATL@@PB_W@@UAEPAXI@Z 0043b9e8 f i uafxcw:afxdatarecovery.obj
 0001:0003aa51       ??_E?$CMap@V?$CStringT@_WV?$StrTraitMFC@_WV?$ChTraitsCRT@_W@ATL@@@@@ATL@@PB_WPAVCDocument@@PAV3@@@UAEPAXI@Z 0043ba51 f i uafxcw:afxdatarecovery.obj
 0001:0003aa51       ??_G?$CMap@V?$CStringT@_WV?$StrTraitMFC@_WV?$ChTraitsCRT@_W@ATL@@@@@ATL@@PB_WPAVCDocument@@PAV3@@@UAEPAXI@Z 0043ba51 f i uafxcw:afxdatarecovery.obj
 0001:0003aaba       ??_E?$CMap@V?$CStringT@_WV?$StrTraitMFC@_WV?$ChTraitsCRT@_W@ATL@@@@@ATL@@PB_WV12@PB_W@@UAEPAXI@Z 0043baba f i uafxcw:afxdatarecovery.obj
 0001:0003aaba       ??_G?$CMap@V?$CStringT@_WV?$StrTraitMFC@_WV?$ChTraitsCRT@_W@ATL@@@@@ATL@@PB_WV12@PB_W@@UAEPAXI@Z 0043baba f i uafxcw:afxdatarecovery.obj
 0001:0003ab23       ??_E?$CMap@V?$CStringT@_WV?$StrTraitMFC@_WV?$ChTraitsCRT@_W@ATL@@@@@ATL@@PB_W_N_N@@UAEPAXI@Z 0043bb23 f i uafxcw:afxdatarecovery.obj
 0001:0003ab23       ??_G?$CMap@V?$CStringT@_WV?$StrTraitMFC@_WV?$ChTraitsCRT@_W@ATL@@@@@ATL@@PB_W_N_N@@UAEPAXI@Z 0043bb23 f i uafxcw:afxdatarecovery.obj
 0001:0003ab8c       ??_ECDataRecoveryHandler@@UAEPAXI@Z 0043bb8c f i uafxcw:afxdatarecovery.obj
 0001:0003ab8c       ??_GCDataRecoveryHandler@@UAEPAXI@Z 0043bb8c f i uafxcw:afxdatarecovery.obj
 0001:0003abbf       ?AfxAutosaveTimerProc@@YGXPAUHWND__@@IIK@Z 0043bbbf f   uafxcw:afxdatarecovery.obj
 0001:0003abff       ?AutosaveAllDocumentInfo@CDataRecoveryHandler@@UAEHXZ 0043bbff f   uafxcw:afxdatarecovery.obj
 0001:0003acce       ?AutosaveDocumentInfo@CDataRecoveryHandler@@UAEHPAVCDocument@@H@Z 0043bcce f   uafxcw:afxdatarecovery.obj
 0001:0003af17       ?CreateDocumentInfo@CDataRecoveryHandler@@UAEHPAVCDocument@@@Z 0043bf17 f   uafxcw:afxdatarecovery.obj
 0001:0003b042       ?DeleteAllAutosavedFiles@CDataRecoveryHandler@@UAEHXZ 0043c042 f   uafxcw:afxdatarecovery.obj
 0001:0003b102       ?DeleteAutosavedFile@CDataRecoveryHandler@@UAEHABV?$CStringT@_WV?$StrTraitMFC@_WV?$ChTraitsCRT@_W@ATL@@@@@ATL@@@Z 0043c102 f   uafxcw:afxdatarecovery.obj
 0001:0003b134       ?DeleteSubKey@CRegKey@ATL@@QAEJPB_W@Z 0043c134 f i uafxcw:afxdatarecovery.obj
 0001:0003b1eb       ?FreeAssoc@?$CMap@PAVCDocument@@PAV1@V?$CStringT@_WV?$StrTraitMFC@_WV?$ChTraitsCRT@_W@ATL@@@@@ATL@@PB_W@@IAEXPAVCAssoc@1@@Z 0043c1eb f i uafxcw:afxdatarecovery.obj
 0001:0003b21c       ?FreeAssoc@?$CMap@V?$CStringT@_WV?$StrTraitMFC@_WV?$ChTraitsCRT@_W@ATL@@@@@ATL@@PB_WPAVCDocument@@PAV3@@@IAEXPAVCAssoc@1@@Z 0043c21c f i uafxcw:afxdatarecovery.obj
 0001:0003b24c       ?FreeAssoc@?$CMap@V?$CStringT@_WV?$StrTraitMFC@_WV?$ChTraitsCRT@_W@ATL@@@@@ATL@@PB_WV12@PB_W@@IAEXPAVCAssoc@1@@Z 0043c24c f i uafxcw:afxdatarecovery.obj
 0001:0003b279       ?GenerateAutosaveFileName@CDataRecoveryHandler@@UBE?AV?$CStringT@_WV?$StrTraitMFC@_WV?$ChTraitsCRT@_W@ATL@@@@@ATL@@ABV23@@Z 0043c279 f   uafxcw:afxdatarecovery.obj
 0001:0003b3d4       ?GetAssocAt@?$CMap@HHHH@@IBEPAVCAssoc@1@HAAI0@Z 0043c3d4 f i uafxcw:afxheaderctrl.obj
 0001:0003b3d4       ?GetAssocAt@?$CMap@HHII@@IBEPAVCAssoc@1@HAAI0@Z 0043c3d4 f i uafxcw:afxvslistbox.obj
 0001:0003b3d4       ?GetAssocAt@?$CMap@IIHH@@IBEPAVCAssoc@1@IAAI0@Z 0043c3d4 f i uafxcw:afxtoolbarimages.obj
 0001:0003b3d4       ?GetAssocAt@?$CMap@IIII@@IBEPAVCAssoc@1@IAAI0@Z 0043c3d4 f i uafxcw:afxpopupmenubar.obj
 0001:0003b3d4       ?GetAssocAt@?$CMap@IIKK@@IBEPAVCAssoc@1@IAAI0@Z 0043c3d4 f i uafxcw:afxcolorbar.obj
 0001:0003b3d4       ?GetAssocAt@?$CMap@IIPAUHICON__@@PAU1@@@IBEPAVCAssoc@1@IAAI0@Z 0043c3d4 f i uafxcw:afxtabctrl.obj
 0001:0003b3d4       ?GetAssocAt@?$CMap@IIPAUHWND__@@PAU1@@@IBEPAVCAssoc@1@IAAI0@Z 0043c3d4 f i uafxcw:afxpaneframewnd.obj
 0001:0003b3d4       ?GetAssocAt@?$CMap@IIPAVCMFCRibbonStatusBarPane@@PAV1@@@IBEPAVCAssoc@1@IAAI0@Z 0043c3d4 f i uafxcw:afxribbonstatusbarpane.obj
 0001:0003b3d4       ?GetAssocAt@?$CMap@IIPAVCPane@@PAV1@@@IBEPAVCAssoc@1@IAAI0@Z 0043c3d4 f i uafxcw:afxdockingmanager.obj
 0001:0003b3d4       ?GetAssocAt@?$CMap@PAUHICON__@@PAU1@HH@@IBEPAVCAssoc@1@PAUHICON__@@AAI1@Z 0043c3d4 f i uafxcw:afxbasetabctrl.obj
 0001:0003b3d4       ?GetAssocAt@?$CMap@PAUHWND__@@PAU1@HH@@IBEPAVCAssoc@1@PAUHWND__@@AAI1@Z 0043c3d4 f i uafxcw:afxvisualmanageroffice2007.obj
 0001:0003b3d4       ?GetAssocAt@?$CMap@PAVCDocument@@PAV1@V?$CStringT@_WV?$StrTraitMFC@_WV?$ChTraitsCRT@_W@ATL@@@@@ATL@@PB_W@@IBEPAVCAssoc@1@PAVCDocument@@AAI1@Z 0043c3d4 f i uafxcw:afxdatarecovery.obj
 0001:0003b3d4       ?GetAssocAt@?$CMap@PAVCWnd@@PAV1@PAVCImageList@@PAV2@@@IBEPAVCAssoc@1@PAVCWnd@@AAI1@Z 0043c3d4 f i uafxcw:afxmdiclientareawnd.obj
 0001:0003b426       ?GetAssocAt@?$CMap@V?$CStringT@_WV?$StrTraitMFC@_WV?$ChTraitsCRT@_W@ATL@@@@@ATL@@PB_WHH@@IBEPAVCAssoc@1@PB_WAAI1@Z 0043c426 f i uafxcw:afxmousemanager.obj
 0001:0003b426       ?GetAssocAt@?$CMap@V?$CStringT@_WV?$StrTraitMFC@_WV?$ChTraitsCRT@_W@ATL@@@@@ATL@@PB_WPAUHMENU__@@PAU3@@@IBEPAVCAssoc@1@PB_WAAI1@Z 0043c426 f i uafxcw:afxcontextmenumanager.obj
 0001:0003b426       ?GetAssocAt@?$CMap@V?$CStringT@_WV?$StrTraitMFC@_WV?$ChTraitsCRT@_W@ATL@@@@@ATL@@PB_WPAVCDocument@@PAV3@@@IBEPAVCAssoc@1@PB_WAAI1@Z 0043c426 f i uafxcw:afxdatarecovery.obj
 0001:0003b426       ?GetAssocAt@?$CMap@V?$CStringT@_WV?$StrTraitMFC@_WV?$ChTraitsCRT@_W@ATL@@@@@ATL@@PB_WPAVCObList@@PAV3@@@IBEPAVCAssoc@1@PB_WAAI1@Z 0043c426 f i uafxcw:afxtoolbarscustomizedialog.obj
 0001:0003b426       ?GetAssocAt@?$CMap@V?$CStringT@_WV?$StrTraitMFC@_WV?$ChTraitsCRT@_W@ATL@@@@@ATL@@PB_WV12@PB_W@@IBEPAVCAssoc@1@PB_WAAI1@Z 0043c426 f i uafxcw:afxdatarecovery.obj
 0001:0003b426       ?GetAssocAt@?$CMap@V?$CStringT@_WV?$StrTraitMFC@_WV?$ChTraitsCRT@_W@ATL@@@@@ATL@@PB_W_N_N@@IBEPAVCAssoc@1@PB_WAAI1@Z 0043c426 f i uafxcw:afxdatarecovery.obj
 0001:0003b478       ?GetAutosavePath@CDataRecoveryHandler@@UBE?AV?$CStringT@_WV?$StrTraitMFC@_WV?$ChTraitsCRT@_W@ATL@@@@@ATL@@XZ 0043c478 f i uafxcw:afxdatarecovery.obj
 0001:0003b498       ?GetDocumentListName@CDataRecoveryHandler@@UBE?AV?$CStringT@_WV?$StrTraitMFC@_WV?$ChTraitsCRT@_W@ATL@@@@@ATL@@PAVCDocument@@@Z 0043c498 f   uafxcw:afxdatarecovery.obj
 0001:0003b566       ?GetNextAssoc@?$CMap@V?$CStringT@_WV?$StrTraitMFC@_WV?$ChTraitsCRT@_W@ATL@@@@@ATL@@PB_WV12@PB_W@@QBEXAAPAU__POSITION@@AAV?$CStringT@_WV?$StrTraitMFC@_WV?$ChTraitsCRT@_W@ATL@@@@@ATL@@1@Z 0043c566 f i uafxcw:afxdatarecovery.obj
 0001:0003b5ed       ?GetNormalDocumentTitle@CDataRecoveryHandler@@UBE?AV?$CStringT@_WV?$StrTraitMFC@_WV?$ChTraitsCRT@_W@ATL@@@@@ATL@@PAVCDocument@@@Z 0043c5ed f   uafxcw:afxdatarecovery.obj
 0001:0003b62b       ?GetRecoveredDocumentTitle@CDataRecoveryHandler@@UBE?AV?$CStringT@_WV?$StrTraitMFC@_WV?$ChTraitsCRT@_W@ATL@@@@@ATL@@ABV23@@Z 0043c62b f   uafxcw:afxdatarecovery.obj
 0001:0003b688       ?GetRestartIdentifier@CDataRecoveryHandler@@UBE?AV?$CStringT@_WV?$StrTraitMFC@_WV?$ChTraitsCRT@_W@ATL@@@@@ATL@@XZ 0043c688 f i uafxcw:afxdatarecovery.obj
 0001:0003b6a8       ?InitHashTable@?$CMap@HHHH@@QAEXIH@Z 0043c6a8 f i uafxcw:afxheaderctrl.obj
 0001:0003b6a8       ?InitHashTable@?$CMap@HHII@@QAEXIH@Z 0043c6a8 f i uafxcw:afxvslistbox.obj
 0001:0003b6a8       ?InitHashTable@?$CMap@IAAIPAVCMFCToolBarButton@@AAPAV1@@@QAEXIH@Z 0043c6a8 f i uafxcw:afxtoolbar.obj
 0001:0003b6a8       ?InitHashTable@?$CMap@IIHH@@QAEXIH@Z 0043c6a8 f i uafxcw:afxtoolbarimages.obj
 0001:0003b6a8       ?InitHashTable@?$CMap@IIII@@QAEXIH@Z 0043c6a8 f i uafxcw:afxpopupmenubar.obj
 0001:0003b6a8       ?InitHashTable@?$CMap@IIKK@@QAEXIH@Z 0043c6a8 f i uafxcw:afxcolorbar.obj
 0001:0003b6a8       ?InitHashTable@?$CMap@IIPAUHICON__@@PAU1@@@QAEXIH@Z 0043c6a8 f i uafxcw:afxtabctrl.obj
 0001:0003b6a8       ?InitHashTable@?$CMap@IIPAUHWND__@@PAU1@@@QAEXIH@Z 0043c6a8 f i uafxcw:afxpaneframewnd.obj
 0001:0003b6a8       ?InitHashTable@?$CMap@IIPAVCMFCRibbonStatusBarPane@@PAV1@@@QAEXIH@Z 0043c6a8 f i uafxcw:afxribbonstatusbarpane.obj
 0001:0003b6a8       ?InitHashTable@?$CMap@IIPAVCPane@@PAV1@@@QAEXIH@Z 0043c6a8 f i uafxcw:afxdockingmanager.obj
 0001:0003b6a8       ?InitHashTable@?$CMap@KKV?$CStringT@_WV?$StrTraitMFC@_WV?$ChTraitsCRT@_W@ATL@@@@@ATL@@PB_W@@QAEXIH@Z 0043c6a8 f i uafxcw:afxcolorbar.obj
 0001:0003b6a8       ?InitHashTable@?$CMap@PAUHICON__@@PAU1@HH@@QAEXIH@Z 0043c6a8 f i uafxcw:afxbasetabctrl.obj
 0001:0003b6a8       ?InitHashTable@?$CMap@PAUHMENU__@@AAPAU1@PAXAAPAX@@QAEXIH@Z 0043c6a8 f i uafxcw:afxmenuhash.obj
 0001:0003b6a8       ?InitHashTable@?$CMap@PAUHWND__@@PAU1@HH@@QAEXIH@Z 0043c6a8 f i uafxcw:afxvisualmanageroffice2007.obj
 0001:0003b6a8       ?InitHashTable@?$CMap@PAVCDocument@@PAV1@V?$CStringT@_WV?$StrTraitMFC@_WV?$ChTraitsCRT@_W@ATL@@@@@ATL@@PB_W@@QAEXIH@Z 0043c6a8 f i uafxcw:afxdatarecovery.obj
 0001:0003b6a8       ?InitHashTable@?$CMap@PAVCWnd@@PAV1@PAVCImageList@@PAV2@@@QAEXIH@Z 0043c6a8 f i uafxcw:afxmdiclientareawnd.obj
 0001:0003b6a8       ?InitHashTable@?$CMap@V?$CStringT@_WV?$StrTraitMFC@_WV?$ChTraitsCRT@_W@ATL@@@@@ATL@@PB_WHH@@QAEXIH@Z 0043c6a8 f i uafxcw:afxmousemanager.obj
 0001:0003b6a8       ?InitHashTable@?$CMap@V?$CStringT@_WV?$StrTraitMFC@_WV?$ChTraitsCRT@_W@ATL@@@@@ATL@@PB_WPAVCDocument@@PAV3@@@QAEXIH@Z 0043c6a8 f i uafxcw:afxdatarecovery.obj
 0001:0003b6a8       ?InitHashTable@?$CMap@V?$CStringT@_WV?$StrTraitMFC@_WV?$ChTraitsCRT@_W@ATL@@@@@ATL@@PB_WPAVCObList@@PAV3@@@QAEXIH@Z 0043c6a8 f i uafxcw:afxtoolbarscustomizedialog.obj
 0001:0003b6a8       ?InitHashTable@?$CMap@V?$CStringT@_WV?$StrTraitMFC@_WV?$ChTraitsCRT@_W@ATL@@@@@ATL@@PB_WV12@PB_W@@QAEXIH@Z 0043c6a8 f i uafxcw:afxdatarecovery.obj
 0001:0003b6a8       ?InitHashTable@?$CMap@V?$CStringT@_WV?$StrTraitMFC@_WV?$ChTraitsCRT@_W@ATL@@@@@ATL@@PB_W_N_N@@QAEXIH@Z 0043c6a8 f i uafxcw:afxdatarecovery.obj
 0001:0003b70b       ?Initialize@CDataRecoveryHandler@@UAEHXZ 0043c70b f   uafxcw:afxdatarecovery.obj
 0001:0003b7c2       ?Lookup@?$CMap@PAVCDocument@@PAV1@V?$CStringT@_WV?$StrTraitMFC@_WV?$ChTraitsCRT@_W@ATL@@@@@ATL@@PB_W@@QBEHPAVCDocument@@AAV?$CStringT@_WV?$StrTraitMFC@_WV?$ChTraitsCRT@_W@ATL@@@@@ATL@@@Z 0043c7c2 f i uafxcw:afxdatarecovery.obj
 0001:0003b7ee       ?Lookup@?$CMap@V?$CStringT@_WV?$StrTraitMFC@_WV?$ChTraitsCRT@_W@ATL@@@@@ATL@@PB_WHH@@QBEHPB_WAAH@Z 0043c7ee f i uafxcw:afxmousemanager.obj
 0001:0003b7ee       ?Lookup@?$CMap@V?$CStringT@_WV?$StrTraitMFC@_WV?$ChTraitsCRT@_W@ATL@@@@@ATL@@PB_WPAUHMENU__@@PAU3@@@QBEHPB_WAAPAUHMENU__@@@Z 0043c7ee f i uafxcw:afxcontextmenumanager.obj
 0001:0003b7ee       ?Lookup@?$CMap@V?$CStringT@_WV?$StrTraitMFC@_WV?$ChTraitsCRT@_W@ATL@@@@@ATL@@PB_WPAVCDocument@@PAV3@@@QBEHPB_WAAPAVCDocument@@@Z 0043c7ee f i uafxcw:afxdatarecovery.obj
 0001:0003b7ee       ?Lookup@?$CMap@V?$CStringT@_WV?$StrTraitMFC@_WV?$ChTraitsCRT@_W@ATL@@@@@ATL@@PB_WPAVCObList@@PAV3@@@QBEHPB_WAAPAVCObList@@@Z 0043c7ee f i uafxcw:afxtoolbarscustomizedialog.obj
 0001:0003b816       ?Lookup@?$CMap@V?$CStringT@_WV?$StrTraitMFC@_WV?$ChTraitsCRT@_W@ATL@@@@@ATL@@PB_WV12@PB_W@@QBEHPB_WAAV?$CStringT@_WV?$StrTraitMFC@_WV?$ChTraitsCRT@_W@ATL@@@@@ATL@@@Z 0043c816 f i uafxcw:afxdatarecovery.obj
 0001:0003b842       ?Lookup@?$CMap@V?$CStringT@_WV?$StrTraitMFC@_WV?$ChTraitsCRT@_W@ATL@@@@@ATL@@PB_W_N_N@@QBEHPB_WAA_N@Z 0043c842 f i uafxcw:afxdatarecovery.obj
 0001:0003b86a       ?NewAssoc@?$CMap@KKV?$CStringT@_WV?$StrTraitMFC@_WV?$ChTraitsCRT@_W@ATL@@@@@ATL@@PB_W@@IAEPAVCAssoc@1@K@Z 0043c86a f i uafxcw:afxcolorbar.obj
 0001:0003b86a       ?NewAssoc@?$CMap@PAVCDocument@@PAV1@V?$CStringT@_WV?$StrTraitMFC@_WV?$ChTraitsCRT@_W@ATL@@@@@ATL@@PB_W@@IAEPAVCAssoc@1@PAVCDocument@@@Z 0043c86a f i uafxcw:afxdatarecovery.obj
 0001:0003b8eb       ?NewAssoc@?$CMap@V?$CStringT@_WV?$StrTraitMFC@_WV?$ChTraitsCRT@_W@ATL@@@@@ATL@@PB_WHH@@IAEPAVCAssoc@1@PB_W@Z 0043c8eb f i uafxcw:afxmousemanager.obj
 0001:0003b8eb       ?NewAssoc@?$CMap@V?$CStringT@_WV?$StrTraitMFC@_WV?$ChTraitsCRT@_W@ATL@@@@@ATL@@PB_WPAVCDocument@@PAV3@@@IAEPAVCAssoc@1@PB_W@Z 0043c8eb f i uafxcw:afxdatarecovery.obj
 0001:0003b8eb       ?NewAssoc@?$CMap@V?$CStringT@_WV?$StrTraitMFC@_WV?$ChTraitsCRT@_W@ATL@@@@@ATL@@PB_WPAVCObList@@PAV3@@@IAEPAVCAssoc@1@PB_W@Z 0043c8eb f i uafxcw:afxtoolbarscustomizedialog.obj
 0001:0003b8eb       ?NewAssoc@?$CMap@V?$CStringT@_WV?$StrTraitMFC@_WV?$ChTraitsCRT@_W@ATL@@@@@ATL@@PB_W_N_N@@IAEPAVCAssoc@1@PB_W@Z 0043c8eb f i uafxcw:afxdatarecovery.obj
 0001:0003b969       ?NewAssoc@?$CMap@V?$CStringT@_WV?$StrTraitMFC@_WV?$ChTraitsCRT@_W@ATL@@@@@ATL@@PB_WV12@PB_W@@IAEPAVCAssoc@1@PB_W@Z 0043c969 f i uafxcw:afxdatarecovery.obj
 0001:0003b9ef       ?Open@CRegKey@ATL@@QAEJPAUHKEY__@@PB_WK@Z 0043c9ef f i uafxcw:afxdatarecovery.obj
 0001:0003ba73       ?QueryRestoreAutosavedDocuments@CDataRecoveryHandler@@UAEXXZ 0043ca73 f   uafxcw:afxdatarecovery.obj
 0001:0003bcfb       ?QueryStringValue@CRegKey@ATL@@QAEJPB_WPA_WPAK@Z 0043ccfb f i uafxcw:afxdatarecovery.obj
 0001:0003bd6b       ?ReadOpenDocumentList@CDataRecoveryHandler@@UAEHXZ 0043cd6b f   uafxcw:afxdatarecovery.obj
 0001:0003bf72       ?RemoveAll@?$CMap@KKV?$CStringT@_WV?$StrTraitMFC@_WV?$ChTraitsCRT@_W@ATL@@@@@ATL@@PB_W@@QAEXXZ 0043cf72 f i uafxcw:afxcolorbar.obj
 0001:0003bf72       ?RemoveAll@?$CMap@PAVCDocument@@PAV1@V?$CStringT@_WV?$StrTraitMFC@_WV?$ChTraitsCRT@_W@ATL@@@@@ATL@@PB_W@@QAEXXZ 0043cf72 f i uafxcw:afxdatarecovery.obj
 0001:0003bfca       ?RemoveAll@?$CMap@V?$CStringT@_WV?$StrTraitMFC@_WV?$ChTraitsCRT@_W@ATL@@@@@ATL@@PB_WHH@@QAEXXZ 0043cfca f i uafxcw:afxmousemanager.obj
 0001:0003bfca       ?RemoveAll@?$CMap@V?$CStringT@_WV?$StrTraitMFC@_WV?$ChTraitsCRT@_W@ATL@@@@@ATL@@PB_WPAVCDocument@@PAV3@@@QAEXXZ 0043cfca f i uafxcw:afxdatarecovery.obj
 0001:0003bfca       ?RemoveAll@?$CMap@V?$CStringT@_WV?$StrTraitMFC@_WV?$ChTraitsCRT@_W@ATL@@@@@ATL@@PB_WPAVCObList@@PAV3@@@QAEXXZ 0043cfca f i uafxcw:afxtoolbarscustomizedialog.obj
 0001:0003bfca       ?RemoveAll@?$CMap@V?$CStringT@_WV?$StrTraitMFC@_WV?$ChTraitsCRT@_W@ATL@@@@@ATL@@PB_W_N_N@@QAEXXZ 0043cfca f i uafxcw:afxdatarecovery.obj
 0001:0003c021       ?RemoveAll@?$CMap@V?$CStringT@_WV?$StrTraitMFC@_WV?$ChTraitsCRT@_W@ATL@@@@@ATL@@PB_WV12@PB_W@@QAEXXZ 0043d021 f i uafxcw:afxdatarecovery.obj
 0001:0003c075       ?RemoveDocumentInfo@CDataRecoveryHandler@@UAEHPAVCDocument@@@Z 0043d075 f   uafxcw:afxdatarecovery.obj
 0001:0003c132       ?RemoveKey@?$CMap@PAVCDocument@@PAV1@V?$CStringT@_WV?$StrTraitMFC@_WV?$ChTraitsCRT@_W@ATL@@@@@ATL@@PB_W@@QAEHPAVCDocument@@@Z 0043d132 f i uafxcw:afxdatarecovery.obj
 0001:0003c19a       ?RemoveKey@?$CMap@V?$CStringT@_WV?$StrTraitMFC@_WV?$ChTraitsCRT@_W@ATL@@@@@ATL@@PB_WPAVCDocument@@PAV3@@@QAEHPB_W@Z 0043d19a f i uafxcw:afxdatarecovery.obj
 0001:0003c202       ?RemoveKey@?$CMap@V?$CStringT@_WV?$StrTraitMFC@_WV?$ChTraitsCRT@_W@ATL@@@@@ATL@@PB_WV12@PB_W@@QAEHPB_W@Z 0043d202 f i uafxcw:afxdatarecovery.obj
 0001:0003c26a       ?ReopenPreviousDocuments@CDataRecoveryHandler@@UAEHXZ 0043d26a f   uafxcw:afxdatarecovery.obj
 0001:0003c44f       ?RestoreAutosavedDocuments@CDataRecoveryHandler@@UAEHXZ 0043d44f f   uafxcw:afxdatarecovery.obj
 0001:0003c9ed       ?SaveOpenDocumentList@CDataRecoveryHandler@@UAEHXZ 0043d9ed f   uafxcw:afxdatarecovery.obj
 0001:0003caf6       ?Serialize@?$CMap@PAVCDocument@@PAV1@V?$CStringT@_WV?$StrTraitMFC@_WV?$ChTraitsCRT@_W@ATL@@@@@ATL@@PB_W@@UAEXAAVCArchive@@@Z 0043daf6 f i uafxcw:afxdatarecovery.obj
 0001:0003cbe5       ?Serialize@?$CMap@V?$CStringT@_WV?$StrTraitMFC@_WV?$ChTraitsCRT@_W@ATL@@@@@ATL@@PB_WHH@@UAEXAAVCArchive@@@Z 0043dbe5 f i uafxcw:afxmousemanager.obj
 0001:0003cbe5       ?Serialize@?$CMap@V?$CStringT@_WV?$StrTraitMFC@_WV?$ChTraitsCRT@_W@ATL@@@@@ATL@@PB_WPAVCDocument@@PAV3@@@UAEXAAVCArchive@@@Z 0043dbe5 f i uafxcw:afxdatarecovery.obj
 0001:0003cbe5       ?Serialize@?$CMap@V?$CStringT@_WV?$StrTraitMFC@_WV?$ChTraitsCRT@_W@ATL@@@@@ATL@@PB_WPAVCObList@@PAV3@@@UAEXAAVCArchive@@@Z 0043dbe5 f i uafxcw:afxtoolbarscustomizedialog.obj
 0001:0003ccd7       ?Serialize@?$CMap@V?$CStringT@_WV?$StrTraitMFC@_WV?$ChTraitsCRT@_W@ATL@@@@@ATL@@PB_WV12@PB_W@@UAEXAAVCArchive@@@Z 0043dcd7 f i uafxcw:afxdatarecovery.obj
 0001:0003cdff       ?Serialize@?$CMap@V?$CStringT@_WV?$StrTraitMFC@_WV?$ChTraitsCRT@_W@ATL@@@@@ATL@@PB_W_N_N@@UAEXAAVCArchive@@@Z 0043ddff f i uafxcw:afxdatarecovery.obj
 0001:0003cef1       ?SetAt@?$CMap@PAVCDocument@@PAV1@V?$CStringT@_WV?$StrTraitMFC@_WV?$ChTraitsCRT@_W@ATL@@@@@ATL@@PB_W@@QAEXPAVCDocument@@PB_W@Z 0043def1 f i uafxcw:afxdatarecovery.obj
 0001:0003cf22       ?SetAt@?$CMap@V?$CStringT@_WV?$StrTraitMFC@_WV?$ChTraitsCRT@_W@ATL@@@@@ATL@@PB_WV12@PB_W@@QAEXPB_W0@Z 0043df22 f i uafxcw:afxdatarecovery.obj
 0001:0003cf53       ?SetAutosaveInterval@CDataRecoveryHandler@@UAEXH@Z 0043df53 f   uafxcw:afxdatarecovery.obj
 0001:0003cf94       ?SetAutosavePath@CDataRecoveryHandler@@UAEXABV?$CStringT@_WV?$StrTraitMFC@_WV?$ChTraitsCRT@_W@ATL@@@@@ATL@@@Z 0043df94 f i uafxcw:afxdatarecovery.obj
 0001:0003cfa3       ?SetRestartIdentifier@CDataRecoveryHandler@@UAEXABV?$CStringT@_WV?$StrTraitMFC@_WV?$ChTraitsCRT@_W@ATL@@@@@ATL@@@Z 0043dfa3 f i uafxcw:afxdatarecovery.obj
 0001:0003cfb2       ?SetSaveDocumentInfoOnIdle@CDataRecoveryHandler@@UAEXH@Z 0043dfb2 f i uafxcw:afxdatarecovery.obj
 0001:0003cfc2       ?SetShutdownByRestartManager@CDataRecoveryHandler@@UAEXH@Z 0043dfc2 f i uafxcw:afxdatarecovery.obj
 0001:0003cfd2       ?SetStringValue@CRegKey@ATL@@QAEJPB_W0K@Z 0043dfd2 f i uafxcw:afxdatarecovery.obj
 0001:0003d00c       ?UpdateDocumentInfo@CDataRecoveryHandler@@UAEHPAVCDocument@@@Z 0043e00c f   uafxcw:afxdatarecovery.obj
 0001:0003d0a1       ??0CDocManager@@QAE@XZ     0043e0a1 f   uafxcw:docmgr.obj
 0001:0003d0c0       ??0CNewTypeDlg@@QAE@PAVCPtrList@@@Z 0043e0c0 f i uafxcw:docmgr.obj
 0001:0003d0f3       ??1CDocManager@@UAE@XZ     0043e0f3 f   uafxcw:docmgr.obj
 0001:0003d179       ??1CNewTypeDlg@@UAE@XZ     0043e179 f i uafxcw:docmgr.obj
 0001:0003d184       ??8ATL@@YA_NABV?$CStringT@_WV?$StrTraitMFC@_WV?$ChTraitsCRT@_W@ATL@@@@@0@0@Z 0043e184 f i uafxcw:docmgr.obj
 0001:0003d1df       ??9ATL@@YA_NABV?$CStringT@_WV?$StrTraitMFC@_WV?$ChTraitsCRT@_W@ATL@@@@@0@PB_W@Z 0043e1df f i uafxcw:docmgr.obj
 0001:0003d238       ??_ECDocManager@@UAEPAXI@Z 0043e238 f i uafxcw:docmgr.obj
 0001:0003d238       ??_GCDocManager@@UAEPAXI@Z 0043e238 f i uafxcw:docmgr.obj
 0001:0003d268       ??_ECNewTypeDlg@@UAEPAXI@Z 0043e268 f i uafxcw:docmgr.obj
 0001:0003d268       ??_GCNewTypeDlg@@UAEPAXI@Z 0043e268 f i uafxcw:docmgr.obj
 0001:0003d2a1       ?AddDocTemplate@CDocManager@@UAEXPAVCDocTemplate@@@Z 0043e2a1 f   uafxcw:docmgr.obj
 0001:0003d337       ?CloseAllDocuments@CDocManager@@UAEXH@Z 0043e337 f   uafxcw:docmgr.obj
 0001:0003d379       ?DoPromptFileName@CDocManager@@UAEHAAV?$CStringT@_WV?$StrTraitMFC@_WV?$ChTraitsCRT@_W@ATL@@@@@ATL@@IKHPAVCDocTemplate@@@Z 0043e379 f   uafxcw:docmgr.obj
 0001:0003d59c       ?Find@?$CStringT@_WV?$StrTraitMFC@_WV?$ChTraitsCRT@_W@ATL@@@@@ATL@@QBEH_WH@Z 0043e59c f i uafxcw:docmgr.obj
 0001:0003d5d0       ?GetBestTemplate@CDocManager@@UAEPAVCDocTemplate@@PB_W@Z 0043e5d0 f   uafxcw:docmgr.obj
 0001:0003d640       ?GetDocumentCount@CDocManager@@IAEHXZ 0043e640 f   uafxcw:docmgr.obj
 0001:0003d6ac       ?GetMessageMap@CNewTypeDlg@@MBEPBUAFX_MSGMAP@@XZ 0043e6ac f   uafxcw:docmgr.obj
 0001:0003d6b2       ?GetNextDocTemplate@CDocManager@@UBEPAVCDocTemplate@@AAPAU__POSITION@@@Z 0043e6b2 f   uafxcw:docmgr.obj
 0001:0003d6be       ?GetOpenDocumentCount@CDocManager@@UAEHXZ 0043e6be f   uafxcw:docmgr.obj
 0001:0003d72e       ?GetRuntimeClass@CDocManager@@UBEPAUCRuntimeClass@@XZ 0043e72e f   uafxcw:docmgr.obj
 0001:0003d734       ?OnDDECommand@CDocManager@@UAEHPA_W@Z 0043e734 f   uafxcw:docmgr.obj
 0001:0003dd2c       ?OnFileNew@CDocManager@@UAEXXZ 0043ed2c f   uafxcw:docmgr.obj
 0001:0003ddc1       ?OnFileOpen@CDocManager@@UAEXXZ 0043edc1 f   uafxcw:docmgr.obj
 0001:0003de32       ?OnInitDialog@CNewTypeDlg@@MAEHXZ 0043ee32 f   uafxcw:docmgr.obj
 0001:0003df74       ?OnOK@CNewTypeDlg@@MAEXXZ  0043ef74 f   uafxcw:docmgr.obj
 0001:0003dfc5       ?OpenDocumentFile@CDocManager@@UAEPAVCDocument@@PB_W@Z 0043efc5 f   uafxcw:docmgr.obj
 0001:0003dfe8       ?OpenDocumentFile@CDocManager@@UAEPAVCDocument@@PB_WH@Z 0043efe8 f   uafxcw:docmgr.obj
 0001:0003e227       ?RegisterShellFileTypes@CDocManager@@UAEXH@Z 0043f227 f   uafxcw:docmgr.obj
 0001:0003e8f9       ?SaveAllModified@CDocManager@@UAEHXZ 0043f8f9 f   uafxcw:docmgr.obj
 0001:0003e941       ?SetAt@?$CSimpleStringT@_W$0A@@ATL@@QAEXH_W@Z 0043f941 f i uafxcw:docmgr.obj
 0001:0003e980       ?_AfxAppendFilterSuffix@@YGXAAV?$CStringT@_WV?$StrTraitMFC@_WV?$ChTraitsCRT@_W@ATL@@@@@ATL@@AAUtagOFNW@@PAVCDocTemplate@@PAV12@@Z 0043f980 f   uafxcw:docmgr.obj
 0001:0003eb0e       ?_AfxSetRegKey@@YGHPB_W00@Z 0043fb0e f   uafxcw:docmgr.obj
 0001:0003eba0       ?DoPromptFileName@CWinApp@@QAEHAAV?$CStringT@_WV?$StrTraitMFC@_WV?$ChTraitsCRT@_W@ATL@@@@@ATL@@IKHPAVCDocTemplate@@@Z 0043fba0 f   uafxcw:appdlg.obj
 0001:0003ebd8       ?OnFileNew@CWinApp@@IAEXXZ 0043fbd8 f   uafxcw:appdlg.obj
 0001:0003ebf5       ??0CFile@@QAE@PAX@Z        0043fbf5 f   uafxcw:filecore.obj
 0001:0003ec22       ??0CFile@@QAE@XZ           0043fc22 f   uafxcw:filecore.obj
 0001:0003ec4b       ??1CFile@@UAE@XZ           0043fc4b f   uafxcw:filecore.obj
 0001:0003ed99       ??_ECFile@@UAEPAXI@Z       0043fd99 f i uafxcw:filecore.obj
 0001:0003ed99       ??_GCFile@@UAEPAXI@Z       0043fd99 f i uafxcw:filecore.obj
 0001:0003edc9       ?Abort@CFile@@UAEXXZ       0043fdc9 f   uafxcw:filecore.obj
 0001:0003ede8       ?AfxComparePath@@YGHPB_W0@Z 0043fde8 f   uafxcw:filecore.obj
 0001:0003eed1       ?AfxFullPath@@YGHPA_WPB_W@Z 0043fed1 f   uafxcw:filecore.obj
 0001:0003eee5       ?AfxGetFileTitle@@YGIPB_WPA_WI@Z 0043fee5 f   uafxcw:filecore.obj
 0001:0003ef5a       ?AfxGetInProcServer@@YGHPB_WAAV?$CStringT@_WV?$StrTraitMFC@_WV?$ChTraitsCRT@_W@ATL@@@@@ATL@@@Z 0043ff5a f   uafxcw:filecore.obj
 0001:0003f020       ?AfxGetModuleFileName@@YGXPAUHINSTANCE__@@AAV?$CStringT@_WV?$StrTraitMFC@_WV?$ChTraitsCRT@_W@ATL@@@@@ATL@@@Z 00440020 f   uafxcw:filecore.obj
 0001:0003f078       ?AfxGetModuleShortFileName@@YGXPAUHINSTANCE__@@AAV?$CStringT@_WV?$StrTraitMFC@_WV?$ChTraitsCRT@_W@ATL@@@@@ATL@@@Z 00440078 f   uafxcw:filecore.obj
 0001:0003f0f7       ?AfxGetRoot@@YGXPB_WAAV?$CStringT@_WV?$StrTraitMFC@_WV?$ChTraitsCRT@_W@ATL@@@@@ATL@@@Z 004400f7 f   uafxcw:filecore.obj
 0001:0003f141       ?AfxResolveShortcut@@YGHPAVCWnd@@PB_WPA_WH@Z 00440141 f   uafxcw:filecore.obj
 0001:0003f305       ?AfxStringFromCLSID@@YG?AV?$CStringT@_WV?$StrTraitMFC@_WV?$ChTraitsCRT@_W@ATL@@@@@ATL@@ABU_GUID@@@Z 00440305 f   uafxcw:filecore.obj
 0001:0003f391       ?Close@CFile@@UAEXXZ       00440391 f   uafxcw:filecore.obj
 0001:0003f3da       ?CreateFileW@CAtlTransactionManager@ATL@@QAEPAXPB_WKKPAU_SECURITY_ATTRIBUTES@@KKPAX@Z 004403da f i uafxcw:filecore.obj
 0001:0003f458       ?CreateInstance@AFX_COM@@QAEJABU_GUID@@PAUIUnknown@@0PAPAX@Z 00440458 f   uafxcw:filecore.obj
 0001:0003f4ca       ?DeleteFileW@CAtlTransactionManager@ATL@@QAEHPB_W@Z 004404ca f i uafxcw:filecore.obj
 0001:0003f51f       ?Duplicate@CFile@@UBEPAV1@XZ 0044051f f   uafxcw:filecore.obj
 0001:0003f5bf       ?Flush@CFile@@UAEXXZ       004405bf f   uafxcw:filecore.obj
 0001:0003f5ef       ?GetClassObject@AFX_COM@@QAEJABU_GUID@@0PAPAX@Z 004405ef f   uafxcw:filecore.obj
 0001:0003f694       ?GetLength@CFile@@UBE_KXZ  00440694 f   uafxcw:filecore.obj
 0001:0003f6dc       ?GetPosition@CFile@@UBE_KXZ 004406dc f   uafxcw:filecore.obj
 0001:0003f72f       ?GetRuntimeClass@CFile@@UBEPAUCRuntimeClass@@XZ 0044072f f   uafxcw:filecore.obj
 0001:0003f735       ?LockRange@CFile@@UAEX_K0@Z 00440735 f   uafxcw:filecore.obj
 0001:0003f771       ?MoveFileW@CAtlTransactionManager@ATL@@QAEHPB_W0@Z 00440771 f i uafxcw:filecore.obj
 0001:0003f7d0       ?Open@CFile@@UAEHPB_WIPAVCAtlTransactionManager@ATL@@PAVCFileException@@@Z 004407d0 f   uafxcw:filecore.obj
 0001:0003f7fd       ?Open@CFile@@UAEHPB_WIPAVCFileException@@@Z 004407fd f   uafxcw:filecore.obj
 0001:0003f9fe       ?Read@CFile@@UAEIPAXI@Z    004409fe f   uafxcw:filecore.obj
 0001:0003fa48       ?Remove@CFile@@SGXPB_WPAVCAtlTransactionManager@ATL@@@Z 00440a48 f   uafxcw:filecore.obj
 0001:0003fa7b       ?Rename@CFile@@SGXPB_W0PAVCAtlTransactionManager@ATL@@@Z 00440a7b f   uafxcw:filecore.obj
 0001:0003fab1       ?Seek@CFile@@UAE_K_JI@Z    00440ab1 f   uafxcw:filecore.obj
 0001:0003fb0b       ?SetLength@CFile@@UAEX_K@Z 00440b0b f   uafxcw:filecore.obj
 0001:0003fb56       ?StringCchLengthW@@YGJPB_WIPAI@Z 00440b56 f i uafxcw:filecore.obj
 0001:0003fbdb       ?UnlockRange@CFile@@UAEX_K0@Z 00440bdb f   uafxcw:filecore.obj
 0001:0003fc17       ?Write@CFile@@UAEXPBXI@Z   00440c17 f   uafxcw:filecore.obj
 0001:0003fc72       ?_AfxFillExceptionInfo@@YGXPAVCFileException@@PB_W@Z 00440c72 f   uafxcw:filecore.obj
 0001:0003fcb4       ?_AfxFullPath2@@YGHPA_WPB_WPAVCFileException@@@Z 00440cb4 f   uafxcw:filecore.obj
 0001:0003fe7b       _CommdlgIsolationAwarePrivatetRgCebPnQQeRff_pbZQYTQP_QYY@4 00440e7b f i uafxcw:filecore.obj
 0001:0003ff21       _IsolationAwareGetFileTitleW@12 00440f21 f i uafxcw:filecore.obj
 0001:0004000f       ??0CDocTemplate@@IAE@IPAUCRuntimeClass@@00@Z 0044100f f   uafxcw:doctempl.obj
 0001:0004011c       ??1CDocTemplate@@UAE@XZ    0044111c f   uafxcw:doctempl.obj
 0001:0004016d       ?AddDocument@CDocTemplate@@UAEXPAVCDocument@@@Z 0044116d f   uafxcw:doctempl.obj
 0001:0004017a       ?CloseAllDocuments@CDocTemplate@@UAEXH@Z 0044117a f   uafxcw:doctempl.obj
 0001:000401d3       ?CreateNewDocument@CDocTemplate@@UAEPAVCDocument@@XZ 004411d3 f   uafxcw:doctempl.obj
 0001:00040206       ?CreateNewFrame@CDocTemplate@@UAEPAVCFrameWnd@@PAVCDocument@@PAV2@@Z 00441206 f   uafxcw:doctempl.obj
 0001:0004027b       ?CreatePreviewFrame@CDocTemplate@@QAEPAVCFrameWnd@@PAVCWnd@@PAVCDocument@@@Z 0044127b f   uafxcw:doctempl.obj
 0001:000403ca       ?GetDocString@CDocTemplate@@UBEHAAV?$CStringT@_WV?$StrTraitMFC@_WV?$ChTraitsCRT@_W@ATL@@@@@ATL@@W4DocStringIndex@1@@Z 004413ca f   uafxcw:doctempl.obj
 0001:000403e4       ?InitialUpdateFrame@CDocTemplate@@UAEXPAVCFrameWnd@@PAVCDocument@@H@Z 004413e4 f   uafxcw:doctempl.obj
 0001:000403f9       ?LoadTemplate@CDocTemplate@@UAEXXZ 004413f9 f   uafxcw:doctempl.obj
 0001:000404a9       ?MatchDocType@CDocTemplate@@UAE?AW4Confidence@1@PB_WAAPAVCDocument@@@Z 004414a9 f   uafxcw:doctempl.obj
 0001:0004056b       ?OnCmdMsg@CDocTemplate@@UAEHIHPAXPAUAFX_CMDHANDLERINFO@@@Z 0044156b f   uafxcw:doctempl.obj
 0001:000405c4       ?OnIdle@CDocTemplate@@UAEXXZ 004415c4 f   uafxcw:doctempl.obj
 0001:0004061b       ?RemoveDocument@CDocTemplate@@UAEXPAVCDocument@@@Z 0044161b f   uafxcw:doctempl.obj
 0001:00040629       ?SaveAllModified@CDocTemplate@@UAEHXZ 00441629 f   uafxcw:doctempl.obj
 0001:0004068b       ?AfxOleUnlockAllControls@@YGXXZ 0044168b f   uafxcw:occlock.obj
 0001:000406cb       ?Revoke@COleObjectFactory@@QAEXXZ 004416cb f   uafxcw:olefact.obj
 0001:000406ed       ?RevokeAll@COleObjectFactory@@SGXXZ 004416ed f   uafxcw:olefact.obj
 0001:00040717       ??0CEnumFormatEtc@@QAE@XZ  00441717 f   uafxcw:oledobj2.obj
 0001:0004073d       ??0COleDataSource@@QAE@XZ  0044173d f   uafxcw:oledobj2.obj
 0001:00040770       ??1CEnumFormatEtc@@UAE@XZ  00441770 f   uafxcw:oledobj2.obj
 0001:000407a8       ??1COleDataSource@@UAE@XZ  004417a8 f   uafxcw:oledobj2.obj
 0001:00040816       ??_ECEnumFormatEtc@@UAEPAXI@Z 00441816 f i uafxcw:oledobj2.obj
 0001:00040816       ??_GCEnumFormatEtc@@UAEPAXI@Z 00441816 f i uafxcw:oledobj2.obj
 0001:00040846       ??_ECOleDataSource@@UAEPAXI@Z 00441846 f i uafxcw:oledobj2.obj
 0001:00040846       ??_GCOleDataSource@@UAEPAXI@Z 00441846 f i uafxcw:oledobj2.obj
 0001:00040876       ?AddFormat@CEnumFormatEtc@@QAEXPBUtagFORMATETC@@@Z 00441876 f   uafxcw:oledobj2.obj
 0001:000408f9       ?AddRef@XDataObject@COleDataSource@@UAGKXZ 004418f9 f   uafxcw:oledobj2.obj
 0001:0004090b       ?CacheGlobalData@COleDataSource@@QAEXGPAXPAUtagFORMATETC@@@Z 0044190b f   uafxcw:oledobj2.obj
 0001:00040946       ?CreateObject@?$CProcessLocal@V_AFX_OLE_STATE@@@@SGPAVCNoTrackObject@@XZ 00441946 f i uafxcw:oledobj2.obj
 0001:00040972       ?DAdvise@XDataObject@COleDataSource@@UAGJPAUtagFORMATETC@@KPAUIAdviseSink@@PAK@Z 00441972 f   uafxcw:oledobj2.obj
 0001:00040984       ?DUnadvise@XDataObject@COleDataSource@@UAGJK@Z 00441984 f   uafxcw:oledobj2.obj
 0001:0004098c       ?Empty@COleDataSource@@QAEXXZ 0044198c f   uafxcw:oledobj2.obj
 0001:000409dc       ?EnumDAdvise@XDataObject@COleDataSource@@UAGJPAPAUIEnumSTATDATA@@@Z 004419dc f   uafxcw:oledobj2.obj
 0001:000409ee       ?EnumFormatEtc@XDataObject@COleDataSource@@UAGJKPAPAUIEnumFORMATETC@@@Z 004419ee f   uafxcw:oledobj2.obj
 0001:00040a97       ?FlushClipboard@COleDataSource@@SGXXZ 00441a97 f   uafxcw:oledobj2.obj
 0001:00040aa7       ?GetCacheEntry@COleDataSource@@IAEPAUAFX_DATACACHE_ENTRY@@PAUtagFORMATETC@@W4tagDATADIR@@@Z 00441aa7 f   uafxcw:oledobj2.obj
 0001:00040b5e       ?GetCanonicalFormatEtc@XDataObject@COleDataSource@@UAGJPAUtagFORMATETC@@0@Z 00441b5e f   uafxcw:oledobj2.obj
 0001:00040b66       ?GetClipboardOwner@COleDataSource@@SGPAV1@XZ 00441b66 f   uafxcw:oledobj2.obj
 0001:00040bad       ?GetData@XDataObject@COleDataSource@@UAGJPAUtagFORMATETC@@PAUtagSTGMEDIUM@@@Z 00441bad f   uafxcw:oledobj2.obj
 0001:00040c92       ?GetDataHere@XDataObject@COleDataSource@@UAGJPAUtagFORMATETC@@PAUtagSTGMEDIUM@@@Z 00441c92 f   uafxcw:oledobj2.obj
 0001:00040d6a       ?GetInterfaceMap@CEnumFormatEtc@@MBEPBUAFX_INTERFACEMAP@@XZ 00441d6a f   uafxcw:oledobj2.obj
 0001:00040d70       ?GetInterfaceMap@COleDataSource@@MBEPBUAFX_INTERFACEMAP@@XZ 00441d70 f   uafxcw:oledobj2.obj
 0001:00040d76       ?Lookup@COleDataSource@@IBEPAUAFX_DATACACHE_ENTRY@@PAUtagFORMATETC@@W4tagDATADIR@@@Z 00441d76 f   uafxcw:oledobj2.obj
 0001:00040e54       ?OnNext@CEnumFormatEtc@@MAEHPAX@Z 00441e54 f   uafxcw:oledobj2.obj
 0001:00040e88       ?OnRenderData@COleDataSource@@UAEHPAUtagFORMATETC@@PAUtagSTGMEDIUM@@@Z 00441e88 f   uafxcw:oledobj2.obj
 0001:00040ff3       ?QueryGetData@XDataObject@COleDataSource@@UAGJPAUtagFORMATETC@@@Z 00441ff3 f   uafxcw:oledobj2.obj
 0001:00041025       ?QueryInterface@XDataObject@COleDataSource@@UAGJABU_GUID@@PAPAX@Z 00442025 f   uafxcw:oledobj2.obj
 0001:0004103d       ?Release@XDataObject@COleDataSource@@UAGKXZ 0044203d f   uafxcw:oledobj2.obj
 0001:0004104f       ?SetData@XDataObject@COleDataSource@@UAGJPAUtagFORMATETC@@PAUtagSTGMEDIUM@@H@Z 0044204f f   uafxcw:oledobj2.obj
 0001:0004110e       ??0COleMessageFilter@@QAE@XZ 0044210e f   uafxcw:olemsgf.obj
 0001:00041158       ??1COleMessageFilter@@UAE@XZ 00442158 f   uafxcw:olemsgf.obj
 0001:0004116e       ??_ECOleMessageFilter@@UAEPAXI@Z 0044216e f i uafxcw:olemsgf.obj
 0001:0004116e       ??_GCOleMessageFilter@@UAEPAXI@Z 0044216e f i uafxcw:olemsgf.obj
 0001:0004119e       ?AddRef@XMessageFilter@COleMessageFilter@@UAGKXZ 0044219e f   uafxcw:olemsgf.obj
 0001:000411b0       ?BeginBusyState@COleMessageFilter@@UAEXXZ 004421b0 f   uafxcw:olemsgf.obj
 0001:000411b4       ?EndBusyState@COleMessageFilter@@UAEXXZ 004421b4 f   uafxcw:olemsgf.obj
 0001:000411c0       ?GetInterfaceMap@COleMessageFilter@@MBEPBUAFX_INTERFACEMAP@@XZ 004421c0 f   uafxcw:olemsgf.obj
 0001:000411c6       ?HandleInComingCall@XMessageFilter@COleMessageFilter@@UAGKKPAUHTASK__@@KPAUtagINTERFACEINFO@@@Z 004421c6 f   uafxcw:olemsgf.obj
 0001:00041224       ?IsSignificantMessage@COleMessageFilter@@UAEHPAUtagMSG@@@Z 00442224 f   uafxcw:olemsgf.obj
 0001:0004127a       ?MessagePending@XMessageFilter@COleMessageFilter@@UAGKPAUHTASK__@@KK@Z 0044227a f   uafxcw:olemsgf.obj
 0001:0004135d       ?OnBusyDialog@COleMessageFilter@@UAEHPAUHTASK__@@@Z 0044235d f   uafxcw:olemsgf.obj
 0001:000413c7       ?OnMessagePending@COleMessageFilter@@UAEHPBUtagMSG@@@Z 004423c7 f   uafxcw:olemsgf.obj
 0001:0004140d       ?OnNotRespondingDialog@COleMessageFilter@@UAEHPAUHTASK__@@@Z 0044240d f   uafxcw:olemsgf.obj
 0001:00041478       ?QueryInterface@XMessageFilter@COleMessageFilter@@UAGJABU_GUID@@PAPAX@Z 00442478 f   uafxcw:olemsgf.obj
 0001:00041490       ?Register@COleMessageFilter@@QAEHXZ 00442490 f   uafxcw:olemsgf.obj
 0001:000414ad       ?Release@XMessageFilter@COleMessageFilter@@UAGKXZ 004424ad f   uafxcw:olemsgf.obj
 0001:000414bf       ?RetryRejectedCall@XMessageFilter@COleMessageFilter@@UAGKPAUHTASK__@@KK@Z 004424bf f   uafxcw:olemsgf.obj
 0001:0004152c       ?Revoke@COleMessageFilter@@QAEXXZ 0044252c f   uafxcw:olemsgf.obj
 0001:00041545       ??0CMemFile@@QAE@I@Z       00442545 f   uafxcw:filemem.obj
 0001:0004157c       ??0CMemFile@@QAE@PAEII@Z   0044257c f   uafxcw:filemem.obj
 0001:000415d9       ??1CMemFile@@UAE@XZ        004425d9 f   uafxcw:filemem.obj
 0001:00041638       ??_ECMemFile@@UAEPAXI@Z    00442638 f i uafxcw:filemem.obj
 0001:00041638       ??_GCMemFile@@UAEPAXI@Z    00442638 f i uafxcw:filemem.obj
 0001:00041668       ?Abort@CMemFile@@UAEXXZ    00442668 f   uafxcw:filemem.obj
 0001:00041680       ?Alloc@CMemFile@@MAEPAEK@Z 00442680 f   uafxcw:filemem.obj
 0001:00041690       ?Close@CMemFile@@UAEXXZ    00442690 f   uafxcw:filemem.obj
 0001:000416c8       ?Detach@CMemFile@@QAEPAEXZ 004426c8 f   uafxcw:filemem.obj
 0001:000416da       ?Duplicate@CMemFile@@UBEPAVCFile@@XZ 004426da f   uafxcw:filemem.obj
 0001:000416df       ?GetBufferPtr@CMemFile@@UAEIIIPAPAX0@Z 004426df f   uafxcw:filemem.obj
 0001:000417b3       ?GetLength@CMemFile@@UBE_KXZ 004427b3 f   uafxcw:filemem.obj
 0001:000417b9       ?GetPosition@CMemFile@@UBE_KXZ 004427b9 f   uafxcw:filemem.obj
 0001:000417bf       ?GetRuntimeClass@CMemFile@@UBEPAUCRuntimeClass@@XZ 004427bf f   uafxcw:filemem.obj
 0001:000417c5       ?GrowFile@CMemFile@@MAEXK@Z 004427c5 f   uafxcw:filemem.obj
 0001:00041824       ?LockRange@CMemFile@@UAEX_K0@Z 00442824 f   uafxcw:filemem.obj
 0001:00041824       ?UnlockRange@CMemFile@@UAEX_K0@Z 00442824 f   uafxcw:filemem.obj
 0001:0004182a       ?Memcpy@CMemFile@@MAEPAEPAEPBEK@Z 0044282a f   uafxcw:filemem.obj
 0001:00041848       ?Read@CMemFile@@UAEIPAXI@Z 00442848 f   uafxcw:filemem.obj
 0001:000418a6       ?Realloc@CMemFile@@MAEPAEPAEK@Z 004428a6 f   uafxcw:filemem.obj
 0001:000418ba       ?Seek@CMemFile@@UAE_K_JI@Z 004428ba f   uafxcw:filemem.obj
 0001:00041933       ?SetLength@CMemFile@@UAEX_K@Z 00442933 f   uafxcw:filemem.obj
 0001:00041989       ?Write@CMemFile@@UAEXPBXI@Z 00442989 f   uafxcw:filemem.obj
 0001:00041a01       ?GetEventSinkEntry@CCmdTarget@@IAGPBUAFX_EVENTSINKMAP_ENTRY@@IPAUAFX_EVENT@@@Z 00442a01 f   uafxcw:occevent.obj
 0001:00041a99       ?OnEvent@CCmdTarget@@QAEHIPAUAFX_EVENT@@PAUAFX_CMDHANDLERINFO@@@Z 00442a99 f   uafxcw:occevent.obj
 0001:00041ccb       ??0CControlCreationInfo@@QAE@XZ 00442ccb f   uafxcw:occcont.obj
 0001:00041cd8       ??0COleControlContainer@@QAE@PAVCWnd@@@Z 00442cd8 f   uafxcw:occcont.obj
 0001:00041d4d       ??1CEnumUnknown@@UAE@XZ    00442d4d f   uafxcw:occcont.obj
 0001:00041dc5       ??1COleControlContainer@@UAE@XZ 00442dc5 f   uafxcw:occcont.obj
 0001:00041eff       ??1COleControlSiteOrWnd@@QAE@XZ 00442eff f   uafxcw:occcont.obj
 0001:00041f1e       ??_E?$CTypedPtrList@VCPtrList@@PAUCOleControlSiteOrWnd@@@@UAEPAXI@Z 00442f1e f i uafxcw:occcont.obj
 0001:00041f1e       ??_G?$CTypedPtrList@VCPtrList@@PAUCOleControlSiteOrWnd@@@@UAEPAXI@Z 00442f1e f i uafxcw:occcont.obj
 0001:00041f4e       ??_ECEnumUnknown@@UAEPAXI@Z 00442f4e f i uafxcw:occcont.obj
 0001:00041f4e       ??_GCEnumUnknown@@UAEPAXI@Z 00442f4e f i uafxcw:occcont.obj
 0001:00041f7e       ??_ECOleControlContainer@@UAEPAXI@Z 00442f7e f i uafxcw:occcont.obj
 0001:00041f7e       ??_GCOleControlContainer@@UAEPAXI@Z 00442f7e f i uafxcw:occcont.obj
 0001:00041fb1       ??_GCOleControlSiteOrWnd@@QAEPAXI@Z 00442fb1 f i uafxcw:occcont.obj
 0001:00041fd3       ?AddRef@XOleContainer@COleControlContainer@@UAGKXZ 00442fd3 f   uafxcw:occcont.obj
 0001:00041fe6       ?AddRef@XOleIPFrame@COleControlContainer@@UAGKXZ 00442fe6 f   uafxcw:occcont.obj
 0001:00041ff9       ?AfxGetDlgItemStartFromHWND@@YAPAUHWND__@@HPAU1@@Z 00442ff9 f   uafxcw:occcont.obj
 0001:00042022       ?BroadcastAmbientPropertyChange@COleControlContainer@@UAEXJ@Z 00443022 f   uafxcw:occcont.obj
 0001:000420a9       ?CheckDlgButton@COleControlContainer@@UAEXHI@Z 004430a9 f   uafxcw:occcont.obj
 0001:00042102       ?CheckRadioButton@COleControlContainer@@UAEXHHH@Z 00443102 f   uafxcw:occcont.obj
 0001:00042139       ?CreateControl@COleControlContainer@@QAEHPAVCWnd@@ABU_GUID@@PB_WKABUtagRECT@@IPAVCFile@@HPA_WPAPAVCOleControlSite@@@Z 00443139 f   uafxcw:occcont.obj
 0001:000421ca       ?CreateControl@COleControlContainer@@QAEHPAVCWnd@@ABU_GUID@@PB_WKPBUtagPOINT@@PBUtagSIZE@@IPAVCFile@@HPA_WPAPAVCOleControlSite@@@Z 004431ca f   uafxcw:occcont.obj
 0001:0004224c       ?CreateControlCommon@COleControlContainer@@QAEHPAVCWnd@@ABU_GUID@@ABVCControlCreationInfo@@PB_WKPBUtagPOINT@@PBUtagSIZE@@IPAVCFile@@HPA_WPAPAVCOleControlSite@@@Z 0044324c f   uafxcw:occcont.obj
 0001:000423c7       ?CreateOleFont@COleControlContainer@@QAEXPAVCFont@@@Z 004433c7 f   uafxcw:occcont.obj
 0001:0004250b       ?EnumObjects@XOleContainer@COleControlContainer@@UAGJKPAPAUIEnumUnknown@@@Z 0044350b f   uafxcw:occcont.obj
 0001:00042621       ?FillListSitesOrWnds@COleControlContainer@@UAEHPAU_AFX_OCC_DIALOG_INFO@@@Z 00443621 f   uafxcw:occcont.obj
 0001:00042786       ?FindItem@COleControlContainer@@UBEPAVCOleControlSite@@I@Z 00443786 f   uafxcw:occcont.obj
 0001:000427ee       ?FreezeAllEvents@COleControlContainer@@QAEXH@Z 004437ee f   uafxcw:occcont.obj
 0001:00042827       ?GetAmbientProp@COleControlContainer@@UAEHPAVCOleControlSite@@JPAUtagVARIANT@@@Z 00443827 f   uafxcw:occcont.obj
 0001:00042a47       ?GetDispatchMap@COleControlContainer@@MBEPBUAFX_DISPMAP@@XZ 00443a47 f   uafxcw:occcont.obj
 0001:00042a4d       ?GetDlgItem@COleControlContainer@@UBEPAVCWnd@@H@Z 00443a4d f   uafxcw:occcont.obj
 0001:00042a7b       ?GetDlgItem@COleControlContainer@@UBEXHPAPAUHWND__@@@Z 00443a7b f   uafxcw:occcont.obj
 0001:00042ac4       ?GetDlgItemInt@COleControlContainer@@UBEIHPAHH@Z 00443ac4 f   uafxcw:occcont.obj
 0001:00042b8f       ?GetDlgItemTextW@COleControlContainer@@UBEHHPA_WH@Z 00443b8f f   uafxcw:occcont.obj
 0001:00042bc1       ?GetFont@CWnd@@QBEPAVCFont@@XZ 00443bc1 f i uafxcw:occcont.obj
 0001:00042bd7       ?GetInterfaceMap@CEnumUnknown@@MBEPBUAFX_INTERFACEMAP@@XZ 00443bd7 f   uafxcw:occcont.obj
 0001:00042bdd       ?GetInterfaceMap@COleControlContainer@@MBEPBUAFX_INTERFACEMAP@@XZ 00443bdd f   uafxcw:occcont.obj
 0001:00042be3       ?GetWindow@XOleIPFrame@COleControlContainer@@UAGJPAPAUHWND__@@@Z 00443be3 f   uafxcw:occcont.obj
 0001:00042bfa       ?HandleSetFocus@COleControlContainer@@UAEHXZ 00443bfa f   uafxcw:occcont.obj
 0001:00042c03       ?HandleWindowlessMessage@COleControlContainer@@UAEHIIJPAJ@Z 00443c03 f   uafxcw:occcont.obj
 0001:00042dee       ?InitControlContainer@CWnd@@IAEHH@Z 00443dee f   uafxcw:occcont.obj
 0001:00042efa       ?IsDlgButtonChecked@COleControlContainer@@UBEIH@Z 00443efa f   uafxcw:occcont.obj
 0001:00042f7a       ?IsManaged@CControlCreationInfo@@QBEHXZ 00443f7a f   uafxcw:occcont.obj
 0001:00042f83       ?OnNext@CEnumUnknown@@MAEHPAX@Z 00443f83 f   uafxcw:occcont.obj
 0001:00042fae       ?OnPaint@COleControlContainer@@UAEHPAVCDC@@@Z 00443fae f   uafxcw:occcont.obj
 0001:00043075       ?OnUIActivate@COleControlContainer@@UAEXPAVCOleControlSite@@@Z 00444075 f   uafxcw:occcont.obj
 0001:000430a8       ?OnUIDeactivate@COleControlContainer@@UAEXPAVCOleControlSite@@@Z 004440a8 f   uafxcw:occcont.obj
 0001:000430c4       ?ParseDisplayName@XOleContainer@COleControlContainer@@UAGJPAUIBindCtx@@PA_WPAKPAPAUIMoniker@@@Z 004440c4 f   uafxcw:occcont.obj
 0001:000430cc       ?QueryInterface@XOleContainer@COleControlContainer@@UAGJABU_GUID@@PAPAX@Z 004440cc f   uafxcw:occcont.obj
 0001:000430e4       ?QueryInterface@XOleIPFrame@COleControlContainer@@UAGJABU_GUID@@PAPAX@Z 004440e4 f   uafxcw:occcont.obj
 0001:000430fc       ?Release@XOleContainer@COleControlContainer@@UAGKXZ 004440fc f   uafxcw:occcont.obj
 0001:0004310e       ?Release@XOleIPFrame@COleControlContainer@@UAGKXZ 0044410e f   uafxcw:occcont.obj
 0001:00043120       ?ScrollChildren@COleControlContainer@@UAEXHH@Z 00444120 f   uafxcw:occcont.obj
 0001:0004317e       ?SendDlgItemMessageW@COleControlContainer@@UAEJHIIJ@Z 0044417e f   uafxcw:occcont.obj
 0001:000431b5       ?SetActiveObject@XOleIPFrame@COleControlContainer@@UAGJPAUIOleInPlaceActiveObject@@PB_W@Z 004441b5 f   uafxcw:occcont.obj
 0001:00043205       ?SetDlgItemInt@COleControlContainer@@UAEXHIH@Z 00444205 f   uafxcw:occcont.obj
 0001:0004326b       ?SetDlgItemTextW@COleControlContainer@@UAEXHPB_W@Z 0044426b f   uafxcw:occcont.obj
 0001:0004329a       ?TransferAddTail@?$CTypedPtrList@VCPtrList@@PAUCOleControlSiteOrWnd@@@@QAEPAU__POSITION@@PAUCOleControlSiteOrWnd@@@Z 0044429a f i uafxcw:occcont.obj
 0001:000432d7       ?TransferInsertBefore@?$_CTypedPtrList@VCPtrList@@PAUCOleControlSiteOrWnd@@@@QAEPAU__POSITION@@PAU2@PAUCOleControlSiteOrWnd@@@Z 004442d7 f i uafxcw:occcont.obj
 0001:00043317       ??$GetValue@PA_W@CDynamicAccessor@ATL@@QBE_NKPAPA_W@Z 00444317 f i uafxcw:occsite.obj
 0001:00043351       ??$GetValue@UtagDBDATE@@@CDynamicAccessor@ATL@@QBE_NKPAUtagDBDATE@@@Z 00444351 f i uafxcw:occsite.obj
 0001:00043351       ??$GetValue@UtagDBTIME@@@CDynamicAccessor@ATL@@QBE_NKPAUtagDBTIME@@@Z 00444351 f i uafxcw:occsite.obj
 0001:00043392       ??$GetValue@UtagDBTIMESTAMP@@@CDynamicAccessor@ATL@@QBE_NKPAUtagDBTIMESTAMP@@@Z 00444392 f i uafxcw:occsite.obj
 0001:000433cd       ??$GetValue@UtagDB_NUMERIC@@@CDynamicAccessor@ATL@@QBE_NKPAUtagDB_NUMERIC@@@Z 004443cd f i uafxcw:occsite.obj
 0001:0004340b       ??$QueryInterface@UIAccessor@@@IUnknown@@QAGJPAPAUIAccessor@@@Z 0044440b f i uafxcw:occsite.obj
 0001:0004342e       ??$QueryInterface@UIColumnsInfo@@@IUnknown@@QAGJPAPAUIColumnsInfo@@@Z 0044442e f i uafxcw:occsite.obj
 0001:00043451       ??$QueryInterface@UIRowsetChange@@@IUnknown@@QAGJPAPAUIRowsetChange@@@Z 00444451 f i uafxcw:occsite.obj
 0001:00043474       ??$QueryInterface@UIRowsetInfo@@@IUnknown@@QAGJPAPAUIRowsetInfo@@@Z 00444474 f i uafxcw:occsite.obj
 0001:00043497       ??$SetValue@C@CDynamicAccessor@ATL@@QAE_NKABC@Z 00444497 f i uafxcw:occsite.obj
 0001:00043497       ??$SetValue@E@CDynamicAccessor@ATL@@QAE_NKABE@Z 00444497 f i uafxcw:occsite.obj
 0001:000434cb       ??$SetValue@F@CDynamicAccessor@ATL@@QAE_NKABF@Z 004444cb f i uafxcw:occsite.obj
 0001:000434cb       ??$SetValue@G@CDynamicAccessor@ATL@@QAE_NKABG@Z 004444cb f i uafxcw:occsite.obj
 0001:00043501       ??$SetValue@J@CDynamicAccessor@ATL@@QAE_NKABJ@Z 00444501 f i uafxcw:occsite.obj
 0001:00043501       ??$SetValue@K@CDynamicAccessor@ATL@@QAE_NKABK@Z 00444501 f i uafxcw:occsite.obj
 0001:00043501       ??$SetValue@PA_W@CDynamicAccessor@ATL@@QAE_NKABQA_W@Z 00444501 f i uafxcw:occsite.obj
 0001:00043535       ??$SetValue@M@CDynamicAccessor@ATL@@QAE_NKABM@Z 00444535 f i uafxcw:occsite.obj
 0001:00043569       ??$SetValue@N@CDynamicAccessor@ATL@@QAE_NKABN@Z 00444569 f i uafxcw:occsite.obj
 0001:0004359d       ??$SetValue@UtagDEC@@@CDynamicAccessor@ATL@@QAE_NKABUtagDEC@@@Z 0044459d f i uafxcw:occsite.obj
 0001:000435e1       ??0?$CComQIPtr@UIChapteredRowset@@$1?_GUID_0c733a93_2a1c_11ce_ade5_00aa0044773d@@3U__s_GUID@@B@ATL@@QAE@PAUIUnknown@@@Z 004445e1 f i uafxcw:occsite.obj
 0001:00043645       ??0?$CRowset@VCAccessorBase@ATL@@@ATL@@QAE@PAUIRowset@@@Z 00444645 f i uafxcw:occsite.obj
 0001:0004366e       ??0CDataBoundProperty@@QAE@PAV0@JG@Z 0044466e f   uafxcw:occsite.obj
 0001:00043695       ??0CDataSourceControl@@QAE@PAVCOleControlSite@@@Z 00444695 f   uafxcw:occsite.obj
 0001:000436ea       ??0COleControlSite@@QAE@PAVCOleControlContainer@@@Z 004446ea f   uafxcw:occsite.obj
 0001:00043807       ??1?$CRowset@VCAccessorBase@ATL@@@ATL@@QAE@XZ 00444807 f i uafxcw:occsite.obj
 0001:0004381f       ??1CDataSourceControl@@UAE@XZ 0044481f f   uafxcw:occsite.obj
 0001:00043adc       ??1CManualAccessor@ATL@@QAE@XZ 00444adc f i uafxcw:occsite.obj
 0001:00043af3       ??1COleControlSite@@UAE@XZ 00444af3 f   uafxcw:occsite.obj
 0001:00043d5f       ??_ECDataSourceControl@@UAEPAXI@Z 00444d5f f i uafxcw:occsite.obj
 0001:00043d5f       ??_GCDataSourceControl@@UAEPAXI@Z 00444d5f f i uafxcw:occsite.obj
 0001:00043d81       ??_ECOleControlSite@@UAEPAXI@Z 00444d81 f i uafxcw:occsite.obj
 0001:00043d81       ??_GCOleControlSite@@UAEPAXI@Z 00444d81 f i uafxcw:occsite.obj
 0001:00043db4       ?AboutToDo@XNotifyDBEvents@COleControlSite@@UAGJKKQAUtagDBNOTIFYREASON@@@Z 00444db4 f   uafxcw:occsite.obj
 0001:00043df3       ?AddBindEntry@CManualAccessor@ATL@@QAEXKGKPAX00@Z 00444df3 f i uafxcw:occsite.obj
 0001:00043e80       ?AddRef@XAmbientProps@COleControlSite@@UAGKXZ 00444e80 f   uafxcw:occsite.obj
 0001:00043e96       ?AddRef@XBoundObjectSite@COleControlSite@@UAGKXZ 00444e96 f   uafxcw:occsite.obj
 0001:00043ec8       ?AddRef@XOleClientSite@COleControlSite@@UAGKXZ 00444ec8 f   uafxcw:occsite.obj
 0001:00043ede       ?AddRef@XOleControlSite@COleControlSite@@UAGKXZ 00444ede f   uafxcw:occsite.obj
 0001:00043ef4       ?AddRef@XOleIPSite@COleControlSite@@UAGKXZ 00444ef4 f   uafxcw:occsite.obj
 0001:00043f0a       ?AllocateAccessorMemory@CAccessorBase@ATL@@QAEJH@Z 00444f0a f i uafxcw:occsite.obj
 0001:00043f72       ?AttachWindow@COleControlSite@@QAEXXZ 00444f72 f   uafxcw:occsite.obj
 0001:00043fc5       ?Bind@CAccessorBase@ATL@@SAXPAUtagDBBINDING@@KGKEEKKKKPAUtagDBOBJECT@@@Z 00444fc5 f i uafxcw:occsite.obj
 0001:0004404f       ?BindColumns@CDataSourceControl@@UAEXXZ 0044504f f   uafxcw:occsite.obj
 0001:0004426c       ?BindColumns@CDynamicAccessor@ATL@@QAEJPAUIUnknown@@@Z 0044526c f i uafxcw:occsite.obj
 0001:0004495d       ?BindColumns@CManualAccessor@ATL@@QAEJPAUIUnknown@@@Z 0044595d f i uafxcw:occsite.obj
 0001:00044a9b       ?BindDefaultProperty@COleControlSite@@UAEXJGPB_WPAVCWnd@@@Z 00445a9b f   uafxcw:occsite.obj
 0001:00044b8f       ?BindEntries@CAccessorBase@ATL@@SAJPAUtagDBBINDING@@KPAKKPAUIAccessor@@@Z 00445b8f f i uafxcw:occsite.obj
 0001:00044c32       ?BindEx@CDynamicAccessor@ATL@@SAXPAUtagDBBINDING@@KGKEEKKKKPAUtagDBOBJECT@@K_N@Z 00445c32 f i uafxcw:occsite.obj
 0001:00044cc0       ?BindProp@CDataSourceControl@@UAEXPAVCDataBoundProperty@@H@Z 00445cc0 f   uafxcw:occsite.obj
 0001:00044d1f       ?BindProp@CDataSourceControl@@UAEXPAVCOleControlSite@@H@Z 00445d1f f   uafxcw:occsite.obj
 0001:00044e9f       ?BindProperty@COleControlSite@@UAEXJPAVCWnd@@@Z 00445e9f f   uafxcw:occsite.obj
 0001:00044fb0       ?CanWindowlessActivate@XOleIPSite@COleControlSite@@UAGJXZ 00445fb0 f   uafxcw:occsite.obj
 0001:00044fb0       ?RequestUIActivate@XOleIPSite@COleControlSite@@UAGJXZ 00445fb0 f   uafxcw:occsite.obj
 0001:00044fd3       ?Cancelled@XNotifyDBEvents@COleControlSite@@UAGJKKQAUtagDBNOTIFYREASON@@@Z 00445fd3 f   uafxcw:occsite.obj
 0001:00045012       ?Close@?$CRowset@VCAccessorBase@ATL@@@ATL@@QAEXXZ 00446012 f i uafxcw:occsite.obj
 0001:00045071       ?Close@CDynamicAccessor@ATL@@QAEXXZ 00446071 f i uafxcw:occsite.obj
 0001:000450ad       ?CopyColumnID@CDataSourceControl@@QAEHPAUtagDBCOLUMNID@@PBU2@@Z 004460ad f   uafxcw:occsite.obj
 0001:0004512a       ?CreateAccessor@CManualAccessor@ATL@@QAEJHPAXK@Z 0044612a f i uafxcw:occsite.obj
 0001:000451b9       ?CreateControl@COleControlSite@@QAEJPAVCWnd@@ABVCControlCreationInfo@@KPBUtagPOINT@@PBUtagSIZE@@I@Z 004461b9 f   uafxcw:occsite.obj
 0001:000451f7       ?CreateControl@COleControlSite@@UAEJPAVCWnd@@ABU_GUID@@PB_WKABUtagRECT@@IPAVCFile@@HPA_W@Z 004461f7 f   uafxcw:occsite.obj
 0001:00045290       ?CreateControl@COleControlSite@@UAEJPAVCWnd@@ABU_GUID@@PB_WKPBUtagPOINT@@PBUtagSIZE@@IPAVCFile@@HPA_W@Z 00446290 f   uafxcw:occsite.obj
 0001:00045318       ?CreateControlCommon@COleControlSite@@MAEJPAVCWnd@@ABU_GUID@@ABVCControlCreationInfo@@PB_WKPBUtagPOINT@@PBUtagSIZE@@IPAVCFile@@HPA_W@Z 00446318 f   uafxcw:occsite.obj
 0001:000459ef       ?CreateOrLoad@COleControlSite@@MAEJABU_GUID@@PAVCFile@@HPA_W@Z 004469ef f   uafxcw:occsite.obj
 0001:00045e21       ?CreateOrLoad@COleControlSite@@MAEJABVCControlCreationInfo@@@Z 00446e21 f   uafxcw:occsite.obj
 0001:00045e29       ?DeactivateAndUndo@XOleIPSite@COleControlSite@@UAGJXZ 00446e29 f   uafxcw:occsite.obj
 0001:00045e54       ?DestroyControl@COleControlSite@@UAEHXZ 00446e54 f   uafxcw:occsite.obj
 0001:00045f05       ?DetachWindow@COleControlSite@@QAEXXZ 00446f05 f   uafxcw:occsite.obj
 0001:00045f61       ?DidEvent@XNotifyDBEvents@COleControlSite@@UAGJKKQAUtagDBNOTIFYREASON@@@Z 00446f61 f   uafxcw:occsite.obj
 0001:00045fd4       ?DisconnectSink@COleControlSite@@IAEXABU_GUID@@K@Z 00446fd4 f   uafxcw:occsite.obj
 0001:0004606a       ?DoVerb@COleControlSite@@UAEJJPAUtagMSG@@@Z 0044706a f   uafxcw:occsite.obj
 0001:000460be       ?EnableDSC@COleControlSite@@UAEXXZ 004470be f   uafxcw:occsite.obj
 0001:00046109       ?EnableWindow@COleControlSite@@UAEHH@Z 00447109 f   uafxcw:occsite.obj
 0001:000461b9       ?FailedToDo@XNotifyDBEvents@COleControlSite@@UAGJKKQAUtagDBNOTIFYREASON@@@Z 004471b9 f   uafxcw:occsite.obj
 0001:000461f8       ?FireEvent@XNotifyDBEvents@COleControlSite@@QAEJKKQAUtagDBNOTIFYREASON@@W4DSCSTATE@@@Z 004471f8 f   uafxcw:occsite.obj
 0001:000462ef       ?FreeRecordMemory@CDynamicAccessor@ATL@@QAEXPAUIRowset@@@Z 004472ef f i uafxcw:occsite.obj
 0001:000463b7       ?FreeType@CAccessorBase@ATL@@SAXGPAEPAUIRowset@@@Z 004473b7 f i uafxcw:occsite.obj
 0001:000464a4       ?FreezeEvents@COleControlSite@@QAEXH@Z 004474a4 f   uafxcw:occsite.obj
 0001:00046508       ?GetAlignment@CDynamicAccessor@ATL@@SAIG@Z 00447508 f i uafxcw:occsite.obj
 0001:0004659c       ?GetBoundClientRow@CDataSourceControl@@QAEJXZ 0044759c f   uafxcw:occsite.obj
 0001:000465ff       ?GetCapture@XOleIPSite@COleControlSite@@UAGJXZ 004475ff f   uafxcw:occsite.obj
 0001:00046634       ?GetColumnName@CDynamicAccessor@ATL@@QBEPA_WK@Z 00447634 f i uafxcw:occsite.obj
 0001:0004665a       ?GetColumnType@CDynamicAccessor@ATL@@QBE_NKPAG@Z 0044765a f i uafxcw:occsite.obj
 0001:0004668e       ?GetContainer@XOleClientSite@COleControlSite@@UAGJPAPAUIOleContainer@@@Z 0044768e f   uafxcw:occsite.obj
 0001:000466ab       ?GetControlInfo@COleControlSite@@IAEXXZ 004476ab f   uafxcw:occsite.obj
 0001:00046721       ?GetCursor@CDataBoundProperty@@QAEPAUIUnknown@@XZ 00447721 f   uafxcw:occsite.obj
 0001:00046780       ?GetCursor@CDataSourceControl@@UAEPAUIUnknown@@XZ 00447780 f   uafxcw:occsite.obj
 0001:00046813       ?GetCursor@COleControlSite@@IAEJJPAPAUIUnknown@@PAPAX@Z 00447813 f   uafxcw:occsite.obj
 0001:0004684b       ?GetCursor@XBoundObjectSite@COleControlSite@@UAGJJPAPAUICursor@@PAPAX@Z 0044784b f   uafxcw:occsite.obj
 0001:00046886       ?GetDC@XOleIPSite@COleControlSite@@UAGJPBUtagRECT@@KPAPAUHDC__@@@Z 00447886 f   uafxcw:occsite.obj
 0001:000469a1       ?GetData@?$CRowset@VCAccessorBase@ATL@@@ATL@@QAEJH@Z 004479a1 f i uafxcw:occsite.obj
 0001:00046a0b       ?GetData@?$CRowset@VCAccessorBase@ATL@@@ATL@@QAEJXZ 00447a0b f i uafxcw:occsite.obj
 0001:00046a56       ?GetDefBtnCode@COleControlSite@@QAEKXZ 00447a56 f   uafxcw:occsite.obj
 0001:00046a6f       ?GetDlgCtrlID@COleControlSite@@UBEHXZ 00447a6f f   uafxcw:occsite.obj
 0001:00046a73       ?GetEventIID@COleControlSite@@QAEHPAU_GUID@@@Z 00447a73 f   uafxcw:occsite.obj
 0001:00046c88       ?GetExStyle@COleControlSite@@UBEKXZ 00447c88 f   uafxcw:occsite.obj
 0001:00046cf9       ?GetFocus@XOleIPSite@COleControlSite@@UAGJXZ 00447cf9 f   uafxcw:occsite.obj
 0001:00046d1f       ?GetInterfaceMap@COleControlSite@@MBEPBUAFX_INTERFACEMAP@@XZ 00447d1f f   uafxcw:occsite.obj
 0001:00046d25       ?GetMetaData@CDataSourceControl@@QAEJXZ 00447d25 f   uafxcw:occsite.obj
 0001:0004712b       ?GetNext@CDataBoundProperty@@QAEPAV1@XZ 0044812b f   uafxcw:occsite.obj
 0001:0004712f       ?GetProperty@COleControlSite@@UBEXJGPAX@Z 0044812f f   uafxcw:occsite.obj
 0001:00047157       ?GetRowsetProperties@CDynamicAccessor@ATL@@QAEJPAUIUnknown@@PAKPAHK@Z 00448157 f i uafxcw:occsite.obj
 0001:00047281       ?GetStatus@CDynamicAccessor@ATL@@QBE_NKPAK@Z 00448281 f i uafxcw:occsite.obj
 0001:000472d3       ?GetStyle@COleControlSite@@UBEKXZ 004482d3 f   uafxcw:occsite.obj
 0001:000473af       ?GetValue@CDynamicAccessor@ATL@@QBEPAXK@Z 004483af f i uafxcw:occsite.obj
 0001:000473d9       ?GetWindow@XOleIPSite@COleControlSite@@UAGJPAPAUHWND__@@@Z 004483d9 f   uafxcw:occsite.obj
 0001:00047406       ?GetWindowContext@XOleIPSite@COleControlSite@@UAGJPAPAUIOleInPlaceFrame@@PAPAUIOleInPlaceUIWindow@@PAUtagRECT@@2PAUtagOIFI@@@Z 00448406 f   uafxcw:occsite.obj
 0001:0004748f       ?GetWindowTextW@COleControlSite@@UBEXAAV?$CStringT@_WV?$StrTraitMFC@_WV?$ChTraitsCRT@_W@ATL@@@@@ATL@@@Z 0044848f f   uafxcw:occsite.obj
 0001:00047511       ?Initialize@CDataSourceControl@@QAEJXZ 00448511 f   uafxcw:occsite.obj
 0001:0004775c       ?InvalidateRect@XOleIPSite@COleControlSite@@UAGJPBUtagRECT@@H@Z 0044875c f   uafxcw:occsite.obj
 0001:000477ff       ?InvalidateRgn@XOleIPSite@COleControlSite@@UAGJPAUHRGN__@@H@Z 004487ff f   uafxcw:occsite.obj
 0001:000478df       ?Invoke@XAmbientProps@COleControlSite@@UAGJJABU_GUID@@KGPAUtagDISPPARAMS@@PAUtagVARIANT@@PAUtagEXCEPINFO@@PAI@Z 004488df f   uafxcw:occsite.obj
 0001:00047948       ?Invoke@XEventSink@COleControlSite@@UAGJJABU_GUID@@KGPAUtagDISPPARAMS@@PAUtagVARIANT@@PAUtagEXCEPINFO@@PAI@Z 00448948 f   uafxcw:occsite.obj
 0001:000479b6       ?InvokeHelper@COleControlSite@@UAAXJGGPAXPBEZZ 004489b6 f   uafxcw:occsite.obj
 0001:000479e5       ?InvokeHelperV@COleControlSite@@UAEXJGGPAXPBEPAD@Z 004489e5 f   uafxcw:occsite.obj
 0001:00047a49       ?IsAutoAccessor@CAccessorBase@ATL@@QBE_NK@Z 00448a49 f i uafxcw:occsite.obj
 0001:00047a66       ?IsDefaultButton@COleControlSite@@QAEHXZ 00448a66 f   uafxcw:occsite.obj
 0001:00047a7c       ?IsMatchingMnemonic@COleControlSite@@QAEHPAUtagMSG@@@Z 00448a7c f   uafxcw:occsite.obj
 0001:00047b28       ?IsWindowEnabled@COleControlSite@@UBEHXZ 00448b28 f   uafxcw:occsite.obj
 0001:00047b8b       ?ModifyStyle@COleControlSite@@UAEHKKI@Z 00448b8b f   uafxcw:occsite.obj
 0001:00047c43       ?ModifyStyleEx@COleControlSite@@UAEHKKI@Z 00448c43 f   uafxcw:occsite.obj
 0001:00047cae       ?MoveFirst@?$CRowset@VCAccessorBase@ATL@@@ATL@@QAEJXZ 00448cae f i uafxcw:occsite.obj
 0001:00047d10       ?MoveNext@?$CRowset@VCAccessorBase@ATL@@@ATL@@QAEJJ_N@Z 00448d10 f i uafxcw:occsite.obj
 0001:00047da2       ?MoveWindow@COleControlSite@@UAEXHHHH@Z 00448da2 f   uafxcw:occsite.obj
 0001:00047e3f       ?Notify@CDataBoundProperty@@QAEXXZ 00448e3f f   uafxcw:occsite.obj
 0001:00047eff       ?OKToDo@XNotifyDBEvents@COleControlSite@@UAGJKKQAUtagDBNOTIFYREASON@@@Z 00448eff f   uafxcw:occsite.obj
 0001:00047f84       ?OnChanged@XPropertyNotifySink@COleControlSite@@UAGJJ@Z 00448f84 f   uafxcw:occsite.obj
 0001:000480fd       ?OnControlInfoChanged@XOleControlSite@COleControlSite@@UAGJXZ 004490fd f   uafxcw:occsite.obj
 0001:00048114       ?OnDefWindowMessage@XOleIPSite@COleControlSite@@UAGJIIJPAJ@Z 00449114 f   uafxcw:occsite.obj
 0001:00048114       ?ScrollRect@XOleIPSite@COleControlSite@@UAGJHHPBUtagRECT@@0@Z 00449114 f   uafxcw:occsite.obj
 0001:0004813a       ?OnEvent@COleControlSite@@IAEHPAUAFX_EVENT@@@Z 0044913a f   uafxcw:occsite.obj
 0001:000481ab       ?OnFieldChange@XRowsetNotify@COleControlSite@@UAGJPAUIRowset@@KKQAKKKH@Z 004491ab f   uafxcw:occsite.obj
 0001:00048277       ?OnInPlaceActivateEx@XOleIPSite@COleControlSite@@UAGJPAHK@Z 00449277 f   uafxcw:occsite.obj
 0001:000482d7       ?OnInPlaceDeactivate@XOleIPSite@COleControlSite@@UAGJXZ 004492d7 f   uafxcw:occsite.obj
 0001:00048333       ?OnInPlaceDeactivateEx@XOleIPSite@COleControlSite@@UAGJH@Z 00449333 f   uafxcw:occsite.obj
 0001:0004834f       ?OnPosRectChange@XOleIPSite@COleControlSite@@UAGJPBUtagRECT@@@Z 0044934f f   uafxcw:occsite.obj
 0001:000483e3       ?OnRequestEdit@XPropertyNotifySink@COleControlSite@@UAGJJ@Z 004493e3 f   uafxcw:occsite.obj
 0001:0004844e       ?OnRowChange@XRowsetNotify@COleControlSite@@UAGJPAUIRowset@@KQBKKKH@Z 0044944e f   uafxcw:occsite.obj
 0001:000485a9       ?OnRowsetChange@XRowsetNotify@COleControlSite@@UAGJPAUIRowset@@KKH@Z 004495a9 f   uafxcw:occsite.obj
 0001:0004864e       ?OnUIActivate@XOleIPSite@COleControlSite@@UAGJXZ 0044964e f   uafxcw:occsite.obj
 0001:00048683       ?OnUIDeactivate@XOleIPSite@COleControlSite@@UAGJH@Z 00449683 f   uafxcw:occsite.obj
 0001:000486ae       ?QueryInterface@XAmbientProps@COleControlSite@@UAGJABU_GUID@@PAPAX@Z 004496ae f   uafxcw:occsite.obj
 0001:000486c9       ?QueryInterface@XBoundObjectSite@COleControlSite@@UAGJABU_GUID@@PAPAX@Z 004496c9 f   uafxcw:occsite.obj
 0001:00048701       ?QueryInterface@XEventSink@COleControlSite@@UAGJABU_GUID@@PAPAX@Z 00449701 f   uafxcw:occsite.obj
 0001:0004876c       ?QueryInterface@XNotifyDBEvents@COleControlSite@@UAGJABU_GUID@@PAPAX@Z 0044976c f   uafxcw:occsite.obj
 0001:000487c2       ?QueryInterface@XOleClientSite@COleControlSite@@UAGJABU_GUID@@PAPAX@Z 004497c2 f   uafxcw:occsite.obj
 0001:000487dd       ?QueryInterface@XOleControlSite@COleControlSite@@UAGJABU_GUID@@PAPAX@Z 004497dd f   uafxcw:occsite.obj
 0001:000487f8       ?QueryInterface@XOleIPSite@COleControlSite@@UAGJABU_GUID@@PAPAX@Z 004497f8 f   uafxcw:occsite.obj
 0001:00048813       ?QueryInterface@XPropertyNotifySink@COleControlSite@@UAGJABU_GUID@@PAPAX@Z 00449813 f   uafxcw:occsite.obj
 0001:00048869       ?QueryInterface@XRowsetNotify@COleControlSite@@UAGJABU_GUID@@PAPAX@Z 00449869 f   uafxcw:occsite.obj
 0001:000488bf       ?QuickActivate@COleControlSite@@UAEHXZ 004498bf f   uafxcw:occsite.obj
 0001:00048b03       ?Release@?$CComPtrBase@UIRowset@@@ATL@@QAEXXZ 00449b03 f i uafxcw:occsite.obj
 0001:00048b03       ?Release@?$CComPtrBase@UIRowsetChange@@@ATL@@QAEXXZ 00449b03 f i uafxcw:occsite.obj
 0001:00048b52       ?Release@XAmbientProps@COleControlSite@@UAGKXZ 00449b52 f   uafxcw:occsite.obj
 0001:00048b67       ?Release@XBoundObjectSite@COleControlSite@@UAGKXZ 00449b67 f   uafxcw:occsite.obj
 0001:00048b99       ?Release@XOleClientSite@COleControlSite@@UAGKXZ 00449b99 f   uafxcw:occsite.obj
 0001:00048bae       ?Release@XOleControlSite@COleControlSite@@UAGKXZ 00449bae f   uafxcw:occsite.obj
 0001:00048bc3       ?Release@XOleIPSite@COleControlSite@@UAGKXZ 00449bc3 f   uafxcw:occsite.obj
 0001:00048bd8       ?ReleaseAccessors@CAccessorBase@ATL@@QAEJPAUIUnknown@@@Z 00449bd8 f i uafxcw:occsite.obj
 0001:00048cbb       ?ReleaseDC@XOleIPSite@COleControlSite@@UAGJPAUHDC__@@@Z 00449cbb f   uafxcw:occsite.obj
 0001:00048cfc       ?ReleaseRows@?$CRowset@VCAccessorBase@ATL@@@ATL@@QAEJXZ 00449cfc f i uafxcw:occsite.obj
 0001:00048d5b       ?SafeSetProperty@COleControlSite@@UAAHJGZZ 00449d5b f   uafxcw:occsite.obj
 0001:00048db2       ?LoadState@CMFCOutlookBarToolBar@@UAEHPB_WHI@Z 00449db2 f   uafxcw:afxoutlookbartabctrl.obj
 0001:00048db2       ?SaveState@CMFCOutlookBarToolBar@@UAEHPB_WHI@Z 00449db2 f   uafxcw:afxoutlookbartabctrl.obj
 0001:00048db2       ?Scroll@XOleIPSite@COleControlSite@@UAGJUtagSIZE@@@Z 00449db2 f   uafxcw:occsite.obj
 0001:00048db2       ?accHitTest@CMFCBaseAccessibleObject@@UAEJJJPAUtagVARIANT@@@Z 00449db2 f   uafxcw:afxbaseribbonelement.obj
 0001:00048db8       ?SendMnemonic@COleControlSite@@QAEXPAUtagMSG@@@Z 00449db8 f   uafxcw:occsite.obj
 0001:00048e3d       ?SetCapture@XOleIPSite@COleControlSite@@UAGJH@Z 00449e3d f   uafxcw:occsite.obj
 0001:00048e92       ?SetClientSite@CDataBoundProperty@@QAEXPAVCOleControlSite@@@Z 00449e92 f   uafxcw:occsite.obj
 0001:00048e9e       ?SetDSCSite@CDataBoundProperty@@QAEXPAVCOleControlSite@@@Z 00449e9e f   uafxcw:occsite.obj
 0001:00048eb5       ?SetData@?$CRowset@VCAccessorBase@ATL@@@ATL@@QBEJH@Z 00449eb5 f i uafxcw:occsite.obj
 0001:00048f2b       ?SetData@?$CRowset@VCAccessorBase@ATL@@@ATL@@QBEJXZ 00449f2b f i uafxcw:occsite.obj
 0001:00048f57       ?SetDefaultButton@COleControlSite@@QAEXH@Z 00449f57 f   uafxcw:occsite.obj
 0001:00048fdc       ?SetDlgCtrlID@COleControlSite@@UAEHH@Z 00449fdc f   uafxcw:occsite.obj
 0001:00048fec       ?SetExtent@COleControlSite@@IAEHXZ 00449fec f   uafxcw:occsite.obj
 0001:0004909f       ?SetFocus@COleControlSite@@UAEPAVCWnd@@PAUtagMSG@@@Z 0044a09f f   uafxcw:occsite.obj
 0001:00049107       ?SetFocus@COleControlSite@@UAEPAVCWnd@@XZ 0044a107 f   uafxcw:occsite.obj
 0001:00049168       ?SetFocus@XOleIPSite@COleControlSite@@UAGJH@Z 0044a168 f   uafxcw:occsite.obj
 0001:000491ad       ?SetProperty@COleControlSite@@UAAXJGZZ 0044a1ad f   uafxcw:occsite.obj
 0001:000491d4       ?SetPropertyV@COleControlSite@@UAEXJGPAD@Z 0044a1d4 f   uafxcw:occsite.obj
 0001:00049238       ?SetWindowPos@COleControlSite@@UAEHPBVCWnd@@HHHHI@Z 0044a238 f   uafxcw:occsite.obj
 0001:000492fc       ?SetWindowTextW@COleControlSite@@UAEXPB_W@Z 0044a2fc f   uafxcw:occsite.obj
 0001:00049352       ?ShowObject@XOleClientSite@COleControlSite@@UAGJXZ 0044a352 f   uafxcw:occsite.obj
 0001:00049382       ?ShowWindow@COleControlSite@@UAEHH@Z 0044a382 f   uafxcw:occsite.obj
 0001:000493d1       ?SyncAfter@XNotifyDBEvents@COleControlSite@@UAGJKKQAUtagDBNOTIFYREASON@@@Z 0044a3d1 f   uafxcw:occsite.obj
 0001:0004945d       ?SyncBefore@XNotifyDBEvents@COleControlSite@@UAGJKKQAUtagDBNOTIFYREASON@@@Z 0044a45d f   uafxcw:occsite.obj
 0001:000494ce       ?ToVariant@CDataSourceControl@@QAE?AVCOleVariant@@H@Z 0044a4ce f   uafxcw:occsite.obj
 0001:00049902       ?TransformCoords@XOleControlSite@COleControlSite@@UAGJPAU_POINTL@@PAUtagPOINTF@@K@Z 0044a902 f   uafxcw:occsite.obj
 0001:00049a06       ?TranslateColumnNo@CDynamicAccessor@ATL@@QBE_NAAK@Z 0044aa06 f i uafxcw:occsite.obj
 0001:00049a5c       ?UpdateControls@CDataSourceControl@@UAEJXZ 0044aa5c f   uafxcw:occsite.obj
 0001:00049c34       ?UpdateCursor@CDataSourceControl@@UAEJXZ 0044ac34 f   uafxcw:occsite.obj
 0001:0004a334       ?_AfxCoCreateInstanceLic@@YGJABU_GUID@@PAUIUnknown@@K0PAPAXPA_W@Z 0044b334 f   uafxcw:occsite.obj
 0001:0004a3dd       ?GetDefBtnCode@COccManager@@SAKPAVCWnd@@@Z 0044b3dd f   uafxcw:occdlg.obj
 0001:0004a403       ?IsDialogMessageW@COccManager@@UAEHPAVCWnd@@PAUtagMSG@@@Z 0044b403 f   uafxcw:occdlg.obj
 0001:0004a929       ?IsLabelControl@COccManager@@SAHPAUCOleControlSiteOrWnd@@@Z 0044b929 f   uafxcw:occdlg.obj
 0001:0004a98a       ?IsMatchingMnemonic@COccManager@@SAHPAUCOleControlSiteOrWnd@@PAUtagMSG@@@Z 0044b98a f   uafxcw:occdlg.obj
 0001:0004a9b4       ?SetDefaultButton@COccManager@@SAXPAVCWnd@@H@Z 0044b9b4 f   uafxcw:occdlg.obj
 0001:0004aa01       ?UIActivateControl@COccManager@@KAXPAVCWnd@@@Z 0044ba01 f   uafxcw:occdlg.obj
 0001:0004aa7c       ?UIDeactivateIfNecessary@COccManager@@KAXPAVCWnd@@0@Z 0044ba7c f   uafxcw:occdlg.obj
 0001:0004ab09       ?_AfxCheckDefPushButton@@YGXPAVCWnd@@00@Z 0044bb09 f   uafxcw:occdlg.obj
 0001:0004abf3       ?_AfxDlgSetFocus@@YGXPAVCWnd@@@Z 0044bbf3 f   uafxcw:occdlg.obj
 0001:0004ac24       ?_AfxFindDlgItem@@YGPAVCWnd@@PAV1@K@Z 0044bc24 f   uafxcw:occdlg.obj
 0001:0004ac7d       ?_AfxFindNextMnem@@YGPAUCOleControlSiteOrWnd@@PAVCWnd@@PAU1@PAUtagMSG@@@Z 0044bc7d f   uafxcw:occdlg.obj
 0001:0004adeb       ?_AfxFindSiteOrWnd@@YGPAUCOleControlSiteOrWnd@@PAVCWnd@@0@Z 0044bdeb f   uafxcw:occdlg.obj
 0001:0004ae42       ?_AfxGetChildControl@@YGPAVCWnd@@PAV1@0@Z 0044be42 f   uafxcw:occdlg.obj
 0001:0004ae99       ?_AfxGetDlgCode@@YGKPAVCWnd@@PAUtagMSG@@@Z 0044be99 f   uafxcw:occdlg.obj
 0001:0004aec9       ?_AfxGetNextMnem@@YGPAUCOleControlSiteOrWnd@@PAVCWnd@@0PAUtagMSG@@@Z 0044bec9 f   uafxcw:occdlg.obj
 0001:0004afd7       ?_AfxNextControl@@YGPAVCWnd@@PAV1@0I@Z 0044bfd7 f   uafxcw:occdlg.obj
 0001:0004b0a6       ?_AfxOriginalDefButton@@YGHPAVCWnd@@@Z 0044c0a6 f   uafxcw:occdlg.obj
 0001:0004b0d9       ?_AfxRemoveDefaultButton@@YGXPAVCWnd@@0@Z 0044c0d9 f   uafxcw:occdlg.obj
 0001:0004b13d       ?AfxThrowFileException@@YGXHJPB_W@Z 0044c13d f   uafxcw:filex.obj
 0001:0004b182       ?GetErrorMessage@CFileException@@UBEHPA_WIPAI@Z 0044c182 f   uafxcw:filex.obj
 0001:0004b245       ?GetRuntimeClass@CFileException@@UBEPAUCRuntimeClass@@XZ 0044c245 f   uafxcw:filex.obj
 0001:0004b24b       ?OsErrorToException@CFileException@@SGHJ@Z 0044c24b f   uafxcw:filex.obj
 0001:0004b4e7       ?ThrowOsError@CFileException@@SGXJPB_W@Z 0044c4e7 f   uafxcw:filex.obj
 0001:0004b505       ??0CTime@ATL@@QAE@ABU_FILETIME@@H@Z 0044c505 f i uafxcw:filest.obj
 0001:0004b57b       ??0CTime@ATL@@QAE@ABU_SYSTEMTIME@@H@Z 0044c57b f i uafxcw:filest.obj
 0001:0004b5d3       ??0CTime@ATL@@QAE@HHHHHHH@Z 0044c5d3 f i uafxcw:filest.obj
 0001:0004b67e       ?AfxTimeToFileTime@@YAXABVCTime@ATL@@PAU_FILETIME@@@Z 0044c67e f   uafxcw:filest.obj
 0001:0004b725       ?GetDay@CTime@ATL@@QBEHXZ  0044c725 f i uafxcw:filest.obj
 0001:0004b77d       ?GetFileAttributesExW@CAtlTransactionManager@ATL@@QAEHPB_WW4_GET_FILEEX_INFO_LEVELS@@PAX@Z 0044c77d f i uafxcw:filest.obj
 0001:0004b7de       ?GetFileName@CFile@@UBE?AV?$CStringT@_WV?$StrTraitMFC@_WV?$ChTraitsCRT@_W@ATL@@@@@ATL@@XZ 0044c7de f   uafxcw:filest.obj
 0001:0004b873       ?GetFilePath@CFile@@UBE?AV?$CStringT@_WV?$StrTraitMFC@_WV?$ChTraitsCRT@_W@ATL@@@@@ATL@@XZ 0044c873 f   uafxcw:filest.obj
 0001:0004b8e1       ?GetFileTitle@CFile@@UBE?AV?$CStringT@_WV?$StrTraitMFC@_WV?$ChTraitsCRT@_W@ATL@@@@@ATL@@XZ 0044c8e1 f   uafxcw:filest.obj
 0001:0004b976       ?GetHour@CTime@ATL@@QBEHXZ 0044c976 f i uafxcw:filest.obj
 0001:0004b9cf       ?GetMinute@CTime@ATL@@QBEHXZ 0044c9cf f i uafxcw:filest.obj
 0001:0004ba28       ?GetMonth@CTime@ATL@@QBEHXZ 0044ca28 f i uafxcw:filest.obj
 0001:0004ba81       ?GetSecond@CTime@ATL@@QBEHXZ 0044ca81 f i uafxcw:filest.obj
 0001:0004bad9       ?GetStatus@CFile@@QBEHAAUCFileStatus@@@Z 0044cad9 f   uafxcw:filest.obj
 0001:0004bc4f       ?GetStatus@CFile@@SGHPB_WAAUCFileStatus@@PAVCAtlTransactionManager@ATL@@@Z 0044cc4f f   uafxcw:filest.obj
 0001:0004bd8a       ?GetYear@CTime@ATL@@QBEHXZ 0044cd8a f i uafxcw:filest.obj
 0001:0004bde7       ?IsValidFILETIME@CTime@ATL@@SGHABU_FILETIME@@@Z 0044cde7 f i uafxcw:filest.obj
 0001:0004be2f       ??0COleStreamFile@@QAE@PAUIStream@@@Z 0044ce2f f   uafxcw:olestrm.obj
 0001:0004bf2f       ??1COleStreamFile@@UAE@XZ  0044cf2f f   uafxcw:olestrm.obj
 0001:0004c07c       ??_ECOleStreamFile@@UAEPAXI@Z 0044d07c f i uafxcw:olestrm.obj
 0001:0004c07c       ??_GCOleStreamFile@@UAEPAXI@Z 0044d07c f i uafxcw:olestrm.obj
 0001:0004c0ac       ?Abort@COleStreamFile@@UAEXXZ 0044d0ac f   uafxcw:olestrm.obj
 0001:0004c0db       ?Attach@COleStreamFile@@QAEXPAUIStream@@@Z 0044d0db f   uafxcw:olestrm.obj
 0001:0004c0f6       ?Close@COleStreamFile@@UAEXXZ 0044d0f6 f   uafxcw:olestrm.obj
 0001:0004c125       ?CreateMemoryStream@COleStreamFile@@QAEHPAVCFileException@@@Z 0044d125 f   uafxcw:olestrm.obj
 0001:0004c158       ?Detach@COleStreamFile@@QAEPAUIStream@@XZ 0044d158 f   uafxcw:olestrm.obj
 0001:0004c160       ?Duplicate@COleStreamFile@@UBEPAVCFile@@XZ 0044d160 f   uafxcw:olestrm.obj
 0001:0004c1de       ?Flush@COleStreamFile@@UAEXXZ 0044d1de f   uafxcw:olestrm.obj
 0001:0004c200       ?GetLength@COleStreamFile@@UBE_KXZ 0044d200 f   uafxcw:olestrm.obj
 0001:0004c247       ?GetPosition@COleStreamFile@@UBE_KXZ 0044d247 f   uafxcw:olestrm.obj
 0001:0004c27d       ?GetRuntimeClass@COleStreamFile@@UBEPAUCRuntimeClass@@XZ 0044d27d f   uafxcw:olestrm.obj
 0001:0004c283       ?GetStorageName@COleStreamFile@@UBE?BV?$CStringT@_WV?$StrTraitMFC@_WV?$ChTraitsCRT@_W@ATL@@@@@ATL@@XZ 0044d283 f   uafxcw:olestrm.obj
 0001:0004c2a0       ?LockRange@COleStreamFile@@UAEX_K0@Z 0044d2a0 f   uafxcw:olestrm.obj
 0001:0004c2d4       ?Read@COleStreamFile@@UAEIPAXI@Z 0044d2d4 f   uafxcw:olestrm.obj
 0001:0004c2fb       ?Seek@COleStreamFile@@UAE_K_JI@Z 0044d2fb f   uafxcw:olestrm.obj
 0001:0004c336       ?SetLength@COleStreamFile@@UAEX_K@Z 0044d336 f   uafxcw:olestrm.obj
 0001:0004c362       ?UnlockRange@COleStreamFile@@UAEX_K0@Z 0044d362 f   uafxcw:olestrm.obj
 0001:0004c396       ?Write@COleStreamFile@@UAEXPBXI@Z 0044d396 f   uafxcw:olestrm.obj
 0001:0004c3d9       ?_AfxFillOleFileException@@YGXPAVCFileException@@J@Z 0044d3d9 f   uafxcw:olestrm.obj
 0001:0004c457       ?_AfxReadFromStream@@YGJPAUIStream@@PAXIAAK@Z 0044d457 f   uafxcw:olestrm.obj
 0001:0004c49d       ?_AfxThrowOleFileException@@YGXJ@Z 0044d49d f   uafxcw:olestrm.obj
 0001:0004c4e1       ?AfxUnregisterWndClasses@@YGXXZ 0044d4e1 f   uafxcw:appterm.obj
 0001:0004c580       ?AfxWinTerm@@YGXXZ         0044d580 f   uafxcw:appterm.obj
 0001:0004c60f       ??0?$CStringT@_WV?$StrTraitMFC@_WV?$ChTraitsCRT@_W@ATL@@@@@ATL@@QAE@PBDPAUIAtlStringMgr@1@@Z 0044d60f f i uafxcw:olereg.obj
 0001:0004c64e       ??0_AFX_OLESYMBOLTABLE@@QAE@H@Z 0044d64e f   uafxcw:olereg.obj
 0001:0004c68c       ??1_AFX_OLESYMBOLTABLE@@QAE@XZ 0044d68c f   uafxcw:olereg.obj
 0001:0004c6b3       ??Y?$CStringT@_WV?$StrTraitMFC@_WV?$ChTraitsCRT@_W@ATL@@@@@ATL@@QAEAAV01@PBD@Z 0044d6b3 f i uafxcw:olereg.obj
 0001:0004c6f9       ?AfxOleRegisterHelper@@YGHPBQB_W0HHPAUHKEY__@@@Z 0044d6f9 f   uafxcw:olereg.obj
 0001:0004c8b2       ?AfxOleRegisterServerClass@@YGHABU_GUID@@PB_W11W4OLE_APPTYPE@@PAPB_W3H11@Z 0044d8b2 f   uafxcw:olereg.obj
 0001:0004c963       ?AfxRegisterPreviewHandler@@YGHPB_W00@Z 0044d963 f   uafxcw:olereg.obj
 0001:0004ca9b       ?RecurseDeleteKey@CRegKey@ATL@@QAEJPB_W@Z 0044da9b f i uafxcw:olereg.obj
 0001:0004cb80       ?SetAt@_AFX_OLESYMBOLTABLE@@QAEXHPB_W@Z 0044db80 f   uafxcw:olereg.obj
 0001:0004cbb5       ?_AfxOleMakeSymbolTable@@YGHAAV_AFX_OLESYMBOLTABLE@@ABU_GUID@@PB_W22H22@Z 0044dbb5 f   uafxcw:olereg.obj
 0001:0004ce46       ?CreateObject@CByteArray@@SGPAVCObject@@XZ 0044de46 f   uafxcw:array_b.obj
 0001:0004ce66       ??0CByteArray@@QAE@XZ      0044de66 f   uafxcw:array_b.obj
 0001:0004ce7d       ??_ECByteArray@@UAEPAXI@Z  0044de7d f i uafxcw:array_b.obj
 0001:0004ce7d       ??_GCByteArray@@UAEPAXI@Z  0044de7d f i uafxcw:array_b.obj
 0001:0004ceb7       ?GetRuntimeClass@CByteArray@@UBEPAUCRuntimeClass@@XZ 0044deb7 f   uafxcw:array_b.obj
 0001:0004cebd       ?Serialize@CByteArray@@UAEXAAVCArchive@@@Z 0044debd f   uafxcw:array_b.obj
 0001:0004cf52       ?SetSize@CByteArray@@QAEXHH@Z 0044df52 f   uafxcw:array_b.obj
 0001:0004d0c2       ?CreateObject@CObList@@SGPAVCObject@@XZ 0044e0c2 f   uafxcw:list_o.obj
 0001:0004d0e4       ??0CObList@@QAE@H@Z        0044e0e4 f   uafxcw:list_o.obj
 0001:0004d10a       ??1CObList@@UAE@XZ         0044e10a f   uafxcw:list_o.obj
 0001:0004d149       ??_ECObList@@UAEPAXI@Z     0044e149 f i uafxcw:list_o.obj
 0001:0004d149       ??_GCObList@@UAEPAXI@Z     0044e149 f i uafxcw:list_o.obj
 0001:0004d1b2       ?AddTail@CObList@@QAEXPAV1@@Z 0044e1b2 f   uafxcw:list_o.obj
 0001:0004d1f1       ?FindIndex@?$CList@KK@@QBEPAU__POSITION@@H@Z 0044e1f1 f   uafxcw:afxtoolbarcomboboxbutton.obj
 0001:0004d1f1       ?FindIndex@CObList@@QBEPAU__POSITION@@H@Z 0044e1f1 f   uafxcw:list_o.obj
 0001:0004d1f1       ?FindIndex@CStringList@@QBEPAU__POSITION@@H@Z 0044e1f1 f   uafxcw:list_s.obj
 0001:0004d214       ?GetRuntimeClass@CObList@@UBEPAUCRuntimeClass@@XZ 0044e214 f   uafxcw:list_o.obj
 0001:0004d21a       ?InsertAfter@CObList@@QAEPAU__POSITION@@PAU2@PAVCObject@@@Z 0044e21a f   uafxcw:list_o.obj
 0001:0004d256       ?RemoveTail@CObList@@QAEPAVCObject@@XZ 0044e256 f   uafxcw:list_o.obj
 0001:0004d27a       ?Serialize@CObList@@UAEXAAVCArchive@@@Z 0044e27a f   uafxcw:list_o.obj
 0001:0004d2d7       ??0CFixedAllocNoSync@@QAE@II@Z 0044e2d7 f   uafxcw:fixalloc.obj
 0001:0004d303       ??1CFixedAllocNoSync@@QAE@XZ 0044e303 f   uafxcw:fixalloc.obj
 0001:0004d33c       ?Alloc@CFixedAllocNoSync@@QAEPAXXZ 0044e33c f   uafxcw:fixalloc.obj
 0001:0004d380       ?FreeAll@CFixedAllocNoSync@@QAEXXZ 0044e380 f   uafxcw:fixalloc.obj
 0001:0004d395       ??_E_AFX_PROPPAGEFONTINFO@@UAEPAXI@Z 0044e395 f i uafxcw:ccdata.obj
 0001:0004d395       ??_G_AFX_PROPPAGEFONTINFO@@UAEPAXI@Z 0044e395 f i uafxcw:ccdata.obj
 0001:0004d3cf       ?AfxGetPropSheetFont@@YGHAAV?$CStringT@_WV?$StrTraitMFC@_WV?$ChTraitsCRT@_W@ATL@@@@@ATL@@AAGH@Z 0044e3cf f   uafxcw:ccdata.obj
 0001:0004d515       ?CreateObject@?$CProcessLocal@U_AFX_PROPPAGEFONTINFO@@@@SGPAVCNoTrackObject@@XZ 0044e515 f i uafxcw:ccdata.obj
 0001:0004d5e6       ?GetMessageMap@CCommonDialog@@MBEPBUAFX_MSGMAP@@XZ 0044e5e6 f   uafxcw:dlgcomm.obj
 0001:0004d5e6       ?GetThisMessageMap@CCommonDialog@@KGPBUAFX_MSGMAP@@XZ 0044e5e6 f   uafxcw:dlgcomm.obj
 0001:0004d5ec       ?GetRuntimeClass@CCommonDialog@@UBEPAUCRuntimeClass@@XZ 0044e5ec f   uafxcw:dlgcomm.obj
 0001:0004d5f2       ?OnHelpInfo@CCommonDialog@@IAEHPAUtagHELPINFO@@@Z 0044e5f2 f   uafxcw:dlgcomm.obj
 0001:0004d600       ?OnOK@CCommonDialog@@MAEXXZ 0044e600 f   uafxcw:dlgcomm.obj
 0001:0004d618       ?_AfxCommDlgProc@@YGIPAUHWND__@@IIJ@Z 0044e618 f   uafxcw:dlgcomm.obj
 0001:0004d7f6       ??0CMFCShellListCtrl@@QAE@XZ 0044e7f6 f   uafxcw:afxshelllistctrl.obj
 0001:0004d844       ??4COleDateTime@ATL@@QAEAAV01@AB_J@Z 0044e844 f i uafxcw:afxshelllistctrl.obj
 0001:0004d8c8       ??_ECMFCShellListCtrl@@UAEPAXI@Z 0044e8c8 f i uafxcw:afxshelllistctrl.obj
 0001:0004d8c8       ??_GCMFCShellListCtrl@@UAEPAXI@Z 0044e8c8 f i uafxcw:afxshelllistctrl.obj
 0001:0004d901       ?DisplayFolder@CMFCShellListCtrl@@UAEJPAU_AFX_SHELLITEMINFO@@@Z 0044e901 f   uafxcw:afxshelllistctrl.obj
 0001:0004da57       ?DisplayFolder@CMFCShellListCtrl@@UAEJPB_W@Z 0044ea57 f   uafxcw:afxshelllistctrl.obj
 0001:0004dafa       ?DisplayParentFolder@CMFCShellListCtrl@@UAEJXZ 0044eafa f   uafxcw:afxshelllistctrl.obj
 0001:0004dbb5       ?DoDefault@CMFCShellListCtrl@@MAEXH@Z 0044ebb5 f   uafxcw:afxshelllistctrl.obj
 0001:0004ddc0       ?EnumObjects@CMFCShellListCtrl@@MAEJPAUIShellFolder@@PAU_ITEMIDLIST@@@Z 0044edc0 f   uafxcw:afxshelllistctrl.obj
 0001:0004dfef       ?GetAsSystemTime@CTime@ATL@@QBE_NAAU_SYSTEMTIME@@@Z 0044efef f i uafxcw:afxshelllistctrl.obj
 0001:0004e092       ?GetHeaderCtrl@CMFCListCtrl@@UAEAAVCMFCHeaderCtrl@@XZ 0044f092 f i uafxcw:afxshelllistctrl.obj
 0001:0004e099       ?GetMessageMap@CMFCShellListCtrl@@MBEPBUAFX_MSGMAP@@XZ 0044f099 f   uafxcw:afxshelllistctrl.obj
 0001:0004e09f       ?GetRelatedTree@CMFCShellListCtrl@@IBEPAVCMFCShellTreeCtrl@@XZ 0044f09f f   uafxcw:afxshelllistctrl.obj
 0001:0004e0be       ?GetRuntimeClass@CMFCShellListCtrl@@UBEPAUCRuntimeClass@@XZ 0044f0be f   uafxcw:afxshelllistctrl.obj
 0001:0004e0c4       ?GetShellImageList@CMFCShellListCtrl@@IAEPAU_IMAGELIST@@H@Z 0044f0c4 f   uafxcw:afxshelllistctrl.obj
 0001:0004e126       ?InitList@CMFCShellListCtrl@@IAEHXZ 0044f126 f   uafxcw:afxshelllistctrl.obj
 0001:0004e20b       ?LockCurrentFolder@CMFCShellListCtrl@@IAEJPAU_AFX_SHELLITEMINFO@@@Z 0044f20b f   uafxcw:afxshelllistctrl.obj
 0001:0004e296       ?MakeUpper@?$CStringT@_WV?$StrTraitMFC@_WV?$ChTraitsCRT@_W@ATL@@@@@ATL@@QAEAAV12@XZ 0044f296 f i uafxcw:afxshelllistctrl.obj
 0001:0004e2be       ?OnCompareItems@CMFCShellListCtrl@@UAEHJJH@Z 0044f2be f   uafxcw:afxshelllistctrl.obj
 0001:0004e500       ?OnContextMenu@CMFCShellListCtrl@@IAEXPAVCWnd@@VCPoint@@@Z 0044f500 f   uafxcw:afxshelllistctrl.obj
 0001:0004e903       ?OnCreate@CMFCShellListCtrl@@IAEHPAUtagCREATESTRUCTW@@@Z 0044f903 f   uafxcw:afxshelllistctrl.obj
 0001:0004e92e       ?OnDblClk@CMFCShellListCtrl@@IAEXPAUtagNMHDR@@PAJ@Z 0044f92e f   uafxcw:afxshelllistctrl.obj
 0001:0004e92e       ?OnReturn@CMFCShellListCtrl@@IAEXPAUtagNMHDR@@PAJ@Z 0044f92e f   uafxcw:afxshelllistctrl.obj
 0001:0004e96d       ?OnDeleteitem@CMFCShellListCtrl@@IAEXPAUtagNMHDR@@PAJ@Z 0044f96d f   uafxcw:afxshelllistctrl.obj
 0001:0004e9ca       ?OnDestroy@CMFCShellListCtrl@@IAEXXZ 0044f9ca f   uafxcw:afxshelllistctrl.obj
 0001:0004e9ec       ?OnFormatFileDate@CMFCShellListCtrl@@UAEXABVCTime@ATL@@AAV?$CStringT@_WV?$StrTraitMFC@_WV?$ChTraitsCRT@_W@ATL@@@@@3@@Z 0044f9ec f   uafxcw:afxshelllistctrl.obj
 0001:0004ea4e       ?OnFormatFileSize@CMFCShellListCtrl@@UAEX_JAAV?$CStringT@_WV?$StrTraitMFC@_WV?$ChTraitsCRT@_W@ATL@@@@@ATL@@@Z 0044fa4e f   uafxcw:afxshelllistctrl.obj
 0001:0004eaa8       ?OnGetCellBkColor@CMFCListCtrl@@UAEKHH@Z 0044faa8 f i uafxcw:afxshelllistctrl.obj
 0001:0004eabd       ?OnGetCellTextColor@CMFCListCtrl@@UAEKHH@Z 0044fabd f i uafxcw:afxshelllistctrl.obj
 0001:0004ead2       ?OnGetItemIcon@CMFCShellListCtrl@@UAEHHPAU_AFX_SHELLITEMINFO@@@Z 0044fad2 f   uafxcw:afxshelllistctrl.obj
 0001:0004eb2c       ?OnGetItemText@CMFCShellListCtrl@@UAE?AV?$CStringT@_WV?$StrTraitMFC@_WV?$ChTraitsCRT@_W@ATL@@@@@ATL@@HHPAU_AFX_SHELLITEMINFO@@@Z 0044fb2c f   uafxcw:afxshelllistctrl.obj
 0001:0004ecc3       ?OnInitControl@CMFCShellListCtrl@@IAEJIJ@Z 0044fcc3 f   uafxcw:afxshelllistctrl.obj
 0001:0004ed6c       ?OnSetColumns@CMFCShellListCtrl@@UAEXXZ 0044fd6c f   uafxcw:afxshelllistctrl.obj
 0001:0004ee35       ?PreSubclassWindow@CMFCShellListCtrl@@MAEXXZ 0044fe35 f   uafxcw:afxshelllistctrl.obj
 0001:0004ee52       ?Refresh@CMFCShellListCtrl@@UAEJXZ 0044fe52 f   uafxcw:afxshelllistctrl.obj
 0001:0004ee6f       ?ReleaseCurrFolder@CMFCShellListCtrl@@IAEXXZ 0044fe6f f   uafxcw:afxshelllistctrl.obj
 0001:0004eeaf       ?StringUppercase@?$ChTraitsCRT@_W@ATL@@SAPA_WPA_WI@Z 0044feaf f i uafxcw:afxshelllistctrl.obj
 0001:0004eeca       ?WindowProc@CMFCShellListCtrl@@MAEJIIJ@Z 0044feca f   uafxcw:afxshelllistctrl.obj
 0001:0004ef10       ?CreateObject@CMapWordToOb@@SGPAVCObject@@XZ 0044ff10 f   uafxcw:map_wo.obj
 0001:0004ef32       ??$HashKey@G@@YGIG@Z       0044ff32 f i uafxcw:map_wo.obj
 0001:0004ef62       ??0CMapWordToOb@@QAE@H@Z   0044ff62 f   uafxcw:map_wo.obj
 0001:0004ef93       ??1CMapWordToOb@@UAE@XZ    0044ff93 f   uafxcw:map_wo.obj
 0001:0004efd2       ??ACMapWordToOb@@QAEAAPAVCObject@@G@Z 0044ffd2 f   uafxcw:map_wo.obj
 0001:0004f02a       ??_ECMapWordToOb@@UAEPAXI@Z 0045002a f i uafxcw:map_wo.obj
 0001:0004f02a       ??_GCMapWordToOb@@UAEPAXI@Z 0045002a f i uafxcw:map_wo.obj
 0001:0004f093       ?GetAssocAt@CMapWordToOb@@IBEPAUCAssoc@1@GAAI0@Z 00450093 f   uafxcw:map_wo.obj
 0001:0004f0d2       ?GetNextAssoc@CMapWordToOb@@QBEXAAPAU__POSITION@@AAGAAPAVCObject@@@Z 004500d2 f   uafxcw:map_wo.obj
 0001:0004f15e       ?GetRuntimeClass@CMapWordToOb@@UBEPAUCRuntimeClass@@XZ 0045015e f   uafxcw:map_wo.obj
 0001:0004f164       ?Lookup@CMapWordToOb@@QBEHGAAPAVCObject@@@Z 00450164 f   uafxcw:map_wo.obj
 0001:0004f18c       ?NewAssoc@CMapWordToOb@@IAEPAUCAssoc@1@XZ 0045018c f   uafxcw:map_wo.obj
 0001:0004f1d9       ?Serialize@CMapWordToOb@@UAEXAAVCArchive@@@Z 004501d9 f   uafxcw:map_wo.obj
 0001:0004f27f       ??0CMFCButton@@QAE@XZ      0045027f f   uafxcw:afxbutton.obj
 0001:0004f3f9       ??1CMFCButton@@UAE@XZ      004503f9 f   uafxcw:afxbutton.obj
 0001:0004f493       ??_ECMFCButton@@UAEPAXI@Z  00450493 f i uafxcw:afxbutton.obj
 0001:0004f493       ??_ECMFCOutlookBarScrollButton@@UAEPAXI@Z 00450493 f i uafxcw:afxoutlookbartabctrl.obj
 0001:0004f493       ??_ECMFCTabButton@@UAEPAXI@Z 00450493 f i uafxcw:afxtabctrl.obj
 0001:0004f493       ??_GCMFCButton@@UAEPAXI@Z  00450493 f i uafxcw:afxbutton.obj
 0001:0004f493       ??_GCMFCOutlookBarScrollButton@@UAEPAXI@Z 00450493 f i uafxcw:afxoutlookbartabctrl.obj
 0001:0004f493       ??_GCMFCTabButton@@UAEPAXI@Z 00450493 f i uafxcw:afxtabctrl.obj
 0001:0004f549       ?CheckNextPrevRadioButton@CMFCButton@@IAEHH@Z 00450549 f   uafxcw:afxbutton.obj
 0001:0004f666       ?CleanUp@CMFCButton@@UAEXXZ 00450666 f   uafxcw:afxbutton.obj
 0001:0004f6c8       ?ClearImages@CMFCButton@@IAEXH@Z 004506c8 f   uafxcw:afxbutton.obj
 0001:0004f738       ?CreateObject@CMFCButton@@SGPAVCObject@@XZ 00450738 f   uafxcw:afxbutton.obj
 0001:0004f768       ?DrawBorder@CMFCButton@@IAEXPAVCDC@@AAVCRect@@I@Z 00450768 f   uafxcw:afxbutton.obj
 0001:0004f930       ?DrawItem@CMFCButton@@UAEXPAUtagDRAWITEMSTRUCT@@@Z 00450930 f   uafxcw:afxbutton.obj
 0001:0004fa1a       ?EnableFullTextTooltip@CMFCButton@@QAEXH@Z 00450a1a f   uafxcw:afxbutton.obj
 0001:0004fa30       ?GetImageHorzMargin@CMFCButton@@MBEHXZ 00450a30 f   uafxcw:afxbutton.obj
 0001:0004fa34       ?GetMessageMap@CMFCButton@@MBEPBUAFX_MSGMAP@@XZ 00450a34 f   uafxcw:afxbutton.obj
 0001:0004fa34       ?GetThisMessageMap@CMFCButton@@KGPBUAFX_MSGMAP@@XZ 00450a34 f   uafxcw:afxbutton.obj
 0001:0004fa3a       ?GetRuntimeClass@CMFCButton@@UBEPAUCRuntimeClass@@XZ 00450a3a f   uafxcw:afxbutton.obj
 0001:0004fa40       ?GetVertMargin@CMFCButton@@MBEHXZ 00450a40 f   uafxcw:afxbutton.obj
 0001:0004fa44       ?InitStyle@CMFCButton@@IAEXK@Z 00450a44 f   uafxcw:afxbutton.obj
 0001:0004faf7       ?OnCancelMode@CMFCButton@@IAEXXZ 00450af7 f   uafxcw:afxbutton.obj
 0001:0004fb5e       ?OnDestroy@CMFCButton@@IAEXXZ 00450b5e f   uafxcw:afxbutton.obj
 0001:0004fb75       ?OnDraw@CMFCButton@@MAEXPAVCDC@@ABVCRect@@I@Z 00450b75 f   uafxcw:afxbutton.obj
 0001:00050086       ?OnDrawBorder@CMFCButton@@MAEXPAVCDC@@AAVCRect@@I@Z 00451086 f   uafxcw:afxbutton.obj
 0001:0005008f       ?OnDrawFocusRect@CMFCButton@@MAEXPAVCDC@@ABVCRect@@@Z 0045108f f   uafxcw:afxbutton.obj
 0001:00050122       ?OnDrawParentBackground@CMFCButton@@UAEXPAVCDC@@VCRect@@@Z 00451122 f   uafxcw:afxbutton.obj
 0001:00050144       ?OnDrawText@CMFCButton@@MAEXPAVCDC@@ABVCRect@@ABV?$CStringT@_WV?$StrTraitMFC@_WV?$ChTraitsCRT@_W@ATL@@@@@ATL@@II@Z 00451144 f   uafxcw:afxbutton.obj
 0001:00050183       ?OnEnable@CMFCButton@@IAEXH@Z 00451183 f   uafxcw:afxbutton.obj
 0001:000501d4       ?OnFillBackground@CMFCButton@@MAEXPAVCDC@@ABVCRect@@@Z 004511d4 f   uafxcw:afxbutton.obj
 0001:00050295       ?OnGetCheck@CMFCButton@@IAEJIJ@Z 00451295 f   uafxcw:afxbutton.obj
 0001:000502b9       ?OnGetFont@CMFCButton@@IAEPAUHFONT__@@XZ 004512b9 f   uafxcw:afxbutton.obj
 0001:000502c0       ?OnGetImage@CMFCButton@@IAEJIJ@Z 004512c0 f   uafxcw:afxbutton.obj
 0001:000502ed       ?OnInitControl@CMFCButton@@IAEJIJ@Z 004512ed f   uafxcw:afxbutton.obj
 0001:0005062e       ?OnKillFocus@CMFCButton@@IAEXPAVCWnd@@@Z 0045162e f   uafxcw:afxbutton.obj
 0001:0005067f       ?OnLButtonDblClk@CMFCButton@@IAEXIVCPoint@@@Z 0045167f f   uafxcw:afxbutton.obj
 0001:000506bf       ?OnLButtonDown@CMFCButton@@IAEXIVCPoint@@@Z 004516bf f   uafxcw:afxbutton.obj
 0001:0005076f       ?OnLButtonUp@CMFCButton@@IAEXIVCPoint@@@Z 0045176f f   uafxcw:afxbutton.obj
 0001:000508b4       ?OnMouseMove@CMFCButton@@IAEXIVCPoint@@@Z 004518b4 f   uafxcw:afxbutton.obj
 0001:00050a33       ?OnSetCheck@CMFCButton@@IAEJIJ@Z 00451a33 f   uafxcw:afxbutton.obj
 0001:00050a9e       ?OnSetCursor@CMFCButton@@IAEHPAVCWnd@@II@Z 00451a9e f   uafxcw:afxbutton.obj
 0001:00050b2e       ?OnSetFont@CMFCButton@@IAEXPAVCFont@@H@Z 00451b2e f   uafxcw:afxbutton.obj
 0001:00050b65       ?OnSetImage@CMFCButton@@IAEJIJ@Z 00451b65 f   uafxcw:afxbutton.obj
 0001:00050b99       ?OnSize@CMFCButton@@IAEXIHH@Z 00451b99 f   uafxcw:afxbutton.obj
 0001:00050bad       ?OnTimer@CMFCButton@@IAEXI@Z 00451bad f   uafxcw:afxbutton.obj
 0001:00050c10       ?OnUpdateToolTips@CMFCButton@@IAEJIJ@Z 00451c10 f   uafxcw:afxbutton.obj
 0001:00050c7f       ?PreCreateWindow@CMFCButton@@MAEHAAUtagCREATESTRUCTW@@@Z 00451c7f f   uafxcw:afxbutton.obj
 0001:00050cab       ?PreSubclassWindow@CMFCButton@@MAEXXZ 00451cab f   uafxcw:afxbutton.obj
 0001:00050cd0       ?PreTranslateMessage@CMFCButton@@UAEHPAUtagMSG@@@Z 00451cd0 f   uafxcw:afxbutton.obj
 0001:00050e2a       ?SelectFont@CMFCButton@@MAEPAVCFont@@PAVCDC@@@Z 00451e2a f   uafxcw:afxbutton.obj
 0001:00050e94       ?SetImage@CMFCButton@@QAEXIII@Z 00451e94 f   uafxcw:afxbutton.obj
 0001:00050eab       ?SetImageInternal@CMFCButton@@IAEXIIHI@Z 00451eab f   uafxcw:afxbutton.obj
 0001:00050ef5       ?SetImageInternal@CMFCButton@@IAEXPAUHBITMAP__@@H0HH0@Z 00451ef5 f   uafxcw:afxbutton.obj
 0001:0005107a       ?SetImageInternal@CMFCButton@@IAEXPAUHICON__@@H0H0H@Z 0045207a f   uafxcw:afxbutton.obj
 0001:000512a6       ?SetMouseCursorHand@CMFCButton@@QAEXXZ 004522a6 f   uafxcw:afxbutton.obj
 0001:000512bd       ?SetStdImage@CMFCButton@@QAEXW4IMAGES_IDS@CMenuImages@@W4IMAGE_STATE@3@0@Z 004522bd f   uafxcw:afxbutton.obj
 0001:00051315       ?SetTooltip@CMFCButton@@QAEXPB_W@Z 00452315 f   uafxcw:afxbutton.obj
 0001:000513ab       ?SetTransparentColor@CMFCToolBarImages@@QAEKK@Z 004523ab f i uafxcw:afxbutton.obj
 0001:000513dd       ?SizeToContent@CMFCButton@@UAE?AVCSize@@H@Z 004523dd f   uafxcw:afxbutton.obj
 0001:00051635       ?UncheckRadioButtonsInGroup@CMFCButton@@IAEXXZ 00452635 f   uafxcw:afxbutton.obj
 0001:00051727       ?get_accState@CMFCButton@@UAEJUtagVARIANT@@PAU2@@Z 00452727 f   uafxcw:afxbutton.obj
 0001:00051783       ??0?$CArray@KK@@QAE@XZ     00452783 f i uafxcw:afxcolorbutton.obj
 0001:0005179a       ??0?$CList@KK@@QAE@H@Z     0045279a f i uafxcw:afxcolorbutton.obj
 0001:000517c0       ??0CMFCColorButton@@QAE@XZ 004527c0 f   uafxcw:afxcolorbutton.obj
 0001:0005184a       ??0CMFCColorPopupMenu@@QAE@PAVCMFCColorButton@@ABV?$CArray@KK@@KPB_W22AAV?$CList@KK@@HK@Z 0045284a f i uafxcw:afxcolorbutton.obj
 0001:000518a7       ??1?$CArray@KK@@UAE@XZ     004528a7 f i uafxcw:afxcolorbutton.obj
 0001:000518bd       ??1?$CList@KK@@UAE@XZ      004528bd f i uafxcw:afxcolorbutton.obj
 0001:000518fc       ??1CMFCColorButton@@UAE@XZ 004528fc f   uafxcw:afxcolorbutton.obj
 0001:000519ac       ??1CPalette@@UAE@XZ        004529ac f i uafxcw:afxcolorbutton.obj
 0001:000519b7       ??_E?$CArray@KK@@UAEPAXI@Z 004529b7 f i uafxcw:afxcolorbutton.obj
 0001:000519b7       ??_G?$CArray@KK@@UAEPAXI@Z 004529b7 f i uafxcw:afxcolorbutton.obj
 0001:000519e7       ??_E?$CList@KK@@UAEPAXI@Z  004529e7 f i uafxcw:afxcolorbutton.obj
 0001:000519e7       ??_G?$CList@KK@@UAEPAXI@Z  004529e7 f i uafxcw:afxcolorbutton.obj
 0001:00051a50       ??_ECMFCColorButton@@UAEPAXI@Z 00452a50 f i uafxcw:afxcolorbutton.obj
 0001:00051a50       ??_GCMFCColorButton@@UAEPAXI@Z 00452a50 f i uafxcw:afxcolorbutton.obj
 0001:00051a83       ??_ECMFCColorPopupMenu@@UAEPAXI@Z 00452a83 f i uafxcw:afxcolorbutton.obj
 0001:00051a83       ??_GCMFCColorPopupMenu@@UAEPAXI@Z 00452a83 f i uafxcw:afxcolorbutton.obj
 0001:00051ab6       ??_ECPalette@@UAEPAXI@Z    00452ab6 f i uafxcw:afxcolorbutton.obj
 0001:00051ab6       ??_GCPalette@@UAEPAXI@Z    00452ab6 f i uafxcw:afxcolorbutton.obj
 0001:00051aec       ?AddTail@?$CList@KK@@QAEXPAV1@@Z 00452aec f i uafxcw:afxcolorbutton.obj
 0001:00051aec       ?AddTail@?$CList@PAUHWND__@@PAU1@@@QAEXPAV1@@Z 00452aec f i uafxcw:afxrecentdocksiteinfo.obj
 0001:00051b1b       ?EnableAutomaticButton@CMFCColorButton@@QAEXPB_WKH@Z 00452b1b f   uafxcw:afxcolorbutton.obj
 0001:00051b69       ?EnableOtherButton@CMFCColorButton@@QAEXPB_WHH@Z 00452b69 f   uafxcw:afxcolorbutton.obj
 0001:00051bb7       ?GetEntryCount@CPalette@@QAEHXZ 00452bb7 f i uafxcw:afxcolorbutton.obj
 0001:00051bd0       ?GetMenuBar@CMFCColorPopupMenu@@UAEPAVCMFCPopupMenuBar@@XZ 00452bd0 f i uafxcw:afxcolorbutton.obj
 0001:00051bd0       ?GetMenuBar@CMFCRibbonPanelMenu@@UAEPAVCMFCPopupMenuBar@@XZ 00452bd0 f i uafxcw:afxribbonminitoolbar.obj
 0001:00051bd7       ?GetMessageMap@CMFCColorButton@@MBEPBUAFX_MSGMAP@@XZ 00452bd7 f   uafxcw:afxcolorbutton.obj
 0001:00051bdd       ?GetRuntimeClass@CMFCColorButton@@UBEPAUCRuntimeClass@@XZ 00452bdd f   uafxcw:afxcolorbutton.obj
 0001:00051be3       ?InCommand@CMFCPopupMenu@@UAEHXZ 00452be3 f i uafxcw:afxcolorbutton.obj
 0001:00051c09       ?IsDrawXPTheme@CMFCColorButton@@IBEHXZ 00452c09 f   uafxcw:afxcolorbutton.obj
 0001:00051c39       ?IsIdle@CMFCPopupMenu@@UBEHXZ 00452c39 f i uafxcw:afxcolorbutton.obj
 0001:00051c4d       ?OnDraw@CMFCColorButton@@MAEXPAVCDC@@ABVCRect@@I@Z 00452c4d f   uafxcw:afxcolorbutton.obj
 0001:00051f76       ?OnDrawBorder@CMFCColorButton@@MAEXPAVCDC@@AAVCRect@@I@Z 00452f76 f   uafxcw:afxcolorbutton.obj
 0001:00052035       ?OnDrawFocusRect@CMFCColorButton@@MAEXPAVCDC@@ABVCRect@@@Z 00453035 f   uafxcw:afxcolorbutton.obj
 0001:00052088       ?OnFillBackground@CMFCColorButton@@MAEXPAVCDC@@ABVCRect@@@Z 00453088 f   uafxcw:afxcolorbutton.obj
 0001:000520ca       ?OnInitControl@CMFCColorButton@@IAEJIJ@Z 004530ca f   uafxcw:afxcolorbutton.obj
 0001:000521cf       ?OnKeyDown@CMFCColorButton@@IAEXIII@Z 004531cf f   uafxcw:afxcolorbutton.obj
 0001:00052203       ?OnLButtonDown@CMFCColorButton@@IAEXIVCPoint@@@Z 00453203 f   uafxcw:afxcolorbutton.obj
 0001:00052225       ?OnMouseMove@CMFCColorButton@@IAEXIVCPoint@@@Z 00453225 f   uafxcw:afxcolorbutton.obj
 0001:00052261       ?OnShowColorPopup@CMFCColorButton@@MAEXXZ 00453261 f   uafxcw:afxcolorbutton.obj
 0001:0005241b       ?OnSysColorChange@CMFCColorButton@@IAEXXZ 0045341b f   uafxcw:afxcolorbutton.obj
 0001:00052444       ?RebuildPalette@CMFCColorButton@@IAEXPAVCPalette@@@Z 00453444 f   uafxcw:afxcolorbutton.obj
 0001:00052534       ?Serialize@?$CArray@KK@@UAEXAAVCArchive@@@Z 00453534 f i uafxcw:afxcolorbutton.obj
 0001:00052574       ?Serialize@?$CList@KK@@UAEXAAVCArchive@@@Z 00453574 f i uafxcw:afxcolorbutton.obj
 0001:000525d9       ?SetColor@CMFCColorButton@@QAEXK@Z 004535d9 f   uafxcw:afxcolorbutton.obj
 0001:00052609       ?SizeToContent@CMFCColorButton@@UAE?AVCSize@@H@Z 00453609 f   uafxcw:afxcolorbutton.obj
 0001:00052609       ?SizeToContent@CMFCMenuButton@@UAE?AVCSize@@H@Z 00453609 f   uafxcw:afxmenubutton.obj
 0001:0005264d       ?UpdateColor@CMFCColorButton@@MAEXK@Z 0045364d f   uafxcw:afxcolorbutton.obj
 0001:00052696       ??0CMFCEditBrowseCtrl@@QAE@XZ 00453696 f   uafxcw:afxeditbrowsectrl.obj
 0001:00052755       ??1CMFCEditBrowseCtrl@@UAE@XZ 00453755 f   uafxcw:afxeditbrowsectrl.obj
 0001:0005279b       ??_ECMFCEditBrowseCtrl@@UAEPAXI@Z 0045379b f i uafxcw:afxeditbrowsectrl.obj
 0001:0005279b       ??_GCMFCEditBrowseCtrl@@UAEPAXI@Z 0045379b f i uafxcw:afxeditbrowsectrl.obj
 0001:000527ce       ?EnableBrowseButton@CMFCEditBrowseCtrl@@QAEXH@Z 004537ce f   uafxcw:afxeditbrowsectrl.obj
 0001:00052826       ?EnableFileBrowseButton@CMFCEditBrowseCtrl@@QAEXPB_W0K@Z 00453826 f   uafxcw:afxeditbrowsectrl.obj
 0001:000528b4       ?EnableFolderBrowseButton@CMFCEditBrowseCtrl@@QAEXPB_WI@Z 004538b4 f   uafxcw:afxeditbrowsectrl.obj
 0001:0005292c       ?GetMessageMap@CMFCEditBrowseCtrl@@MBEPBUAFX_MSGMAP@@XZ 0045392c f   uafxcw:afxeditbrowsectrl.obj
 0001:0005292c       ?GetThisMessageMap@CMFCEditBrowseCtrl@@KGPBUAFX_MSGMAP@@XZ 0045392c f   uafxcw:afxeditbrowsectrl.obj
 0001:00052932       ?GetRuntimeClass@CMFCEditBrowseCtrl@@UBEPAUCRuntimeClass@@XZ 00453932 f   uafxcw:afxeditbrowsectrl.obj
 0001:00052938       ?Is32BitIcons@AFX_GLOBAL_DATA@@QBEHXZ 00453938 f i uafxcw:afxeditbrowsectrl.obj
 0001:0005295d       ?OnAfterUpdate@CMFCEditBrowseCtrl@@UAEXXZ 0045395d f   uafxcw:afxeditbrowsectrl.obj
 0001:000529ca       ?OnBrowse@CMFCEditBrowseCtrl@@UAEXXZ 004539ca f   uafxcw:afxeditbrowsectrl.obj
 0001:00052d6f       ?OnCancelMode@CMFCEditBrowseCtrl@@IAEXXZ 00453d6f f   uafxcw:afxeditbrowsectrl.obj
 0001:00052dae       ?OnChangeLayout@CMFCEditBrowseCtrl@@UAEXXZ 00453dae f   uafxcw:afxeditbrowsectrl.obj
 0001:00052e25       ?OnDrawBrowseButton@CMFCEditBrowseCtrl@@UAEXPAVCDC@@VCRect@@HH@Z 00453e25 f   uafxcw:afxeditbrowsectrl.obj
 0001:00053052       ?OnIllegalFileName@CMFCEditBrowseCtrl@@UAEHAAV?$CStringT@_WV?$StrTraitMFC@_WV?$ChTraitsCRT@_W@ATL@@@@@ATL@@@Z 00454052 f   uafxcw:afxeditbrowsectrl.obj
 0001:000530d2       ?OnInitControl@CMFCEditBrowseCtrl@@IAEJIJ@Z 004540d2 f   uafxcw:afxeditbrowsectrl.obj
 0001:00053198       ?OnLButtonDown@CMFCEditBrowseCtrl@@IAEXIVCPoint@@@Z 00454198 f   uafxcw:afxeditbrowsectrl.obj
 0001:00053203       ?OnLButtonUp@CMFCEditBrowseCtrl@@IAEXIVCPoint@@@Z 00454203 f   uafxcw:afxeditbrowsectrl.obj
 0001:00053274       ?OnMouseMove@CMFCEditBrowseCtrl@@IAEXIVCPoint@@@Z 00454274 f   uafxcw:afxeditbrowsectrl.obj
 0001:00053300       ?OnNcCalcSize@CMFCEditBrowseCtrl@@IAEXHPAUtagNCCALCSIZE_PARAMS@@@Z 00454300 f   uafxcw:afxeditbrowsectrl.obj
 0001:00053325       ?OnNcHitTest@CMFCEditBrowseCtrl@@IAEJVCPoint@@@Z 00454325 f   uafxcw:afxeditbrowsectrl.obj
 0001:00053377       ?OnNcMouseMove@CMFCEditBrowseCtrl@@IAEXIVCPoint@@@Z 00454377 f   uafxcw:afxeditbrowsectrl.obj
 0001:000533ef       ?OnNcPaint@CMFCEditBrowseCtrl@@IAEXXZ 004543ef f   uafxcw:afxeditbrowsectrl.obj
 0001:0005355b       ?OnRButtonDown@CMFCEditBrowseCtrl@@IAEXIVCPoint@@@Z 0045455b f   uafxcw:afxeditbrowsectrl.obj
 0001:0005355b       ?OnRButtonUp@CMFCEditBrowseCtrl@@IAEXIVCPoint@@@Z 0045455b f   uafxcw:afxeditbrowsectrl.obj
 0001:0005358d       ?PreTranslateMessage@CMFCEditBrowseCtrl@@UAEHPAUtagMSG@@@Z 0045458d f   uafxcw:afxeditbrowsectrl.obj
 0001:000535da       ?SetInternalImage@CMFCEditBrowseCtrl@@IAEXXZ 004545da f   uafxcw:afxeditbrowsectrl.obj
 0001:000536c7       ?TrimLeft@?$CStringT@_WV?$StrTraitMFC@_WV?$ChTraitsCRT@_W@ATL@@@@@ATL@@QAEAAV12@XZ 004546c7 f i uafxcw:afxeditbrowsectrl.obj
 0001:0005372b       ?TrimRight@?$CStringT@_WV?$StrTraitMFC@_WV?$ChTraitsCRT@_W@ATL@@@@@ATL@@QAEAAV12@XZ 0045472b f i uafxcw:afxeditbrowsectrl.obj
 0001:0005377e       _IsolationAwareImageList_ReplaceIcon@12 0045477e f i uafxcw:afxeditbrowsectrl.obj
 0001:0005385e       ??0CMFCFontComboBox@@QAE@XZ 0045485e f   uafxcw:afxfontcombobox.obj
 0001:00053898       ??0CMFCFontInfo@@QAE@ABV0@@Z 00454898 f i uafxcw:afxfontcombobox.obj
 0001:000538f8       ??1CMFCFontComboBox@@UAE@XZ 004548f8 f   uafxcw:afxfontcombobox.obj
 0001:00053914       ??1CMFCFontInfo@@UAE@XZ    00454914 f i uafxcw:afxfontcombobox.obj
 0001:0005392e       ??_ECMFCFontComboBox@@UAEPAXI@Z 0045492e f i uafxcw:afxfontcombobox.obj
 0001:0005392e       ??_GCMFCFontComboBox@@UAEPAXI@Z 0045492e f i uafxcw:afxfontcombobox.obj
 0001:00053961       ??_ECMFCFontInfo@@UAEPAXI@Z 00454961 f i uafxcw:afxfontcombobox.obj
 0001:00053961       ??_GCMFCFontInfo@@UAEPAXI@Z 00454961 f i uafxcw:afxfontcombobox.obj
 0001:00053991       ?CleanUp@CMFCFontComboBox@@IAEXXZ 00454991 f   uafxcw:afxfontcombobox.obj
 0001:00053a24       ?CompareItem@CMFCFontComboBox@@UAEHPAUtagCOMPAREITEMSTRUCT@@@Z 00454a24 f   uafxcw:afxfontcombobox.obj
 0001:00053a9c       ?CreateSolidBrush@CBrush@@QAEHK@Z 00454a9c f i uafxcw:afxfontcombobox.obj
 0001:00053ab8       ?DrawItem@CMFCFontComboBox@@UAEXPAUtagDRAWITEMSTRUCT@@@Z 00454ab8 f   uafxcw:afxfontcombobox.obj
 0001:00053d81       ?GetMessageMap@CMFCFontComboBox@@MBEPBUAFX_MSGMAP@@XZ 00454d81 f   uafxcw:afxfontcombobox.obj
 0001:00053d87       ?Init@CMFCFontComboBox@@IAEXXZ 00454d87 f   uafxcw:afxfontcombobox.obj
 0001:00053dbd       ?MeasureItem@CMFCFontComboBox@@UAEXPAUtagMEASUREITEMSTRUCT@@@Z 00454dbd f   uafxcw:afxfontcombobox.obj
 0001:00053e2e       ?OnCreate@CMFCFontComboBox@@IAEHPAUtagCREATESTRUCTW@@@Z 00454e2e f   uafxcw:afxfontcombobox.obj
 0001:00053e4c       ?OnDestroy@CMFCFontComboBox@@IAEXXZ 00454e4c f   uafxcw:afxfontcombobox.obj
 0001:00053e5c       ?OnInitControl@CMFCFontComboBox@@IAEJIJ@Z 00454e5c f   uafxcw:afxfontcombobox.obj
 0001:00053f39       ?PreSubclassWindow@CMFCFontComboBox@@MAEXXZ 00454f39 f   uafxcw:afxfontcombobox.obj
 0001:00053f56       ?PreTranslateMessage@CMFCFontComboBox@@UAEHPAUtagMSG@@@Z 00454f56 f   uafxcw:afxfontcombobox.obj
 0001:0005405a       ?Setup@CMFCFontComboBox@@QAEHHEE@Z 0045505a f   uafxcw:afxfontcombobox.obj
 0001:000541af       ??0CMFCLinkCtrl@@QAE@XZ    004551af f   uafxcw:afxlinkctrl.obj
 0001:00054230       ??1CMFCLinkCtrl@@UAE@XZ    00455230 f   uafxcw:afxlinkctrl.obj
 0001:0005425d       ??_ECMFCLinkCtrl@@UAEPAXI@Z 0045525d f i uafxcw:afxlinkctrl.obj
 0001:0005425d       ??_GCMFCLinkCtrl@@UAEPAXI@Z 0045525d f i uafxcw:afxlinkctrl.obj
 0001:00054290       ?GetMessageMap@CMFCLinkCtrl@@MBEPBUAFX_MSGMAP@@XZ 00455290 f   uafxcw:afxlinkctrl.obj
 0001:00054296       ?GetRuntimeClass@CMFCLinkCtrl@@UBEPAUCRuntimeClass@@XZ 00455296 f   uafxcw:afxlinkctrl.obj
 0001:0005429c       ?OnClicked@CMFCLinkCtrl@@IAEHXZ 0045529c f   uafxcw:afxlinkctrl.obj
 0001:0005438b       ?OnDraw@CMFCLinkCtrl@@MAEXPAVCDC@@ABVCRect@@I@Z 0045538b f   uafxcw:afxlinkctrl.obj
 0001:000544a8       ?OnDrawFocusRect@CMFCLinkCtrl@@MAEXPAVCDC@@ABVCRect@@@Z 004554a8 f   uafxcw:afxlinkctrl.obj
 0001:000544e4       ?OnInitControl@CMFCLinkCtrl@@IAEJIJ@Z 004554e4 f   uafxcw:afxlinkctrl.obj
 0001:00054633       ?PreTranslateMessage@CMFCLinkCtrl@@MAEHPAUtagMSG@@@Z 00455633 f   uafxcw:afxlinkctrl.obj
 0001:00054674       ?SetURL@CMFCLinkCtrl@@QAEXPB_W@Z 00455674 f   uafxcw:afxlinkctrl.obj
 0001:000546a6       ?SetURLPrefix@CMFCLinkCtrl@@QAEXPB_W@Z 004556a6 f   uafxcw:afxlinkctrl.obj
 0001:000546d5       ?SizeToContent@CMFCLinkCtrl@@UAE?AVCSize@@HH@Z 004556d5 f   uafxcw:afxlinkctrl.obj
 0001:0005488d       ??0?$CStringT@_WV?$StrTraitMFC@_WV?$ChTraitsCRT@_W@ATL@@@@@ATL@@QAE@_WH@Z 0045588d f i uafxcw:afxmaskededit.obj
 0001:00054986       ??0CMFCMaskedEdit@@QAE@XZ  00455986 f   uafxcw:afxmaskededit.obj
 0001:000549f5       ??1CMFCMaskedEdit@@UAE@XZ  004559f5 f   uafxcw:afxmaskededit.obj
 0001:00054a3e       ??_ECMFCMaskedEdit@@UAEPAXI@Z 00455a3e f i uafxcw:afxmaskededit.obj
 0001:00054a3e       ??_GCMFCMaskedEdit@@UAEPAXI@Z 00455a3e f i uafxcw:afxmaskededit.obj
 0001:00054a71       ?Allocate@?$CTempBuffer@_W$09VCCRTAllocator@ATL@@@ATL@@QAEPA_WI@Z 00455a71 f i uafxcw:afxmaskededit.obj
 0001:00054a9e       ?CheckChar@CMFCMaskedEdit@@AAEH_WH@Z 00455a9e f   uafxcw:afxmaskededit.obj
 0001:00054b46       ?DisableMask@CMFCMaskedEdit@@QAEXXZ 00455b46 f   uafxcw:afxmaskededit.obj
 0001:00054b60       ?DoUpdate@CMFCMaskedEdit@@AAEHHHH@Z 00455b60 f   uafxcw:afxmaskededit.obj
 0001:00054c16       ?EnableMask@CMFCMaskedEdit@@QAEXPB_W0_W0@Z 00455c16 f   uafxcw:afxmaskededit.obj
 0001:00054cb1       ?FloodCharacters@?$ChTraitsCRT@_W@ATL@@SAX_WHPA_W@Z 00455cb1 f i uafxcw:afxmaskededit.obj
 0001:00054cd8       ?GetGroupBounds@CMFCMaskedEdit@@AAEXAAH0HH@Z 00455cd8 f   uafxcw:afxmaskededit.obj
 0001:00054e09       ?GetMaskedValue@CMFCMaskedEdit@@IBE?BV?$CStringT@_WV?$StrTraitMFC@_WV?$ChTraitsCRT@_W@ATL@@@@@ATL@@H@Z 00455e09 f   uafxcw:afxmaskededit.obj
 0001:00054eb9       ?GetMessageMap@CMFCMaskedEdit@@MBEPBUAFX_MSGMAP@@XZ 00455eb9 f   uafxcw:afxmaskededit.obj
 0001:00054ebf       ?GetRuntimeClass@CMFCMaskedEdit@@UBEPAUCRuntimeClass@@XZ 00455ebf f   uafxcw:afxmaskededit.obj
 0001:00054ec5       ?GetValue@CMFCMaskedEdit@@IBE?BV?$CStringT@_WV?$StrTraitMFC@_WV?$ChTraitsCRT@_W@ATL@@@@@ATL@@XZ 00455ec5 f i uafxcw:afxmaskededit.obj
 0001:00054ee5       ?IsMaskedChar@CMFCMaskedEdit@@MBEH_W0@Z 00455ee5 f   uafxcw:afxmaskededit.obj
 0001:00054f9b       ?OnChar@CMFCMaskedEdit@@IAEXIII@Z 00455f9b f   uafxcw:afxmaskededit.obj
 0001:00055017       ?OnCharBackspace@CMFCMaskedEdit@@AAEXIII@Z 00456017 f   uafxcw:afxmaskededit.obj
 0001:00055448       ?OnCharDelete@CMFCMaskedEdit@@AAEXIII@Z 00456448 f   uafxcw:afxmaskededit.obj
 0001:00055845       ?OnCharPrintchar@CMFCMaskedEdit@@AAEXIII@Z 00456845 f   uafxcw:afxmaskededit.obj
 0001:00055c4f       ?OnClear@CMFCMaskedEdit@@IAEXXZ 00456c4f f   uafxcw:afxmaskededit.obj
 0001:00055c4f       ?OnCut@CMFCMaskedEdit@@IAEXXZ 00456c4f f   uafxcw:afxmaskededit.obj
 0001:00055cff       ?OnCreate@CMFCMaskedEdit@@IAEHPAUtagCREATESTRUCTW@@@Z 00456cff f   uafxcw:afxmaskededit.obj
 0001:00055d23       ?OnGetText@CMFCMaskedEdit@@IAEHHPA_W@Z 00456d23 f   uafxcw:afxmaskededit.obj
 0001:00055de7       ?OnGetTextLength@CMFCMaskedEdit@@IAEIXZ 00456de7 f   uafxcw:afxmaskededit.obj
 0001:00055e61       ?OnInitControl@CMFCMaskedEdit@@IAEJIJ@Z 00456e61 f   uafxcw:afxmaskededit.obj
 0001:0005600b       ?OnKeyDown@CMFCMaskedEdit@@IAEXIII@Z 0045700b f   uafxcw:afxmaskededit.obj
 0001:00056454       ?OnLButtonUp@CMFCMaskedEdit@@IAEXIVCPoint@@@Z 00457454 f   uafxcw:afxmaskededit.obj
 0001:0005651c       ?OnPaste@CMFCMaskedEdit@@IAEXXZ 0045751c f   uafxcw:afxmaskededit.obj
 0001:00056764       ?OnSetFocusR@CMFCMaskedEdit@@IAEXXZ 00457764 f   uafxcw:afxmaskededit.obj
 0001:0005679f       ?OnSetText@CMFCMaskedEdit@@IAEHPB_W@Z 0045779f f   uafxcw:afxmaskededit.obj
 0001:00056843       ?SetSel@CEdit@@QAEXHHH@Z   00457843 f i uafxcw:afxmaskededit.obj
 0001:0005687a       ?SetValidChars@CMFCMaskedEdit@@QAEXPB_W@Z 0045787a f   uafxcw:afxmaskededit.obj
 0001:000568ac       ?SetValue@CMFCMaskedEdit@@IAEHPB_WH@Z 004578ac f   uafxcw:afxmaskededit.obj
 0001:00056b53       ??0CMFCMenuButton@@QAE@XZ  00457b53 f   uafxcw:afxmenubutton.obj
 0001:00056ba3       ??1CMFCMenuButton@@UAE@XZ  00457ba3 f   uafxcw:afxmenubutton.obj
 0001:00056bae       ??_ECMFCMenuButton@@UAEPAXI@Z 00457bae f i uafxcw:afxmenubutton.obj
 0001:00056bae       ??_GCMFCMenuButton@@UAEPAXI@Z 00457bae f i uafxcw:afxmenubutton.obj
 0001:00056be7       ?GetMessageMap@CMFCMenuButton@@MBEPBUAFX_MSGMAP@@XZ 00457be7 f   uafxcw:afxmenubutton.obj
 0001:00056bed       ?GetRuntimeClass@CMFCMenuButton@@UBEPAUCRuntimeClass@@XZ 00457bed f   uafxcw:afxmenubutton.obj
 0001:00056bf3       ?OnDraw@CMFCMenuButton@@MAEXPAVCDC@@ABVCRect@@I@Z 00457bf3 f   uafxcw:afxmenubutton.obj
 0001:00056cfe       ?OnInitControl@CMFCMenuButton@@IAEJIJ@Z 00457cfe f   uafxcw:afxmenubutton.obj
 0001:00056e14       ?OnKeyDown@CMFCMenuButton@@IAEXIII@Z 00457e14 f   uafxcw:afxmenubutton.obj
 0001:00056e52       ?OnKillFocus@CMFCMenuButton@@IAEXPAVCWnd@@@Z 00457e52 f   uafxcw:afxmenubutton.obj
 0001:00056ea8       ?OnLButtonDblClk@CMFCMenuButton@@IAEXIVCPoint@@@Z 00457ea8 f   uafxcw:afxmenubutton.obj
 0001:00056ee7       ?OnLButtonDown@CMFCMenuButton@@IAEXIVCPoint@@@Z 00457ee7 f   uafxcw:afxmenubutton.obj
 0001:00056fb7       ?OnLButtonUp@CMFCMenuButton@@IAEXIVCPoint@@@Z 00457fb7 f   uafxcw:afxmenubutton.obj
 0001:00057015       ?OnShowMenu@CMFCMenuButton@@MAEXXZ 00458015 f   uafxcw:afxmenubutton.obj
 0001:00057188       ?PreTranslateMessage@CMFCMenuButton@@UAEHPAUtagMSG@@@Z 00458188 f   uafxcw:afxmenubutton.obj
 0001:000571d9       ??0?$CList@PAVCMFCPropertyGridProperty@@PAV1@@@QAE@H@Z 004581d9 f i uafxcw:afxpropertygridctrl.obj
 0001:000571ff       ??0CMFCPropertyGridCtrl@@QAE@XZ 004581ff f   uafxcw:afxpropertygridctrl.obj
 0001:00057431       ??1?$CList@PAVCMFCPropertyGridProperty@@PAV1@@@UAE@XZ 00458431 f i uafxcw:afxpropertygridctrl.obj
 0001:00057470       ??1CColorDialog@@UAE@XZ    00458470 f i uafxcw:afxcolorbar.obj
 0001:00057470       ??1CCommonDialog@@UAE@XZ   00458470 f i uafxcw:afxpropertygridctrl.obj
 0001:00057470       ??1COleBusyDialog@@UAE@XZ  00458470 f i uafxcw:oledlgs2.obj
 0001:00057470       ??1CPrintDialog@@UAE@XZ    00458470 f i uafxcw:afxtoolbarfontcombobox.obj
 0001:0005747b       ??1CMFCPropertyGridCtrl@@UAE@XZ 0045847b f   uafxcw:afxpropertygridctrl.obj
 0001:00057556       ??_E?$CList@PAVCMFCPropertyGridProperty@@PAV1@@@UAEPAXI@Z 00458556 f i uafxcw:afxpropertygridctrl.obj
 0001:00057556       ??_G?$CList@PAVCMFCPropertyGridProperty@@PAV1@@@UAEPAXI@Z 00458556 f i uafxcw:afxpropertygridctrl.obj
 0001:000575bf       ??_ECCommonDialog@@UAEPAXI@Z 004585bf f i uafxcw:afxpropertygridctrl.obj
 0001:000575bf       ??_GCCommonDialog@@UAEPAXI@Z 004585bf f i uafxcw:afxpropertygridctrl.obj
 0001:000575f8       ??_ECMFCPropertyGridCtrl@@UAEPAXI@Z 004585f8 f i uafxcw:afxpropertygridctrl.obj
 0001:000575f8       ??_GCMFCPropertyGridCtrl@@UAEPAXI@Z 004585f8 f i uafxcw:afxpropertygridctrl.obj
 0001:0005762b       ?AddTerminalProp@CMFCPropertyGridProperty@@IAEXAAV?$CList@PAVCMFCPropertyGridProperty@@PAV1@@@@Z 0045862b f   uafxcw:afxpropertygridctrl.obj
 0001:000576bb       ?AdjustLayout@CMFCPropertyGridCtrl@@UAEXXZ 004586bb f   uafxcw:afxpropertygridctrl.obj
 0001:0005797a       ?CalcEditMargin@CMFCPropertyGridCtrl@@IAEXXZ 0045897a f   uafxcw:afxpropertygridctrl.obj
 0001:00057a5a       ?CloseColorPopup@CMFCPropertyGridCtrl@@UAEXXZ 00458a5a f   uafxcw:afxpropertygridctrl.obj
 0001:00057a97       ?CompareProps@CMFCPropertyGridCtrl@@MBEHPBVCMFCPropertyGridProperty@@0@Z 00458a97 f   uafxcw:afxpropertygridctrl.obj
 0001:00057ac7       ?Create@CMFCPropertyGridCtrl@@UAEHKABUtagRECT@@PAVCWnd@@I@Z 00458ac7 f   uafxcw:afxpropertygridctrl.obj
 0001:00057b21       ?CreateBoldFont@CMFCPropertyGridCtrl@@IAEXXZ 00458b21 f   uafxcw:afxpropertygridctrl.obj
 0001:00057bac       ?EditItem@CMFCPropertyGridCtrl@@UAEHPAVCMFCPropertyGridProperty@@PAUtagPOINT@@@Z 00458bac f   uafxcw:afxpropertygridctrl.obj
 0001:00057c23       ?EnableDescriptionArea@CMFCPropertyGridCtrl@@QAEXH@Z 00458c23 f   uafxcw:afxpropertygridctrl.obj
 0001:00057c65       ?EnableHeaderCtrl@CMFCPropertyGridCtrl@@QAEXHPB_W0@Z 00458c65 f   uafxcw:afxpropertygridctrl.obj
 0001:00057d56       ?EndEditItem@CMFCPropertyGridCtrl@@UAEHH@Z 00458d56 f   uafxcw:afxpropertygridctrl.obj
 0001:00057dfb       ?EnsureVisible@CMFCPropertyGridCtrl@@QAEXPAVCMFCPropertyGridProperty@@H@Z 00458dfb f   uafxcw:afxpropertygridctrl.obj
 0001:00057f32       ?Expand@CMFCPropertyGridProperty@@QAEXH@Z 00458f32 f   uafxcw:afxpropertygridctrl.obj
 0001:00057fbd       ?GetExpandedSubItems@CMFCPropertyGridProperty@@QBEHH@Z 00458fbd f   uafxcw:afxpropertygridctrl.obj
 0001:00057ffe       ?GetHeaderCtrl@CMFCPropertyGridCtrl@@UAEAAVCMFCHeaderCtrl@@XZ 00458ffe f i uafxcw:afxpropertygridctrl.obj
 0001:00058005       ?GetHierarchyLevel@CMFCPropertyGridProperty@@QBEHXZ 00459005 f   uafxcw:afxpropertygridctrl.obj
 0001:00058015       ?GetMessageMap@CMFCPropertyGridCtrl@@MBEPBUAFX_MSGMAP@@XZ 00459015 f   uafxcw:afxpropertygridctrl.obj
 0001:0005801b       ?GetRuntimeClass@CMFCPropertyGridCtrl@@UBEPAUCRuntimeClass@@XZ 0045901b f   uafxcw:afxpropertygridctrl.obj
 0001:00058021       ?GetScrollBarCtrl@CMFCPropertyGridCtrl@@UBEPAVCScrollBar@@H@Z 00459021 f   uafxcw:afxpropertygridctrl.obj
 0001:00058043       ?GetTextColor@CMFCPropertyGridCtrl@@QBEKXZ 00459043 f i uafxcw:afxpropertygridctrl.obj
 0001:00058057       ?GetTotalItems@CMFCPropertyGridCtrl@@IBEHH@Z 00459057 f   uafxcw:afxpropertygridctrl.obj
 0001:000580c0       ?HitTest@CMFCPropertyGridCtrl@@QBEPAVCMFCPropertyGridProperty@@VCPoint@@PAW4ClickArea@2@H@Z 004590c0 f   uafxcw:afxpropertygridctrl.obj
 0001:00058188       ?HitTest@CMFCPropertyGridProperty@@QAEPAV1@VCPoint@@PAW4ClickArea@1@@Z 00459188 f   uafxcw:afxpropertygridctrl.obj
 0001:00058230       ?Init@CMFCPropertyGridCtrl@@MAEXXZ 00459230 f   uafxcw:afxpropertygridctrl.obj
 0001:00058465       ?InitHeader@CMFCPropertyGridCtrl@@UAEXXZ 00459465 f   uafxcw:afxpropertygridctrl.obj
 0001:000584c7       ?InsertBefore@?$CList@KK@@QAEPAU__POSITION@@PAU2@K@Z 004594c7 f i uafxcw:afxtoolbarcomboboxbutton.obj
 0001:000584c7       ?InsertBefore@?$CList@PAVCMFCPropertyGridProperty@@PAV1@@@QAEPAU__POSITION@@PAU2@PAVCMFCPropertyGridProperty@@@Z 004594c7 f i uafxcw:afxpropertygridctrl.obj
 0001:00058505       ?IsParentExpanded@CMFCPropertyGridProperty@@QBEHXZ 00459505 f   uafxcw:afxpropertygridctrl.obj
 0001:00058522       ?MarkModifiedProperties@CMFCPropertyGridCtrl@@QAEXHH@Z 00459522 f   uafxcw:afxpropertygridctrl.obj
 0001:00058550       ?NotifyAccessibility@CMFCPropertyGridCtrl@@MAEXPAVCMFCPropertyGridProperty@@@Z 00459550 f   uafxcw:afxpropertygridctrl.obj
 0001:000585af       ?OnCancelMode@CMFCPropertyGridCtrl@@IAEXXZ 004595af f   uafxcw:afxpropertygridctrl.obj
 0001:00058649       ?OnChar@CMFCPropertyGridCtrl@@IAEXIII@Z 00459649 f   uafxcw:afxpropertygridctrl.obj
 0001:000586a0       ?OnClickButton@CMFCPropertyGridCtrl@@UAEXVCPoint@@@Z 004596a0 f   uafxcw:afxpropertygridctrl.obj
 0001:0005878d       ?OnCloseCombo@CMFCPropertyGridCtrl@@IAEXXZ 0045978d f   uafxcw:afxpropertygridctrl.obj
 0001:000587ad       ?OnComboKillFocus@CMFCPropertyGridCtrl@@IAEXXZ 004597ad f   uafxcw:afxpropertygridctrl.obj
 0001:0005882f       ?OnCreate@CMFCPropertyGridCtrl@@IAEHPAUtagCREATESTRUCTW@@@Z 0045982f f   uafxcw:afxpropertygridctrl.obj
 0001:0005885c       ?OnCtlColor@CMFCPropertyGridCtrl@@IAEPAUHBRUSH__@@PAVCDC@@PAVCWnd@@I@Z 0045985c f   uafxcw:afxpropertygridctrl.obj
 0001:000588c5       ?OnDestroy@CMFCPropertyGridCtrl@@IAEXXZ 004598c5 f   uafxcw:afxpropertygridctrl.obj
 0001:00058947       ?OnDraw@CMFCPropertyGridCtrl@@MAEXPAVCDC@@@Z 00459947 f   uafxcw:afxpropertygridctrl.obj
 0001:00058a90       ?OnDrawDescription@CMFCPropertyGridCtrl@@MAEXPAVCDC@@VCRect@@@Z 00459a90 f   uafxcw:afxpropertygridctrl.obj
 0001:00058bbe       ?OnDrawList@CMFCPropertyGridCtrl@@MAEXPAVCDC@@@Z 00459bbe f   uafxcw:afxpropertygridctrl.obj
 0001:00058cb0       ?OnDrawProperty@CMFCPropertyGridCtrl@@UBEHPAVCDC@@PAVCMFCPropertyGridProperty@@@Z 00459cb0 f   uafxcw:afxpropertygridctrl.obj
 0001:000591cd       ?OnEditKillFocus@CMFCPropertyGridCtrl@@IAEXXZ 0045a1cd f   uafxcw:afxpropertygridctrl.obj
 0001:00059278       ?OnFillBackground@CMFCPropertyGridCtrl@@MAEXPAVCDC@@VCRect@@@Z 0045a278 f   uafxcw:afxpropertygridctrl.obj
 0001:000592b5       ?OnGetDlgCode@CMFCPropertyGridCtrl@@IAEIXZ 0045a2b5 f   uafxcw:afxpropertygridctrl.obj
 0001:000592bb       ?OnGetFont@CMFCPropertyGridCtrl@@IAEPAUHFONT__@@XZ 0045a2bb f   uafxcw:afxpropertygridctrl.obj
 0001:000592ce       ?OnGetObject@CMFCPropertyGridCtrl@@IAEJIJ@Z 0045a2ce f   uafxcw:afxpropertygridctrl.obj
 0001:000592f8       ?OnHeaderEndTrack@CMFCPropertyGridCtrl@@IAEXPAUtagNMHDR@@PAJ@Z 0045a2f8 f   uafxcw:afxpropertygridctrl.obj
 0001:0005930c       ?OnHeaderItemChanged@CMFCPropertyGridCtrl@@IAEXPAUtagNMHDR@@PAJ@Z 0045a30c f   uafxcw:afxpropertygridctrl.obj
 0001:0005941a       ?OnHeaderTrack@CMFCPropertyGridCtrl@@IAEXPAUtagNMHDR@@PAJ@Z 0045a41a f   uafxcw:afxpropertygridctrl.obj
 0001:0005945e       ?OnInitControl@CMFCPropertyGridCtrl@@IAEJIJ@Z 0045a45e f   uafxcw:afxpropertygridctrl.obj
 0001:000595b8       ?OnKeyDown@CMFCPropertyGridCtrl@@IAEXIII@Z 0045a5b8 f   uafxcw:afxpropertygridctrl.obj
 0001:00059af2       ?OnKillFocus@CMFCPropertyGridCtrl@@IAEXPAVCWnd@@@Z 0045aaf2 f   uafxcw:afxpropertygridctrl.obj
 0001:00059b78       ?OnLButtonDblClk@CMFCPropertyGridCtrl@@IAEXIVCPoint@@@Z 0045ab78 f   uafxcw:afxpropertygridctrl.obj
 0001:00059d52       ?OnLButtonDown@CMFCPropertyGridCtrl@@IAEXIVCPoint@@@Z 0045ad52 f   uafxcw:afxpropertygridctrl.obj
 0001:00059ff6       ?OnLButtonUp@CMFCPropertyGridCtrl@@IAEXIVCPoint@@@Z 0045aff6 f   uafxcw:afxpropertygridctrl.obj
 0001:0005a1cc       ?OnMouseMove@CMFCPropertyGridCtrl@@IAEXIVCPoint@@@Z 0045b1cc f   uafxcw:afxpropertygridctrl.obj
 0001:0005a204       ?OnMouseWheel@CMFCPropertyGridCtrl@@IAEHIFVCPoint@@@Z 0045b204 f   uafxcw:afxpropertygridctrl.obj
 0001:0005a259       ?OnNcCalcSize@CMFCPropertyGridCtrl@@IAEXHPAUtagNCCALCSIZE_PARAMS@@@Z 0045b259 f   uafxcw:afxpropertygridctrl.obj
 0001:0005a285       ?OnNcPaint@CMFCPropertyGridCtrl@@IAEXXZ 0045b285 f   uafxcw:afxpropertygridctrl.obj
 0001:0005a2f1       ?OnNeedTipText@CMFCPropertyGridCtrl@@IAEHIPAUtagNMHDR@@PAJ@Z 0045b2f1 f   uafxcw:afxpropertygridctrl.obj
 0001:0005a42b       ?OnNotify@CMFCPropertyGridCtrl@@MAEHIJPAJ@Z 0045b42b f   uafxcw:afxpropertygridctrl.obj
 0001:0005a479       ?OnPaint@CMFCPropertyGridCtrl@@IAEXXZ 0045b479 f   uafxcw:afxpropertygridctrl.obj
 0001:0005a4ba       ?OnPrintClient@CMFCPropertyGridCtrl@@IAEJPAVCDC@@I@Z 0045b4ba f   uafxcw:afxpropertygridctrl.obj
 0001:0005a4e6       ?OnPropertyChanged@CMFCPropertyGridCtrl@@UBEXPAVCMFCPropertyGridProperty@@@Z 0045b4e6 f   uafxcw:afxpropertygridctrl.obj
 0001:0005a51e       ?OnRButtonDown@CMFCPropertyGridCtrl@@IAEXIVCPoint@@@Z 0045b51e f   uafxcw:afxpropertygridctrl.obj
 0001:0005a6c4       ?OnSelectCombo@CMFCPropertyGridCtrl@@IAEXXZ 0045b6c4 f   uafxcw:afxpropertygridctrl.obj
 0001:0005a6e4       ?OnSetCursor@CMFCPropertyGridCtrl@@IAEHPAVCWnd@@II@Z 0045b6e4 f   uafxcw:afxpropertygridctrl.obj
 0001:0005a7e5       ?OnSetFocus@CMFCPropertyGridCtrl@@IAEXPAVCWnd@@@Z 0045b7e5 f   uafxcw:afxpropertygridctrl.obj
 0001:0005a820       ?OnSetFont@CMFCPropertyGridCtrl@@IAEXPAVCFont@@H@Z 0045b820 f   uafxcw:afxpropertygridctrl.obj
 0001:0005a85d       ?OnSize@CMFCPropertyGridCtrl@@IAEXIHH@Z 0045b85d f   uafxcw:afxpropertygridctrl.obj
 0001:0005a8a7       ?OnSpinDeltaPos@CMFCPropertyGridCtrl@@IAEXPAUtagNMHDR@@PAJ@Z 0045b8a7 f   uafxcw:afxpropertygridctrl.obj
 0001:0005a8c5       ?OnStyleChanged@CMFCPropertyGridCtrl@@IAEXHPAUtagSTYLESTRUCT@@@Z 0045b8c5 f   uafxcw:afxpropertygridctrl.obj
 0001:0005a8e7       ?OnUpdateSpin@CMFCPropertyGridCtrl@@IAEJIJ@Z 0045b8e7 f   uafxcw:afxpropertygridctrl.obj
 0001:0005a917       ?OnVScroll@CMFCPropertyGridCtrl@@IAEXIIPAVCScrollBar@@@Z 0045b917 f   uafxcw:afxpropertygridctrl.obj
 0001:0005aa53       ?PreSubclassWindow@CMFCPropertyGridCtrl@@MAEXXZ 0045ba53 f   uafxcw:afxpropertygridctrl.obj
 0001:0005aa7e       ?PreTranslateMessage@CMFCPropertyGridCtrl@@UAEHPAUtagMSG@@@Z 0045ba7e f   uafxcw:afxpropertygridctrl.obj
 0001:0005b2b9       ?ProcessClipboardAccelerators@CMFCPropertyGridCtrl@@MAEHI@Z 0045c2b9 f   uafxcw:afxpropertygridctrl.obj
 0001:0005b373       ?Redraw@CMFCPropertyGridProperty@@QAEXXZ 0045c373 f   uafxcw:afxpropertygridctrl.obj
 0001:0005b3f3       ?ReposProperties@CMFCPropertyGridCtrl@@IAEXXZ 0045c3f3 f   uafxcw:afxpropertygridctrl.obj
 0001:0005b4a7       ?Reposition@CMFCPropertyGridProperty@@IAEXAAH@Z 0045c4a7 f   uafxcw:afxpropertygridctrl.obj
 0001:0005b6aa       ?SetAlphabeticMode@CMFCPropertyGridCtrl@@QAEXH@Z 0045c6aa f   uafxcw:afxpropertygridctrl.obj
 0001:0005b712       ?SetBuddy@CSpinButtonCtrl@@QAEPAVCWnd@@PAV2@@Z 0045c712 f i uafxcw:afxpropertygridctrl.obj
 0001:0005b73a       ?SetColor@CMFCPropertyGridColorProperty@@QAEXK@Z 0045c73a f   uafxcw:afxpropertygridctrl.obj
 0001:0005b7ed       ?SetCurSel@CMFCPropertyGridCtrl@@QAEXPAVCMFCPropertyGridProperty@@H@Z 0045c7ed f   uafxcw:afxpropertygridctrl.obj
 0001:0005ba48       ?SetCurrFont@CMFCPropertyGridCtrl@@IAEPAUHFONT__@@PAVCDC@@@Z 0045ca48 f   uafxcw:afxpropertygridctrl.obj
 0001:0005ba73       ?SetDescriptionRows@CMFCPropertyGridCtrl@@QAEXH@Z 0045ca73 f   uafxcw:afxpropertygridctrl.obj
 0001:0005bab5       ?SetModifiedFlag@CMFCPropertyGridProperty@@IAEXXZ 0045cab5 f   uafxcw:afxpropertygridctrl.obj
 0001:0005bca3       ?SetScrollSizes@CMFCPropertyGridCtrl@@IAEXXZ 0045cca3 f   uafxcw:afxpropertygridctrl.obj
 0001:0005bdb8       ?SetVSDotNetLook@CMFCPropertyGridCtrl@@QAEXH@Z 0045cdb8 f   uafxcw:afxpropertygridctrl.obj
 0001:0005bde0       ?SpanExcluding@?$CStringT@_WV?$StrTraitMFC@_WV?$ChTraitsCRT@_W@ATL@@@@@ATL@@QBE?AV12@PB_W@Z 0045cde0 f i uafxcw:afxpropertygridctrl.obj
 0001:0005be17       ?TrackDescr@CMFCPropertyGridCtrl@@IAEXH@Z 0045ce17 f   uafxcw:afxpropertygridctrl.obj
 0001:0005beeb       ?TrackHeader@CMFCPropertyGridCtrl@@IAEXH@Z 0045ceeb f   uafxcw:afxpropertygridctrl.obj
 0001:0005c054       ?TrackToolTip@CMFCPropertyGridCtrl@@IAEXVCPoint@@@Z 0045d054 f   uafxcw:afxpropertygridctrl.obj
 0001:0005c37f       ?UpdateColor@CMFCPropertyGridCtrl@@UAEXK@Z 0045d37f f   uafxcw:afxpropertygridctrl.obj
 0001:0005c40e       ?accHitTest@CMFCPropertyGridCtrl@@UAEJJJPAUtagVARIANT@@@Z 0045d40e f   uafxcw:afxpropertygridctrl.obj
 0001:0005c47d       ?accLocation@CMFCPropertyGridCtrl@@UAEJPAJ000UtagVARIANT@@@Z 0045d47d f   uafxcw:afxpropertygridctrl.obj
 0001:0005c562       ?accSelect@CBasePane@@UAEJJUtagVARIANT@@@Z 0045d562 f   uafxcw:afxbasepane.obj
 0001:0005c562       ?accSelect@CMFCPropertyGridCtrl@@UAEJJUtagVARIANT@@@Z 0045d562 f   uafxcw:afxpropertygridctrl.obj
 0001:0005c59c       ?get_accChild@CMFCPropertyGridCtrl@@UAEJUtagVARIANT@@PAPAUIDispatch@@@Z 0045d59c f   uafxcw:afxpropertygridctrl.obj
 0001:0005c5b9       ?get_accChildCount@CBasePane@@UAEJPAJ@Z 0045d5b9 f   uafxcw:afxbasepane.obj
 0001:0005c5b9       ?get_accChildCount@CMFCBaseAccessibleObject@@UAEJPAJ@Z 0045d5b9 f   uafxcw:afxbaseribbonelement.obj
 0001:0005c5b9       ?get_accChildCount@CMFCPropertyGridCtrl@@UAEJPAJ@Z 0045d5b9 f   uafxcw:afxpropertygridctrl.obj
 0001:0005c5b9       ?get_accParent@CMFCBaseAccessibleObject@@UAEJPAPAUIDispatch@@@Z 0045d5b9 f   uafxcw:afxbaseribbonelement.obj
 0001:0005c5d3       ?get_accDefaultAction@CMFCPropertyGridCtrl@@UAEJUtagVARIANT@@PAPA_W@Z 0045d5d3 f   uafxcw:afxpropertygridctrl.obj
 0001:0005c5db       ?get_accDescription@CMFCPropertyGridCtrl@@UAEJUtagVARIANT@@PAPA_W@Z 0045d5db f   uafxcw:afxpropertygridctrl.obj
 0001:0005c668       ?get_accFocus@CBasePane@@UAEJPAUtagVARIANT@@@Z 0045d668 f   uafxcw:afxbasepane.obj
 0001:0005c668       ?get_accFocus@CMFCPropertyGridCtrl@@UAEJPAUtagVARIANT@@@Z 0045d668 f   uafxcw:afxpropertygridctrl.obj
 0001:0005c668       ?get_accSelection@CBasePane@@UAEJPAUtagVARIANT@@@Z 0045d668 f   uafxcw:afxbasepane.obj
 0001:0005c668       ?get_accSelection@CMFCPropertyGridCtrl@@UAEJPAUtagVARIANT@@@Z 0045d668 f   uafxcw:afxpropertygridctrl.obj
 0001:0005c680       ?accSelect@CMFCBaseAccessibleObject@@UAEJJUtagVARIANT@@@Z 0045d680 f   uafxcw:afxbaseribbonelement.obj
 0001:0005c680       ?get_accHelp@CMFCPropertyGridCtrl@@UAEJUtagVARIANT@@PAPA_W@Z 0045d680 f   uafxcw:afxpropertygridctrl.obj
 0001:0005c680       ?get_accKeyboardShortcut@CMFCPropertyGridCtrl@@UAEJUtagVARIANT@@PAPA_W@Z 0045d680 f   uafxcw:afxpropertygridctrl.obj
 0001:0005c680       ?put_accName@CMFCBaseAccessibleObject@@UAEJUtagVARIANT@@PA_W@Z 0045d680 f   uafxcw:afxbaseribbonelement.obj
 0001:0005c680       ?put_accValue@CMFCBaseAccessibleObject@@UAEJUtagVARIANT@@PA_W@Z 0045d680 f   uafxcw:afxbaseribbonelement.obj
 0001:0005c686       ?accNavigate@CMFCBaseAccessibleObject@@UAEJJUtagVARIANT@@PAU2@@Z 0045d686 f   uafxcw:afxbaseribbonelement.obj
 0001:0005c686       ?get_accHelpTopic@CBasePane@@UAEJPAPA_WUtagVARIANT@@PAJ@Z 0045d686 f   uafxcw:afxbasepane.obj
 0001:0005c686       ?get_accHelpTopic@CMFCPropertyGridCtrl@@UAEJPAPA_WUtagVARIANT@@PAJ@Z 0045d686 f   uafxcw:afxpropertygridctrl.obj
 0001:0005c68c       ?get_accName@CMFCPropertyGridCtrl@@UAEJUtagVARIANT@@PAPA_W@Z 0045d68c f   uafxcw:afxpropertygridctrl.obj
 0001:0005c7ba       ?get_accRole@CMFCPropertyGridCtrl@@UAEJUtagVARIANT@@PAU2@@Z 0045d7ba f   uafxcw:afxpropertygridctrl.obj
 0001:0005c7f9       ?get_accState@CMFCPropertyGridCtrl@@UAEJUtagVARIANT@@PAU2@@Z 0045d7f9 f   uafxcw:afxpropertygridctrl.obj
 0001:0005c883       ?get_accValue@CMFCPropertyGridCtrl@@UAEJUtagVARIANT@@PAPA_W@Z 0045d883 f   uafxcw:afxpropertygridctrl.obj
 0001:0005c903       ??0?$CList@PAU_ITEMIDLIST@@PAU1@@@QAE@H@Z 0045d903 f i uafxcw:afxshelltreectrl.obj
 0001:0005c929       ??0CMFCShellTreeCtrl@@QAE@XZ 0045d929 f   uafxcw:afxshelltreectrl.obj
 0001:0005c965       ??1?$CList@PAU_ITEMIDLIST@@PAU1@@@UAE@XZ 0045d965 f i uafxcw:afxshelltreectrl.obj
 0001:0005c9a4       ??_E?$CList@PAU_ITEMIDLIST@@PAU1@@@UAEPAXI@Z 0045d9a4 f i uafxcw:afxshelltreectrl.obj
 0001:0005c9a4       ??_G?$CList@PAU_ITEMIDLIST@@PAU1@@@UAEPAXI@Z 0045d9a4 f i uafxcw:afxshelltreectrl.obj
 0001:0005ca0d       ??_ECMFCShellTreeCtrl@@UAEPAXI@Z 0045da0d f i uafxcw:afxshelltreectrl.obj
 0001:0005ca0d       ??_GCMFCShellTreeCtrl@@UAEPAXI@Z 0045da0d f i uafxcw:afxshelltreectrl.obj
 0001:0005ca46       ?CompareProc@CMFCShellTreeCtrl@@KGHJJJ@Z 0045da46 f   uafxcw:afxshelltreectrl.obj
 0001:0005ca78       ?DeleteAllItems@CTreeCtrl@@QAEHXZ 0045da78 f i uafxcw:afxshelltreectrl.obj
 0001:0005ca8e       ?EnumObjects@CMFCShellTreeCtrl@@MAEJPAU_TREEITEM@@PAUIShellFolder@@PAU_ITEMIDLIST@@@Z 0045da8e f   uafxcw:afxshelltreectrl.obj
 0001:0005cc9d       ?GetChildItems@CMFCShellTreeCtrl@@IAEHPAU_TREEITEM@@@Z 0045dc9d f   uafxcw:afxshelltreectrl.obj
 0001:0005cdea       ?GetMessageMap@CMFCShellTreeCtrl@@MBEPBUAFX_MSGMAP@@XZ 0045ddea f   uafxcw:afxshelltreectrl.obj
 0001:0005cdf0       ?GetRelatedList@CMFCShellTreeCtrl@@QBEPAVCMFCShellListCtrl@@XZ 0045ddf0 f   uafxcw:afxshelltreectrl.obj
 0001:0005ce26       ?GetRootItems@CMFCShellTreeCtrl@@IAEHXZ 0045de26 f   uafxcw:afxshelltreectrl.obj
 0001:0005cf7d       ?GetRuntimeClass@CMFCShellTreeCtrl@@UBEPAUCRuntimeClass@@XZ 0045df7d f   uafxcw:afxshelltreectrl.obj
 0001:0005cf83       ?InitTree@CMFCShellTreeCtrl@@IAEXXZ 0045df83 f   uafxcw:afxshelltreectrl.obj
 0001:0005d007       ?OnChildNotify@CMFCShellTreeCtrl@@UAEHIIJPAJ@Z 0045e007 f   uafxcw:afxshelltreectrl.obj
 0001:0005d0b4       ?OnContextMenu@CMFCShellTreeCtrl@@IAEXPAVCWnd@@VCPoint@@@Z 0045e0b4 f   uafxcw:afxshelltreectrl.obj
 0001:0005d0d6       ?OnCreate@CMFCShellTreeCtrl@@IAEHPAUtagCREATESTRUCTW@@@Z 0045e0d6 f   uafxcw:afxshelltreectrl.obj
 0001:0005d0fe       ?OnDeleteitem@CMFCShellTreeCtrl@@IAEXPAUtagNMHDR@@PAJ@Z 0045e0fe f   uafxcw:afxshelltreectrl.obj
 0001:0005d158       ?OnDestroy@CMFCShellTreeCtrl@@IAEXXZ 0045e158 f   uafxcw:afxshelltreectrl.obj
 0001:0005d173       ?OnGetItemIcon@CMFCShellTreeCtrl@@UAEHPAU_AFX_SHELLITEMINFO@@H@Z 0045e173 f   uafxcw:afxshelltreectrl.obj
 0001:0005d1d9       ?OnGetItemText@CMFCShellTreeCtrl@@UAE?AV?$CStringT@_WV?$StrTraitMFC@_WV?$ChTraitsCRT@_W@ATL@@@@@ATL@@PAU_AFX_SHELLITEMINFO@@@Z 0045e1d9 f   uafxcw:afxshelltreectrl.obj
 0001:0005d249       ?OnInitControl@CMFCShellTreeCtrl@@IAEJIJ@Z 0045e249 f   uafxcw:afxshelltreectrl.obj
 0001:0005d2f2       ?OnItemexpanding@CMFCShellTreeCtrl@@IAEXPAUtagNMHDR@@PAJ@Z 0045e2f2 f   uafxcw:afxshelltreectrl.obj
 0001:0005d3cc       ?OnRButtonDown@CMFCShellTreeCtrl@@IAEXIVCPoint@@@Z 0045e3cc f   uafxcw:afxshelltreectrl.obj
 0001:0005d403       ?OnShowContextMenu@CMFCShellTreeCtrl@@IAEXVCPoint@@@Z 0045e403 f   uafxcw:afxshelltreectrl.obj
 0001:0005d728       ?PreSubclassWindow@CMFCShellTreeCtrl@@MAEXXZ 0045e728 f   uafxcw:afxshelltreectrl.obj
 0001:0005d745       ?Refresh@CMFCShellTreeCtrl@@QAEXXZ 0045e745 f   uafxcw:afxshelltreectrl.obj
 0001:0005d771       ?SelectPath@CMFCShellTreeCtrl@@QAEHPBU_ITEMIDLIST@@H@Z 0045e771 f   uafxcw:afxshelltreectrl.obj
 0001:0005da10       ?WindowProc@CMFCShellTreeCtrl@@MAEJIIJ@Z 0045ea10 f   uafxcw:afxshelltreectrl.obj
 0001:0005da56       ??0?$CList@PAVCMFCButton@@PAV1@@@QAE@H@Z 0045ea56 f i uafxcw:afxvslistbox.obj
 0001:0005da7c       ??0?$CMap@HHII@@QAE@H@Z    0045ea7c f i uafxcw:afxvslistbox.obj
 0001:0005daa6       ??0CVSListBox@@QAE@XZ      0045eaa6 f   uafxcw:afxvslistbox.obj
 0001:0005dafa       ??0CVSListBoxBase@@IAE@XZ  0045eafa f   uafxcw:afxvslistbox.obj
 0001:0005dbb1       ??0CVSListBoxEditCtrl@@QAE@XZ 0045ebb1 f   uafxcw:afxvslistbox.obj
 0001:0005dbd9       ??1?$CMap@HHII@@UAE@XZ     0045ebd9 f i uafxcw:afxvslistbox.obj
 0001:0005dc18       ??1CVSListBox@@UAE@XZ      0045ec18 f   uafxcw:afxvslistbox.obj
 0001:0005dc5b       ??1CVSListBoxBase@@UAE@XZ  0045ec5b f   uafxcw:afxvslistbox.obj
 0001:0005dd38       ??A?$CMap@HHHH@@QAEAAHH@Z  0045ed38 f i uafxcw:afxheaderctrl.obj
 0001:0005dd38       ??A?$CMap@HHII@@QAEAAIH@Z  0045ed38 f i uafxcw:afxvslistbox.obj
 0001:0005dd38       ??A?$CMap@IIHH@@QAEAAHI@Z  0045ed38 f i uafxcw:afxtoolbarimages.obj
 0001:0005dd38       ??A?$CMap@IIII@@QAEAAII@Z  0045ed38 f i uafxcw:afxpopupmenubar.obj
 0001:0005dd38       ??A?$CMap@IIKK@@QAEAAKI@Z  0045ed38 f i uafxcw:afxcolorbar.obj
 0001:0005dd38       ??A?$CMap@IIPAUHICON__@@PAU1@@@QAEAAPAUHICON__@@I@Z 0045ed38 f i uafxcw:afxtabctrl.obj
 0001:0005dd38       ??A?$CMap@IIPAUHWND__@@PAU1@@@QAEAAPAUHWND__@@I@Z 0045ed38 f i uafxcw:afxpaneframewnd.obj
 0001:0005dd38       ??A?$CMap@IIPAVCMFCRibbonStatusBarPane@@PAV1@@@QAEAAPAVCMFCRibbonStatusBarPane@@I@Z 0045ed38 f i uafxcw:afxribbonstatusbarpane.obj
 0001:0005dd38       ??A?$CMap@IIPAVCPane@@PAV1@@@QAEAAPAVCPane@@I@Z 0045ed38 f i uafxcw:afxdockingmanager.obj
 0001:0005dd38       ??A?$CMap@PAUHICON__@@PAU1@HH@@QAEAAHPAUHICON__@@@Z 0045ed38 f i uafxcw:afxbasetabctrl.obj
 0001:0005dd38       ??A?$CMap@PAUHWND__@@PAU1@HH@@QAEAAHPAUHWND__@@@Z 0045ed38 f i uafxcw:afxvisualmanageroffice2007.obj
 0001:0005dd38       ??A?$CMap@PAVCWnd@@PAV1@PAVCImageList@@PAV2@@@QAEAAPAVCImageList@@PAVCWnd@@@Z 0045ed38 f i uafxcw:afxmdiclientareawnd.obj
 0001:0005dd9f       ??_E?$CList@PAVCMFCButton@@PAV1@@@UAEPAXI@Z 0045ed9f f i uafxcw:afxvslistbox.obj
 0001:0005dd9f       ??_G?$CList@PAVCMFCButton@@PAV1@@@UAEPAXI@Z 0045ed9f f i uafxcw:afxvslistbox.obj
 0001:0005de08       ??_E?$CMap@HHII@@UAEPAXI@Z 0045ee08 f i uafxcw:afxvslistbox.obj
 0001:0005de08       ??_G?$CMap@HHII@@UAEPAXI@Z 0045ee08 f i uafxcw:afxvslistbox.obj
 0001:0005de71       ??_ECVSListBox@@UAEPAXI@Z  0045ee71 f i uafxcw:afxvslistbox.obj
 0001:0005de71       ??_GCVSListBox@@UAEPAXI@Z  0045ee71 f i uafxcw:afxvslistbox.obj
 0001:0005dea4       ??_ECVSListBoxBase@@UAEPAXI@Z 0045eea4 f i uafxcw:afxvslistbox.obj
 0001:0005dea4       ??_GCVSListBoxBase@@UAEPAXI@Z 0045eea4 f i uafxcw:afxvslistbox.obj
 0001:0005ded7       ??_ECVSListBoxEditCtrl@@UAEPAXI@Z 0045eed7 f i uafxcw:afxvslistbox.obj
 0001:0005ded7       ??_GCVSListBoxEditCtrl@@UAEPAXI@Z 0045eed7 f i uafxcw:afxvslistbox.obj
 0001:0005df10       ?AddButton@CVSListBoxBase@@QAEHIPB_WGEI@Z 0045ef10 f   uafxcw:afxvslistbox.obj
 0001:0005e152       ?AddItem@CVSListBox@@UAEHABV?$CStringT@_WV?$StrTraitMFC@_WV?$ChTraitsCRT@_W@ATL@@@@@ATL@@KH@Z 0045f152 f   uafxcw:afxvslistbox.obj
 0001:0005e1de       ?AdjustLayout@CVSListBoxBase@@IAEXXZ 0045f1de f   uafxcw:afxvslistbox.obj
 0001:0005e3b0       ?CreateNewItem@CVSListBoxBase@@MAEXXZ 0045f3b0 f   uafxcw:afxvslistbox.obj
 0001:0005e421       ?EditItem@CVSListBox@@UAEHH@Z 0045f421 f   uafxcw:afxvslistbox.obj
 0001:0005e540       ?EditLabel@CListCtrl@@QAEPAVCEdit@@H@Z 0045f540 f i uafxcw:afxvslistbox.obj
 0001:0005e560       ?GetButtonID@CVSListBoxBase@@QBEIH@Z 0045f560 f   uafxcw:afxvslistbox.obj
 0001:0005e581       ?GetButtonNum@CVSListBoxBase@@QBEHI@Z 0045f581 f   uafxcw:afxvslistbox.obj
 0001:0005e5d9       ?GetCount@CVSListBox@@UBEHXZ 0045f5d9 f   uafxcw:afxvslistbox.obj
 0001:0005e604       ?GetEditControl@CListCtrl@@QBEPAVCEdit@@XZ 0045f604 f i uafxcw:afxvslistbox.obj
 0001:0005e61d       ?GetItemData@CVSListBox@@UBEKH@Z 0045f61d f   uafxcw:afxvslistbox.obj
 0001:0005e640       ?GetItemText@CVSListBox@@UBE?AV?$CStringT@_WV?$StrTraitMFC@_WV?$ChTraitsCRT@_W@ATL@@@@@ATL@@H@Z 0045f640 f   uafxcw:afxvslistbox.obj
 0001:0005e67b       ?GetListHwnd@CVSListBox@@MBEPAUHWND__@@XZ 0045f67b f i uafxcw:afxvslistbox.obj
 0001:0005e68a       ?GetMessageMap@CVSListBox@@MBEPBUAFX_MSGMAP@@XZ 0045f68a f   uafxcw:afxvslistbox.obj
 0001:0005e690       ?GetMessageMap@CVSListBoxBase@@MBEPBUAFX_MSGMAP@@XZ 0045f690 f   uafxcw:afxvslistbox.obj
 0001:0005e690       ?GetThisMessageMap@CVSListBoxBase@@KGPBUAFX_MSGMAP@@XZ 0045f690 f   uafxcw:afxvslistbox.obj
 0001:0005e696       ?GetMessageMap@CVSListBoxEditCtrl@@MBEPBUAFX_MSGMAP@@XZ 0045f696 f   uafxcw:afxvslistbox.obj
 0001:0005e69c       ?GetNextAssoc@?$CMap@HHII@@QBEXAAPAU__POSITION@@AAHAAI@Z 0045f69c f i uafxcw:afxvslistbox.obj
 0001:0005e69c       ?GetNextAssoc@?$CMap@IIHH@@QBEXAAPAU__POSITION@@AAIAAH@Z 0045f69c f i uafxcw:afxtoolbar.obj
 0001:0005e69c       ?GetNextAssoc@?$CMap@IIPAUHMENU__@@PAU1@@@QBEXAAPAU__POSITION@@AAIAAPAUHMENU__@@@Z 0045f69c f i uafxcw:afxcontextmenumanager.obj
 0001:0005e69c       ?GetNextAssoc@?$CMap@IIPAUHWND__@@PAU1@@@QBEXAAPAU__POSITION@@AAIAAPAUHWND__@@@Z 0045f69c f i uafxcw:afxpaneframewnd.obj
 0001:0005e69c       ?GetNextAssoc@?$CMap@PAVCWnd@@PAV1@PAVCImageList@@PAV2@@@QBEXAAPAU__POSITION@@AAPAVCWnd@@AAPAVCImageList@@@Z 0045f69c f i uafxcw:afxmdiclientareawnd.obj
 0001:0005e71d       ?GetRuntimeClass@CVSListBox@@UBEPAUCRuntimeClass@@XZ 0045f71d f   uafxcw:afxvslistbox.obj
 0001:0005e723       ?GetRuntimeClass@CVSListBoxBase@@UBEPAUCRuntimeClass@@XZ 0045f723 f   uafxcw:afxvslistbox.obj
 0001:0005e729       ?GetRuntimeClass@CVSListBoxEditCtrl@@UBEPAUCRuntimeClass@@XZ 0045f729 f   uafxcw:afxvslistbox.obj
 0001:0005e72f       ?GetSelItem@CVSListBox@@UBEHXZ 0045f72f f   uafxcw:afxvslistbox.obj
 0001:0005e75a       ?Init@CVSListBoxBase@@IAEXXZ 0045f75a f   uafxcw:afxvslistbox.obj
 0001:0005e78d       ?Lookup@?$CMap@HHHH@@QBEHHAAH@Z 0045f78d f i uafxcw:afxheaderctrl.obj
 0001:0005e78d       ?Lookup@?$CMap@HHII@@QBEHHAAI@Z 0045f78d f i uafxcw:afxvslistbox.obj
 0001:0005e78d       ?Lookup@?$CMap@IIHH@@QBEHIAAH@Z 0045f78d f i uafxcw:afxtoolbarimages.obj
 0001:0005e78d       ?Lookup@?$CMap@IIII@@QBEHIAAI@Z 0045f78d f i uafxcw:afxpopupmenubar.obj
 0001:0005e78d       ?Lookup@?$CMap@IIPAUHICON__@@PAU1@@@QBEHIAAPAUHICON__@@@Z 0045f78d f i uafxcw:afxtabctrl.obj
 0001:0005e78d       ?Lookup@?$CMap@IIPAUHWND__@@PAU1@@@QBEHIAAPAUHWND__@@@Z 0045f78d f i uafxcw:afxpaneframewnd.obj
 0001:0005e78d       ?Lookup@?$CMap@IIPAVCPane@@PAV1@@@QBEHIAAPAVCPane@@@Z 0045f78d f i uafxcw:afxdockingmanager.obj
 0001:0005e78d       ?Lookup@?$CMap@PAUHICON__@@PAU1@HH@@QBEHPAUHICON__@@AAH@Z 0045f78d f i uafxcw:afxmdiclientareawnd.obj
 0001:0005e78d       ?Lookup@?$CMap@PAUHWND__@@PAU1@HH@@QBEHPAUHWND__@@AAH@Z 0045f78d f i uafxcw:afxvisualmanageroffice2007.obj
 0001:0005e78d       ?Lookup@?$CMap@PAVCWnd@@PAV1@PAVCImageList@@PAV2@@@QBEHPAVCWnd@@AAPAVCImageList@@@Z 0045f78d f i uafxcw:afxmdiclientareawnd.obj
 0001:0005e7b5       ?NewAssoc@?$CMap@HHHH@@IAEPAVCAssoc@1@H@Z 0045f7b5 f i uafxcw:afxheaderctrl.obj
 0001:0005e7b5       ?NewAssoc@?$CMap@HHII@@IAEPAVCAssoc@1@H@Z 0045f7b5 f i uafxcw:afxvslistbox.obj
 0001:0005e7b5       ?NewAssoc@?$CMap@IIHH@@IAEPAVCAssoc@1@I@Z 0045f7b5 f i uafxcw:afxtoolbarimages.obj
 0001:0005e7b5       ?NewAssoc@?$CMap@IIII@@IAEPAVCAssoc@1@I@Z 0045f7b5 f i uafxcw:afxpopupmenubar.obj
 0001:0005e7b5       ?NewAssoc@?$CMap@IIKK@@IAEPAVCAssoc@1@I@Z 0045f7b5 f i uafxcw:afxcolorbar.obj
 0001:0005e7b5       ?NewAssoc@?$CMap@IIPAUHICON__@@PAU1@@@IAEPAVCAssoc@1@I@Z 0045f7b5 f i uafxcw:afxtabctrl.obj
 0001:0005e7b5       ?NewAssoc@?$CMap@IIPAUHWND__@@PAU1@@@IAEPAVCAssoc@1@I@Z 0045f7b5 f i uafxcw:afxpaneframewnd.obj
 0001:0005e7b5       ?NewAssoc@?$CMap@IIPAVCMFCRibbonStatusBarPane@@PAV1@@@IAEPAVCAssoc@1@I@Z 0045f7b5 f i uafxcw:afxribbonstatusbarpane.obj
 0001:0005e7b5       ?NewAssoc@?$CMap@IIPAVCPane@@PAV1@@@IAEPAVCAssoc@1@I@Z 0045f7b5 f i uafxcw:afxdockingmanager.obj
 0001:0005e7b5       ?NewAssoc@?$CMap@PAUHICON__@@PAU1@HH@@IAEPAVCAssoc@1@PAUHICON__@@@Z 0045f7b5 f i uafxcw:afxbasetabctrl.obj
 0001:0005e7b5       ?NewAssoc@?$CMap@PAUHWND__@@PAU1@HH@@IAEPAVCAssoc@1@PAUHWND__@@@Z 0045f7b5 f i uafxcw:afxvisualmanageroffice2007.obj
 0001:0005e7b5       ?NewAssoc@?$CMap@PAVCWnd@@PAV1@PAVCImageList@@PAV2@@@IAEPAVCAssoc@1@PAVCWnd@@@Z 0045f7b5 f i uafxcw:afxmdiclientareawnd.obj
 0001:0005e82e       ?OnBrowse@CVSListBoxEditCtrl@@MAEXXZ 0045f82e f i uafxcw:afxvslistbox.obj
 0001:0005e868       ?OnClickButton@CVSListBoxBase@@UAEXH@Z 0045f868 f   uafxcw:afxvslistbox.obj
 0001:0005ea67       ?OnCommand@CVSListBoxBase@@MAEHIJ@Z 0045fa67 f   uafxcw:afxvslistbox.obj
 0001:0005eae6       ?OnCreate@CVSListBoxBase@@IAEHPAUtagCREATESTRUCTW@@@Z 0045fae6 f   uafxcw:afxvslistbox.obj
 0001:0005eb04       ?OnCreateList@CVSListBox@@MAEPAVCWnd@@XZ 0045fb04 f   uafxcw:afxvslistbox.obj
 0001:0005ebd9       ?OnDblclkList@CVSListBox@@IAEXPAUtagNMHDR@@PAJ@Z 0045fbd9 f   uafxcw:afxvslistbox.obj
 0001:0005ec3f       ?OnEnable@CVSListBoxBase@@IAEXH@Z 0045fc3f f   uafxcw:afxvslistbox.obj
 0001:0005ecc1       ?OnEndEditLabel@CVSListBoxBase@@UAEXPB_W@Z 0045fcc1 f   uafxcw:afxvslistbox.obj
 0001:0005ed7c       ?OnEndLabelEdit@CVSListBox@@IAEXPAUtagNMHDR@@PAJ@Z 0045fd7c f   uafxcw:afxvslistbox.obj
 0001:0005edd6       ?OnGetDlgCode@CVSListBoxBase@@IAEIXZ 0045fdd6 f   uafxcw:afxvslistbox.obj
 0001:0005edda       ?OnGetFont@CVSListBoxBase@@IAEPAUHFONT__@@XZ 0045fdda f   uafxcw:afxvslistbox.obj
 0001:0005ede9       ?OnGetImage@CVSListBoxBase@@UAEHPAUtagLVITEMW@@@Z 0045fde9 f i uafxcw:afxvslistbox.obj
 0001:0005edef       ?OnGetdispinfo@CVSListBox@@IAEXPAUtagNMHDR@@PAJ@Z 0045fdef f   uafxcw:afxvslistbox.obj
 0001:0005ee33       ?OnInitControl@CVSListBox@@IAEJIJ@Z 0045fe33 f   uafxcw:afxvslistbox.obj
 0001:0005ef7c       ?OnItemChanged@CVSListBox@@IAEXPAUtagNMHDR@@PAJ@Z 0045ff7c f   uafxcw:afxvslistbox.obj
 0001:0005efc0       ?OnKey@CVSListBoxBase@@UAEXGE@Z 0045ffc0 f   uafxcw:afxvslistbox.obj
 0001:0005f022       ?OnKeyDown@CVSListBox@@IAEXPAUtagNMHDR@@PAJ@Z 00460022 f   uafxcw:afxvslistbox.obj
 0001:0005f0df       ?OnKeyDown@CVSListBoxEditCtrl@@IAEXIII@Z 004600df f   uafxcw:afxvslistbox.obj
 0001:0005f143       ?OnNcCalcSize@CVSListBoxEditCtrl@@IAEXHPAUtagNCCALCSIZE_PARAMS@@@Z 00460143 f   uafxcw:afxvslistbox.obj
 0001:0005f159       ?OnPaint@CVSListBoxBase@@IAEXXZ 00460159 f   uafxcw:afxvslistbox.obj
 0001:0005f2bc       ?OnSetFocus@CVSListBoxBase@@IAEXPAVCWnd@@@Z 004602bc f   uafxcw:afxvslistbox.obj
 0001:0005f2ea       ?OnSetFont@CVSListBoxBase@@IAEXPAVCFont@@H@Z 004602ea f   uafxcw:afxvslistbox.obj
 0001:0005f381       ?OnSetText@CVSListBoxBase@@IAEHPB_W@Z 00460381 f   uafxcw:afxvslistbox.obj
 0001:0005f3e1       ?OnSize@CVSListBoxBase@@IAEXIHH@Z 004603e1 f   uafxcw:afxvslistbox.obj
 0001:0005f3f4       ?OnSizeList@CVSListBox@@MAEXXZ 004603f4 f   uafxcw:afxvslistbox.obj
 0001:0005f47a       ?OnWindowPosChanging@CVSListBoxEditCtrl@@IAEXPAUtagWINDOWPOS@@@Z 0046047a f   uafxcw:afxvslistbox.obj
 0001:0005f496       ?PreSubclassWindow@CVSListBoxBase@@MAEXXZ 00460496 f   uafxcw:afxvslistbox.obj
 0001:0005f4b3       ?PreTranslateMessage@CVSListBox@@UAEHPAUtagMSG@@@Z 004604b3 f   uafxcw:afxvslistbox.obj
 0001:0005f6a0       ?RemoveItem@CVSListBox@@UAEHH@Z 004606a0 f   uafxcw:afxvslistbox.obj
 0001:0005f75a       ?SelectItem@CVSListBox@@UAEHH@Z 0046075a f   uafxcw:afxvslistbox.obj
 0001:0005f7a6       ?Serialize@?$CMap@HHHH@@UAEXAAVCArchive@@@Z 004607a6 f i uafxcw:afxheaderctrl.obj
 0001:0005f7a6       ?Serialize@?$CMap@HHII@@UAEXAAVCArchive@@@Z 004607a6 f i uafxcw:afxvslistbox.obj
 0001:0005f7a6       ?Serialize@?$CMap@IIHH@@UAEXAAVCArchive@@@Z 004607a6 f i uafxcw:afxtoolbarimages.obj
 0001:0005f7a6       ?Serialize@?$CMap@IIII@@UAEXAAVCArchive@@@Z 004607a6 f i uafxcw:afxpopupmenubar.obj
 0001:0005f7a6       ?Serialize@?$CMap@IIPAUHICON__@@PAU1@@@UAEXAAVCArchive@@@Z 004607a6 f i uafxcw:afxtabctrl.obj
 0001:0005f7a6       ?Serialize@?$CMap@IIPAUHWND__@@PAU1@@@UAEXAAVCArchive@@@Z 004607a6 f i uafxcw:afxpaneframewnd.obj
 0001:0005f7a6       ?Serialize@?$CMap@IIPAVCMFCRibbonStatusBarPane@@PAV1@@@UAEXAAVCArchive@@@Z 004607a6 f i uafxcw:afxribbonstatusbarpane.obj
 0001:0005f7a6       ?Serialize@?$CMap@IIPAVCPane@@PAV1@@@UAEXAAVCArchive@@@Z 004607a6 f i uafxcw:afxdockingmanager.obj
 0001:0005f7a6       ?Serialize@?$CMap@PAUHICON__@@PAU1@HH@@UAEXAAVCArchive@@@Z 004607a6 f i uafxcw:afxbasetabctrl.obj
 0001:0005f7a6       ?Serialize@?$CMap@PAUHWND__@@PAU1@HH@@UAEXAAVCArchive@@@Z 004607a6 f i uafxcw:afxvisualmanageroffice2007.obj
 0001:0005f7a6       ?Serialize@?$CMap@PAVCWnd@@PAV1@PAVCImageList@@PAV2@@@UAEXAAVCArchive@@@Z 004607a6 f i uafxcw:afxmdiclientareawnd.obj
 0001:0005f851       ?SetItemData@CVSListBox@@UAEXHK@Z 00460851 f   uafxcw:afxvslistbox.obj
 0001:0005f880       ?SetItemText@CVSListBox@@MAEXHABV?$CStringT@_WV?$StrTraitMFC@_WV?$ChTraitsCRT@_W@ATL@@@@@ATL@@@Z 00460880 f   uafxcw:afxvslistbox.obj
 0001:0005f8aa       ?SetStandardButtons@CVSListBoxBase@@QAEHI@Z 004608aa f   uafxcw:afxvslistbox.obj
 0001:0005fa25       ??0AFX_GLOBAL_DATA@@QAE@XZ 00460a25 f   uafxcw:afxglobals.obj
 0001:0005fc22       ??0CMemDC@@QAE@AAVCDC@@PAVCWnd@@@Z 00460c22 f   uafxcw:afxglobals.obj
 0001:0005fd73       ??0CPen@@QAE@XZ            00460d73 f i uafxcw:afxglobals.obj
 0001:0005fd88       ??1AFX_GLOBAL_DATA@@QAE@XZ 00460d88 f   uafxcw:afxglobals.obj
 0001:0005fee7       ??1CMemDC@@UAE@XZ          00460ee7 f   uafxcw:afxglobals.obj
 0001:00060001       ??_ECMemDC@@UAEPAXI@Z      00461001 f i uafxcw:afxglobals.obj
 0001:00060001       ??_GCMemDC@@UAEPAXI@Z      00461001 f i uafxcw:afxglobals.obj
 0001:00060023       ?AFXGetParentFrame@@YAPAVCFrameWnd@@PBVCWnd@@@Z 00461023 f   uafxcw:afxglobals.obj
 0001:00060095       ?AfxIsExtendedFrameClass@@YGHPAVCWnd@@@Z 00461095 f   uafxcw:afxglobals.obj
 0001:00060102       ?CleanUp@AFX_GLOBAL_DATA@@QAEXXZ 00461102 f   uafxcw:afxglobals.obj
 0001:00060192       ?CreateDitherBitmap@AFX_GLOBAL_DATA@@IAEPAUHBITMAP__@@PAUHDC__@@@Z 00461192 f   uafxcw:afxglobals.obj
 0001:00060266       ?CreatePen@CPen@@QAEHHHK@Z 00461266 f i uafxcw:afxglobals.obj
 0001:00060288       ?Delete@?$CStringT@_WV?$StrTraitMFC@_WV?$ChTraitsCRT@_W@ATL@@@@@ATL@@QAEHHH@Z 00461288 f i uafxcw:afxglobals.obj
 0001:0006030a       ?DrawParentBackground@AFX_GLOBAL_DATA@@QAEHPAVCWnd@@PAVCDC@@PAUtagRECT@@@Z 0046130a f   uafxcw:afxglobals.obj
 0001:0006040d       ?DrawTextOnGlass@AFX_GLOBAL_DATA@@QAEHPAXPAVCDC@@HHV?$CStringT@_WV?$StrTraitMFC@_WV?$ChTraitsCRT@_W@ATL@@@@@ATL@@VCRect@@KHK@Z 0046140d f   uafxcw:afxglobals.obj
 0001:00060579       ?GetColor@AFX_GLOBAL_DATA@@QAEKH@Z 00461579 f   uafxcw:afxglobals.obj
 0001:00060659       ?GetHandCursor@AFX_GLOBAL_DATA@@QAEPAUHICON__@@XZ 00461659 f   uafxcw:afxglobals.obj
 0001:00060680       ?GetITaskbarList3@AFX_GLOBAL_DATA@@QAEPAUITaskbarList3@@XZ 00461680 f   uafxcw:afxglobals.obj
 0001:00060693       ?GetNonClientMetrics@AFX_GLOBAL_DATA@@QAEHAAUtagNONCLIENTMETRICSW@@@Z 00461693 f   uafxcw:afxglobals.obj
 0001:0006073c       ?Initialize@AFX_GLOBAL_DATA@@QAEXXZ 0046173c f   uafxcw:afxglobals.obj
 0001:000607f9       ?IsDwmCompositionEnabled@AFX_GLOBAL_DATA@@QAEHXZ 004617f9 f   uafxcw:afxglobals.obj
 0001:00060821       ?OnSettingChange@AFX_GLOBAL_DATA@@QAEXXZ 00461821 f   uafxcw:afxglobals.obj
 0001:000608ed       ?RegisterWindowClass@AFX_GLOBAL_DATA@@QAE?AV?$CStringT@_WV?$StrTraitMFC@_WV?$ChTraitsCRT@_W@ATL@@@@@ATL@@PB_W@Z 004618ed f   uafxcw:afxglobals.obj
 0001:000609ae       ?Replace@?$CStringT@_WV?$StrTraitMFC@_WV?$ChTraitsCRT@_W@ATL@@@@@ATL@@QAEHPB_W0@Z 004619ae f i uafxcw:afxglobals.obj
 0001:00060b45       ?ResetCheckCompositionFlag@AFX_GLOBAL_DATA@@QAEXXZ 00461b45 f   uafxcw:afxglobals.obj
 0001:00060b4d       ?Resume@AFX_GLOBAL_DATA@@QAEHXZ 00461b4d f   uafxcw:afxglobals.obj
 0001:00060b8e       ?SetLayeredAttrib@AFX_GLOBAL_DATA@@QAEHPAUHWND__@@KEK@Z 00461b8e f   uafxcw:afxglobals.obj
 0001:00060b98       ?UpdateFonts@AFX_GLOBAL_DATA@@QAEXXZ 00461b98 f   uafxcw:afxglobals.obj
 0001:000610c9       ?UpdateSysColors@AFX_GLOBAL_DATA@@QAEXXZ 004620c9 f   uafxcw:afxglobals.obj
 0001:000614e7       ?UpdateTextMetrics@AFX_GLOBAL_DATA@@IAEXXZ 004624e7 f   uafxcw:afxglobals.obj
 0001:000615ac       ?Filter_Box@@YANN@Z        004625ac f i uafxcw:afxtoolbarimages.obj
 0001:000615da       ?Filter_Bilinear@@YANN@Z   004625da f i uafxcw:afxtoolbarimages.obj
 0001:00061604       ?Filter_Bicubic@@YANN@Z    00462604 f i uafxcw:afxtoolbarimages.obj
 0001:0006163c       ?Filter_Bell@@YANN@Z       0046263c f i uafxcw:afxtoolbarimages.obj
 0001:00061691       ?Filter_BSpline@@YANN@Z    00462691 f i uafxcw:afxtoolbarimages.obj
 0001:000616f0       ?Filter_Lanczos3@@YANN@Z   004626f0 f i uafxcw:afxtoolbarimages.obj
 0001:00061744       ?Filter_Mitchell@@YANN@Z   00462744 f i uafxcw:afxtoolbarimages.obj
 0001:000617c5       ??0?$CList@II@@QAE@H@Z     004627c5 f i uafxcw:afxtoolbarimages.obj
 0001:000617eb       ??0?$CList@PAUHINSTANCE__@@PAU1@@@QAE@H@Z 004627eb f i uafxcw:afxtoolbarimages.obj
 0001:00061811       ??0?$CMap@IIHH@@QAE@H@Z    00462811 f i uafxcw:afxtoolbarimages.obj
 0001:0006183b       ??0Bitmap@Gdiplus@@QAE@HHHHPAE@Z 0046283b f i uafxcw:afxtoolbarimages.obj
 0001:00061877       ??0CCriticalSection@@QAE@XZ 00462877 f i uafxcw:afxtoolbarimages.obj
 0001:000618b3       ??0CMFCToolBarImages@@QAE@H@Z 004628b3 f   uafxcw:afxtoolbarimages.obj
 0001:00061964       ??0CMFCToolBarImages@@QAE@XZ 00462964 f   uafxcw:afxtoolbarimages.obj
 0001:00061a11       ??0CPngImage@@QAE@XZ       00462a11 f   uafxcw:afxtoolbarimages.obj
 0001:00061a26       ??0Graphics@Gdiplus@@QAE@PAVImage@1@@Z 00462a26 f i uafxcw:afxtoolbarimages.obj
 0001:00061a54       ??1?$CList@II@@UAE@XZ      00462a54 f i uafxcw:afxtoolbarimages.obj
 0001:00061a93       ??1?$CList@PAUHINSTANCE__@@PAU1@@@UAE@XZ 00462a93 f i uafxcw:afxtoolbarimages.obj
 0001:00061ad2       ??1?$CMap@IIHH@@UAE@XZ     00462ad2 f i uafxcw:afxtoolbarimages.obj
 0001:00061b11       ??1CCriticalSection@@UAE@XZ 00462b11 f i uafxcw:afxtoolbarimages.obj
 0001:00061b2c       ??1CMFCScanlinerBitmap@@QAE@XZ 00462b2c f i uafxcw:afxtoolbarimages.obj
 0001:00061b31       ??1CMFCToolBarImages@@UAE@XZ 00462b31 f   uafxcw:afxtoolbarimages.obj
 0001:00061c3c       ??1CMFCZoomKernel@@UAE@XZ  00462c3c f   uafxcw:afxtoolbarimages.obj
 0001:00061c47       ??_E?$CList@II@@UAEPAXI@Z  00462c47 f i uafxcw:afxtoolbarimages.obj
 0001:00061c47       ??_G?$CList@II@@UAEPAXI@Z  00462c47 f i uafxcw:afxtoolbarimages.obj
 0001:00061cb0       ??_E?$CList@PAUHINSTANCE__@@PAU1@@@UAEPAXI@Z 00462cb0 f i uafxcw:afxtoolbarimages.obj
 0001:00061cb0       ??_G?$CList@PAUHINSTANCE__@@PAU1@@@UAEPAXI@Z 00462cb0 f i uafxcw:afxtoolbarimages.obj
 0001:00061d19       ??_E?$CMap@IIHH@@UAEPAXI@Z 00462d19 f i uafxcw:afxtoolbarimages.obj
 0001:00061d19       ??_G?$CMap@IIHH@@UAEPAXI@Z 00462d19 f i uafxcw:afxtoolbarimages.obj
 0001:00061d82       ??_EBitmap@Gdiplus@@UAEPAXI@Z 00462d82 f i uafxcw:afxtoolbarimages.obj
 0001:00061d82       ??_EImage@Gdiplus@@UAEPAXI@Z 00462d82 f i uafxcw:afxtoolbarimages.obj
 0001:00061d82       ??_GBitmap@Gdiplus@@UAEPAXI@Z 00462d82 f i uafxcw:afxtoolbarimages.obj
 0001:00061d82       ??_GImage@Gdiplus@@UAEPAXI@Z 00462d82 f i uafxcw:afxtoolbarimages.obj
 0001:00061dbb       ??_ECCriticalSection@@UAEPAXI@Z 00462dbb f i uafxcw:afxtoolbarimages.obj
 0001:00061dbb       ??_GCCriticalSection@@UAEPAXI@Z 00462dbb f i uafxcw:afxtoolbarimages.obj
 0001:00061deb       ??_ECMFCToolBarImages@@UAEPAXI@Z 00462deb f i uafxcw:afxtoolbarimages.obj
 0001:00061deb       ??_GCMFCToolBarImages@@UAEPAXI@Z 00462deb f i uafxcw:afxtoolbarimages.obj
 0001:00061e1e       ??_ECMFCZoomKernel@@UAEPAXI@Z 00462e1e f i uafxcw:afxtoolbarimages.obj
 0001:00061e1e       ??_GCMFCZoomKernel@@UAEPAXI@Z 00462e1e f i uafxcw:afxtoolbarimages.obj
 0001:00061e46       ?AdaptColors@CMFCToolBarImages@@QAEXKK@Z 00462e46 f   uafxcw:afxtoolbarimages.obj
 0001:0006237a       ?AddIcon@CMFCToolBarImages@@QAEHPAUHICON__@@H@Z 0046337a f   uafxcw:afxtoolbarimages.obj
 0001:0006252c       ?AddImage@CMFCToolBarImages@@QAEHPAUHBITMAP__@@H@Z 0046352c f   uafxcw:afxtoolbarimages.obj
 0001:000628ff       ?CleanUp@CMFCToolBarImages@@SGXXZ 004638ff f   uafxcw:afxtoolbarimages.obj
 0001:00062932       ?CleanUp@CPngImage@@SGXXZ  00463932 f i uafxcw:afxtoolbarimages.obj
 0001:0006295a       ?Clear@CMFCToolBarImages@@QAEXXZ 0046395a f   uafxcw:afxtoolbarimages.obj
 0001:00062a05       ?Clone@Image@Gdiplus@@UAEPAV12@XZ 00463a05 f i uafxcw:afxtoolbarimages.obj
 0001:00062a4f       ?CommonInit@CMFCToolBarImages@@QAEXH@Z 00463a4f f   uafxcw:afxtoolbarimages.obj
 0001:00062a8c       ?CopyImageToClipboard@CMFCToolBarImages@@QAEHH@Z 00463a8c f   uafxcw:afxtoolbarimages.obj
 0001:00062c46       ?CopyTemp@CMFCToolBarImages@@IAEXAAV1@@Z 00463c46 f   uafxcw:afxtoolbarimages.obj
 0001:00062c9e       ?CopyTo@CMFCToolBarImages@@QAEHAAV1@@Z 00463c9e f   uafxcw:afxtoolbarimages.obj
 0001:00062fe3       ?Create@CMFCZoomKernel@@QAEXJJJJW4XFilterType@1@@Z 00463fe3 f   uafxcw:afxtoolbarimages.obj
 0001:00063296       ?CreateFromGdiplusBitmap@CImage@ATL@@AAEJAAVBitmap@Gdiplus@@@Z 00464296 f i uafxcw:afxtoolbarimages.obj
 0001:0006362a       ?CreateMask@CMFCToolBarImages@@IAEXHHH@Z 0046462a f   uafxcw:afxtoolbarimages.obj
 0001:00063712       ?CreateRegionFromImage@CMFCToolBarImages@@SGPAUHRGN__@@PAUHBITMAP__@@K@Z 00464712 f   uafxcw:afxtoolbarimages.obj
 0001:0006385c       ?Draw@CMFCToolBarImages@@QAEHPAVCDC@@HHHHHHHHE@Z 0046485c f   uafxcw:afxtoolbarimages.obj
 0001:00064078       ?DrawEx@CMFCToolBarImages@@QAEHPAVCDC@@VCRect@@HW4ImageAlignHorz@1@W4ImageAlignVert@1@1E@Z 00465078 f   uafxcw:afxtoolbarimages.obj
 0001:000643e2       ?DrawState@CDC@@QAEHVCPoint@@VCSize@@PAUHICON__@@IPAVCBrush@@@Z 004653e2 f i uafxcw:afxtoolbarimages.obj
 0001:0006441b       ?Empty@CMFCZoomKernel@@QAEXXZ 0046541b f   uafxcw:afxtoolbarimages.obj
 0001:0006445a       ?EnableRTL@CMFCToolBarImages@@SGXH@Z 0046545a f   uafxcw:afxtoolbarimages.obj
 0001:00064469       ?EndDrawImage@CMFCToolBarImages@@QAEXAAUtagAFXDrawState@@@Z 00465469 f   uafxcw:afxtoolbarimages.obj
 0001:00064538       ?ExtractIconW@CMFCToolBarImages@@QAEPAUHICON__@@H@Z 00465538 f   uafxcw:afxtoolbarimages.obj
 0001:00064621       ?FillDitheredRect@CMFCToolBarImages@@SGXPAVCDC@@ABVCRect@@@Z 00465621 f   uafxcw:afxtoolbarimages.obj
 0001:00064647       ?GetDC@CDCCache@CImage@ATL@@QAEPAUHDC__@@XZ 00465647 f i uafxcw:afxtoolbarimages.obj
 0001:00064662       ?GetDC@CImage@ATL@@QBEPAUHDC__@@XZ 00465662 f i uafxcw:afxtoolbarimages.obj
 0001:0006468f       ?GetHeight@Image@Gdiplus@@QAEIXZ 0046568f f i uafxcw:afxtoolbarimages.obj
 0001:000646b3       ?GetPalette@Image@Gdiplus@@QAE?AW4Status@2@PAUColorPalette@2@H@Z 004656b3 f i uafxcw:afxtoolbarimages.obj
 0001:000646d7       ?GetPaletteSize@Image@Gdiplus@@QAEHXZ 004656d7 f i uafxcw:afxtoolbarimages.obj
 0001:000646fb       ?GetPixelFormat@Image@Gdiplus@@QAEHXZ 004656fb f i uafxcw:afxtoolbarimages.obj
 0001:0006471b       ?GetWidth@Image@Gdiplus@@QAEIXZ 0046571b f i uafxcw:afxtoolbarimages.obj
 0001:0006473f       ?GrayImages@CMFCToolBarImages@@QAEHH@Z 0046573f f   uafxcw:afxtoolbarimages.obj
 0001:00064b50       ?Init@CCriticalSection@@AAEJXZ 00465b50 f i uafxcw:afxtoolbarimages.obj
 0001:00064b76       ?Init@CInitGDIPlus@CImage@ATL@@QAE_NXZ 00465b76 f i uafxcw:afxtoolbarimages.obj
 0001:00064bce       ?Initialize@CMFCToolBarImages@@QAEXXZ 00465bce f   uafxcw:afxtoolbarimages.obj
 0001:00064cb6       ?IsHighContrastMode@AFX_GLOBAL_DATA@@QBEHXZ 00465cb6 f i uafxcw:afxtoolbarimages.obj
 0001:00064ccc       ?IsScaled@CMFCToolBarImages@@QBEHXZ 00465ccc f i uafxcw:afxtoolbarimages.obj
 0001:00064ce4       ?Load@CImage@ATL@@QAEJPAUIStream@@@Z 00465ce4 f i uafxcw:afxtoolbarimages.obj
 0001:00064d4d       ?Load@CMFCToolBarImages@@QAEHIPAUHINSTANCE__@@H@Z 00465d4d f   uafxcw:afxtoolbarimages.obj
 0001:00064d64       ?Load@CMFCToolBarImages@@QAEHPB_WK@Z 00465d64 f   uafxcw:afxtoolbarimages.obj
 0001:00065204       ?Load@CPngImage@@QAEHPB_WPAUHINSTANCE__@@@Z 00466204 f   uafxcw:afxtoolbarimages.obj
 0001:00065268       ?LoadFromBuffer@CPngImage@@QAEHPAEI@Z 00466268 f   uafxcw:afxtoolbarimages.obj
 0001:00065375       ?LoadStr@CMFCToolBarImages@@QAEHPB_WPAUHINSTANCE__@@H@Z 00466375 f   uafxcw:afxtoolbarimages.obj
 0001:0006558f       ?Lock@CCriticalSection@@UAEHK@Z 0046658f f i uafxcw:afxtoolbarimages.obj
 0001:0006559f       ?MapBmpTo3dColors@CMFCToolBarImages@@KGHAAPAUHBITMAP__@@HKK@Z 0046659f f   uafxcw:afxtoolbarimages.obj
 0001:00065776       ?MapFromSysColor@CMFCToolBarImages@@SGKKH@Z 00466776 f   uafxcw:afxtoolbarimages.obj
 0001:000657f5       ?MapTo3dColors@CMFCToolBarImages@@QAEHHKK@Z 004667f5 f   uafxcw:afxtoolbarimages.obj
 0001:00065811       ?MapToSysColor@CMFCToolBarImages@@SGKKH@Z 00466811 f   uafxcw:afxtoolbarimages.obj
 0001:000658b9       ?MapToSysColorAlpha@CMFCToolBarImages@@SGKK@Z 004668b9 f   uafxcw:afxtoolbarimages.obj
 0001:0006597f       ?Mirror@CMFCToolBarImages@@QAEHXZ 0046697f f   uafxcw:afxtoolbarimages.obj
 0001:000659c4       ?MirrorBitmap@CMFCToolBarImages@@SGHAAPAUHBITMAP__@@H@Z 004669c4 f   uafxcw:afxtoolbarimages.obj
 0001:00065c6d       ?MirrorBitmapVert@CMFCToolBarImages@@SGHAAPAUHBITMAP__@@H@Z 00466c6d f   uafxcw:afxtoolbarimages.obj
 0001:00065efd       ?MirrorVert@CMFCToolBarImages@@QAEHXZ 00466efd f   uafxcw:afxtoolbarimages.obj
 0001:00065f42       ?OnSysColorChange@CMFCToolBarImages@@QAEXXZ 00466f42 f   uafxcw:afxtoolbarimages.obj
 0001:0006618b       ?PreMultiplyAlpha@CMFCToolBarImages@@SGHPAUHBITMAP__@@H@Z 0046718b f   uafxcw:afxtoolbarimages.obj
 0001:00066251       ?PrepareDrawImage@CMFCToolBarImages@@QAEHAAUtagAFXDrawState@@VCSize@@H@Z 00467251 f   uafxcw:afxtoolbarimages.obj
 0001:00066405       ?ReleaseDC@CDCCache@CImage@ATL@@QAEXPAUHDC__@@@Z 00467405 f i uafxcw:afxtoolbarimages.obj
 0001:00066427       ?ReleaseDC@CImage@ATL@@QBEXXZ 00467427 f i uafxcw:afxtoolbarimages.obj
 0001:00066451       ?SetColorTable@CImage@ATL@@QAEXIIPBUtagRGBQUAD@@@Z 00467451 f i uafxcw:afxtoolbarimages.obj
 0001:0006647a       ?SetSingleImage@CMFCToolBarImages@@QAEXXZ 0046747a f   uafxcw:afxtoolbarimages.obj
 0001:000664b4       ?SinC@@YANN@Z              004674b4 f i uafxcw:afxtoolbarimages.obj
 0001:000664e7       ?SmoothResize@CMFCToolBarImages@@QAEHN@Z 004674e7 f   uafxcw:afxtoolbarimages.obj
 0001:00066b54       ?TransparentBlt@CMFCToolBarImages@@KGXPAUHDC__@@HHHHPAVCDC@@HHKHH@Z 00467b54 f   uafxcw:afxtoolbarimages.obj
 0001:00066dde       ?Unlock@CCriticalSection@@UAEHXZ 00467dde f i uafxcw:afxtoolbarimages.obj
 0001:00066dec       ?UpdateCount@CMFCToolBarImages@@IAEXXZ 00467dec f   uafxcw:afxtoolbarimages.obj
 0001:00066e21       ?UpdateImage@CMFCToolBarImages@@QAEHHPAUHBITMAP__@@@Z 00467e21 f   uafxcw:afxtoolbarimages.obj
 0001:00066f60       ?_begin@CMFCScanliner@@IBEPAEPAE@Z 00467f60 f i uafxcw:afxtoolbarimages.obj
 0001:00066f92       ?_end@CMFCScanliner@@IBEPAEPAE@Z 00467f92 f i uafxcw:afxtoolbarimages.obj
 0001:00066fca       ?attach@CMFCScanliner@@QAEXPAEABVCRect@@IIEH@Z 00467fca f i uafxcw:afxtoolbarimages.obj
 0001:0006705d       ?attach@CMFCScanliner@@QAEXPAEABVCSize@@IIEH@Z 0046805d f i uafxcw:afxtoolbarimages.obj
 0001:00067095       ?attach@CMFCScanlinerBitmap@@QAEXPAUHBITMAP__@@ABVCPoint@@@Z 00468095 f i uafxcw:afxtoolbarimages.obj
 0001:00067185       ?empty@CMFCScanliner@@IAEXXZ 00468185 f i uafxcw:afxtoolbarimages.obj
 0001:000671a5       _IsolationAwareImageList_GetImageCount@4 004681a5 f i uafxcw:afxtoolbarimages.obj
 0001:00067274       ??0CDialogImpl@@IAE@AAVCWnd@@@Z 00468274 f   uafxcw:afxdialogimpl.obj
 0001:00067289       ??1CDialogImpl@@MAE@XZ     00468289 f   uafxcw:afxdialogimpl.obj
 0001:00067290       ??_ECDialogImpl@@MAEPAXI@Z 00468290 f i uafxcw:afxdialogimpl.obj
 0001:00067290       ??_GCDialogImpl@@MAEPAXI@Z 00468290 f i uafxcw:afxdialogimpl.obj
 0001:000672b3       ?DialogMouseHookProc@CDialogImpl@@KGJHIJ@Z 004682b3 f   uafxcw:afxdialogimpl.obj
 0001:00067370       ?OnActivate@CDialogImpl@@IAEXIPAVCWnd@@@Z 00468370 f   uafxcw:afxdialogimpl.obj
 0001:000673d5       ?OnCommand@CDialogImpl@@IAEHIJ@Z 004683d5 f   uafxcw:afxdialogimpl.obj
 0001:00067432       ?OnDestroy@CDialogImpl@@IAEXXZ 00468432 f   uafxcw:afxdialogimpl.obj
 0001:00067466       ?OnNcActivate@CDialogImpl@@IAEXAAH@Z 00468466 f   uafxcw:afxdialogimpl.obj
 0001:0006748f       ?PreTranslateMessage@CDialogImpl@@IAEHPAUtagMSG@@@Z 0046848f f   uafxcw:afxdialogimpl.obj
 0001:00067659       ?ProcessMouseClick@CDialogImpl@@IAEHUtagPOINT@@@Z 00468659 f   uafxcw:afxdialogimpl.obj
 0001:00067841       ?ProcessMouseMove@CDialogImpl@@IAEHUtagPOINT@@@Z 00468841 f   uafxcw:afxdialogimpl.obj
 0001:000678e6       ?SetActiveMenu@CDialogImpl@@IAEXPAVCMFCPopupMenu@@@Z 004688e6 f   uafxcw:afxdialogimpl.obj
 0001:00067941       ??0CAccessibilityData@@QAE@XZ 00468941 f i uafxcw:afxbasepane.obj
 0001:00067998       ??0CBasePane@@QAE@XZ       00468998 f   uafxcw:afxbasepane.obj
 0001:00067a4f       ??1CAccessibilityData@@QAE@XZ 00468a4f f i uafxcw:afxbasepane.obj
 0001:00067a93       ??1CBasePane@@UAE@XZ       00468a93 f   uafxcw:afxbasepane.obj
 0001:00067aaf       ??1CSettingsStoreSP@@QAE@XZ 00468aaf f i uafxcw:afxbasepane.obj
 0001:00067acd       ??_ECBasePane@@UAEPAXI@Z   00468acd f i uafxcw:afxbasepane.obj
 0001:00067acd       ??_GCBasePane@@UAEPAXI@Z   00468acd f i uafxcw:afxbasepane.obj
 0001:00067b00       ?AddPane@CBasePane@@QAEXPAV1@@Z 00468b00 f   uafxcw:afxbasepane.obj
 0001:00067be3       ?AdjustDockingLayout@CBasePane@@UAEXPAX@Z 00468be3 f   uafxcw:afxbasepane.obj
 0001:00067cf1       ?CanBeClosed@CBasePane@@UBEHXZ 00468cf1 f i uafxcw:afxbasepane.obj
 0001:00067cfb       ?CanFloat@CBasePane@@UBEHXZ 00468cfb f   uafxcw:afxbasepane.obj
 0001:00067d7f       ?Clear@CAccessibilityData@@QAEXXZ 00468d7f f i uafxcw:afxbasepane.obj
 0001:00067dea       ?CopyState@CBasePane@@UAEXPAV1@@Z 00468dea f   uafxcw:afxbasepane.obj
 0001:00067ebb       ?CreateEx@CBasePane@@UAEHKPB_W0KABUtagRECT@@PAVCWnd@@IKPAUCCreateContext@@@Z 00468ebb f   uafxcw:afxbasepane.obj
 0001:000680e0       ?DoPaint@CBasePane@@MAEXPAVCDC@@@Z 004690e0 f   uafxcw:afxbasepane.obj
 0001:00068185       ?DockPaneUsingRTTI@CBasePane@@QAEXH@Z 00469185 f   uafxcw:afxbasepane.obj
 0001:00068269       ?EnableDocking@CBasePane@@UAEXK@Z 00469269 f i uafxcw:afxbasepane.obj
 0001:00068279       ?GetCurrentAlignment@CBasePane@@UBEKXZ 00469279 f   uafxcw:afxbasepane.obj
 0001:00068285       ?GetDockSiteFrameWnd@CBasePane@@UBEPAVCWnd@@XZ 00469285 f   uafxcw:afxbasepane.obj
 0001:000682ef       ?GetDockingMode@CBasePane@@UBE?AW4AFX_DOCK_TYPE@@XZ 004692ef f   uafxcw:afxbasepane.obj
 0001:000682ff       ?GetMessageMap@CBasePane@@MBEPBUAFX_MSGMAP@@XZ 004692ff f   uafxcw:afxbasepane.obj
 0001:000682ff       ?GetThisMessageMap@CBasePane@@KGPBUAFX_MSGMAP@@XZ 004692ff f   uafxcw:afxbasepane.obj
 0001:00068305       ?GetParentMiniFrame@CBasePane@@UBEPAVCPaneFrameWnd@@H@Z 00469305 f   uafxcw:afxbasepane.obj
 0001:0006835a       ?GetParentTabWnd@CBasePane@@QBEPAVCMFCBaseTabCtrl@@AAPAUHWND__@@@Z 0046935a f   uafxcw:afxbasepane.obj
 0001:000683f4       ?GetParentTabbedPane@CBasePane@@QBEPAVCBaseTabbedPane@@XZ 004693f4 f   uafxcw:afxbasepane.obj
 0001:00068451       ?GetRuntimeClass@CBasePane@@UBEPAUCRuntimeClass@@XZ 00469451 f   uafxcw:afxbasepane.obj
 0001:00068457       ?HandleInitDialog@CBasePane@@IAEJIJ@Z 00469457 f   uafxcw:afxbasepane.obj
 0001:00068481       ?InsertPane@CBasePane@@QAEHPAV1@0H@Z 00469481 f   uafxcw:afxbasepane.obj
 0001:000685d5       ?IsDocked@CBasePane@@UBEHXZ 004695d5 f   uafxcw:afxbasepane.obj
 0001:000685d5       ?IsDocked@CDockablePane@@UBEHXZ 004695d5 f   uafxcw:afxdockablepane.obj
 0001:00068618       ?IsFloating@CBasePane@@UBEHXZ 00469618 f i uafxcw:afxbasepane.obj
 0001:00068638       ?IsMDITabbed@CBasePane@@UBEHXZ 00469638 f   uafxcw:afxbasepane.obj
 0001:0006863f       ?IsPointNearDockSite@CBasePane@@QBEHVCPoint@@AAKAAH@Z 0046963f f   uafxcw:afxbasepane.obj
 0001:00068758       ?IsTabbed@CBasePane@@UBEHXZ 00469758 f   uafxcw:afxbasepane.obj
 0001:00068774       ?IsVisible@CBasePane@@UBEHXZ 00469774 f   uafxcw:afxbasepane.obj
 0001:00068833       ?LoadState@CBasePane@@UAEHPB_WHI@Z 00469833 f   uafxcw:afxbasepane.obj
 0001:00068947       ?MoveWindow@CBasePane@@UAEPAXABVCRect@@HPAX@Z 00469947 f   uafxcw:afxbasepane.obj
 0001:00068a24       ?OnGetObject@CBasePane@@IAEJIJ@Z 00469a24 f   uafxcw:afxbasepane.obj
 0001:00068a68       ?OnIdleUpdateCmdUI@CBasePane@@IAEJIJ@Z 00469a68 f   uafxcw:afxbasepane.obj
 0001:00068ae3       ?OnPaint@CBasePane@@IAEXXZ 00469ae3 f   uafxcw:afxbasepane.obj
 0001:00068b57       ?OnPaneContextMenu@CBasePane@@UAEXPAVCWnd@@VCPoint@@@Z 00469b57 f   uafxcw:afxbasepane.obj
 0001:00068bb5       ?OnPrintClient@CBasePane@@IAEJPAVCDC@@I@Z 00469bb5 f   uafxcw:afxbasepane.obj
 0001:00068c01       ?OnSetIcon@CBasePane@@IAEPAUHICON__@@HPAU2@@Z 00469c01 f   uafxcw:afxbasepane.obj
 0001:00068ca4       ?OnSettingChange@CBasePane@@IAEXIPB_W@Z 00469ca4 f   uafxcw:afxbasepane.obj
 0001:00068cc2       ?OnSize@CBasePane@@IAEXIHH@Z 00469cc2 f   uafxcw:afxbasepane.obj
 0001:00068cec       ?PaneFromPoint@CBasePane@@QBEPAV1@VCPoint@@H_NPAUCRuntimeClass@@@Z 00469cec f   uafxcw:afxbasepane.obj
 0001:00068e12       ?PreTranslateMessage@CBasePane@@UAEHPAUtagMSG@@@Z 00469e12 f   uafxcw:afxbasepane.obj
 0001:00068e9e       ?RemovePaneFromDockManager@CBasePane@@QAEXPAV1@HHH0@Z 00469e9e f   uafxcw:afxbasepane.obj
 0001:00068fc0       ?SaveState@CBasePane@@UAEHPB_WHI@Z 00469fc0 f   uafxcw:afxbasepane.obj
 0001:000690cd       ?Serialize@CBasePane@@UAEXAAVCArchive@@@Z 0046a0cd f   uafxcw:afxbasepane.obj
 0001:00069141       ?SetWindowPos@CBasePane@@UAEPAXPBVCWnd@@HHHHIPAX@Z 0046a141 f   uafxcw:afxbasepane.obj
 0001:000691c9       ?ShowPane@CBasePane@@UAEXHHH@Z 0046a1c9 f   uafxcw:afxbasepane.obj
 0001:000693f7       ?StretchPane@CBasePane@@UAE?AVCSize@@HH@Z 0046a3f7 f i uafxcw:afxbasepane.obj
 0001:00069408       ?WindowProc@CBasePane@@MAEJIIJ@Z 0046a408 f   uafxcw:afxbasepane.obj
 0001:000694ee       ?accHitTest@CBasePane@@UAEJJJPAUtagVARIANT@@@Z 0046a4ee f   uafxcw:afxbasepane.obj
 0001:0006954a       ?accLocation@CBasePane@@UAEJPAJ000UtagVARIANT@@@Z 0046a54a f   uafxcw:afxbasepane.obj
 0001:0006963e       ?get_accChild@CBasePane@@UAEJUtagVARIANT@@PAPAUIDispatch@@@Z 0046a63e f   uafxcw:afxbasepane.obj
 0001:00069668       ?get_accDefaultAction@CBasePane@@UAEJUtagVARIANT@@PAPA_W@Z 0046a668 f   uafxcw:afxbasepane.obj
 0001:000696c2       ?get_accDescription@CBasePane@@UAEJUtagVARIANT@@PAPA_W@Z 0046a6c2 f   uafxcw:afxbasepane.obj
 0001:0006975e       ?get_accHelp@CBasePane@@UAEJUtagVARIANT@@PAPA_W@Z 0046a75e f   uafxcw:afxbasepane.obj
 0001:000697d0       ?get_accKeyboardShortcut@CBasePane@@UAEJUtagVARIANT@@PAPA_W@Z 0046a7d0 f   uafxcw:afxbasepane.obj
 0001:00069852       ?get_accName@CBasePane@@UAEJUtagVARIANT@@PAPA_W@Z 0046a852 f   uafxcw:afxbasepane.obj
 0001:000698ee       ?get_accParent@CBasePane@@UAEJPAPAUIDispatch@@@Z 0046a8ee f   uafxcw:afxbasepane.obj
 0001:00069931       ?get_accRole@CBasePane@@UAEJUtagVARIANT@@PAU2@@Z 0046a931 f   uafxcw:afxbasepane.obj
 0001:00069998       ?get_accState@CBasePane@@UAEJUtagVARIANT@@PAU2@@Z 0046a998 f   uafxcw:afxbasepane.obj
 0001:00069a17       ?get_accValue@CBasePane@@UAEJUtagVARIANT@@PAPA_W@Z 0046aa17 f   uafxcw:afxbasepane.obj
 0001:00069a67       ??0CPane@@IAE@XZ           0046aa67 f   uafxcw:afxpane.obj
 0001:00069bc3       ??1CPane@@UAE@XZ           0046abc3 f   uafxcw:afxpane.obj
 0001:00069bfb       ??_ECPane@@UAEPAXI@Z       0046abfb f i uafxcw:afxpane.obj
 0001:00069bfb       ??_GCPane@@UAEPAXI@Z       0046abfb f i uafxcw:afxpane.obj
 0001:00069c2e       ?AdjustSizeImmediate@CPane@@UAEXH@Z 0046ac2e f   uafxcw:afxpane.obj
 0001:00069d5c       ?CalcAvailableSize@CPane@@UAE?AVCSize@@VCRect@@@Z 0046ad5c f   uafxcw:afxpane.obj
 0001:00069e0e       ?CalcInsideRect@CPane@@QBEXAAVCRect@@H@Z 0046ae0e f   uafxcw:afxpane.obj
 0001:00069f29       ?CalcRecentDockedRect@CPane@@QAEXXZ 0046af29 f   uafxcw:afxpane.obj
 0001:00069f88       ?CalcSize@CPane@@UAE?AVCSize@@H@Z 0046af88 f i uafxcw:afxpane.obj
 0001:00069f88       ?GetImageSize@CMFCRibbonBaseElement@@UBE?AVCSize@@W4RibbonImageType@1@@Z 0046af88 f i uafxcw:afxbaseribbonelement.obj
 0001:00069f88       ?GetNcBtnSize@CMFCVisualManager@@UBE?AVCSize@@H@Z 0046af88 f i uafxcw:afxvisualmanager.obj
 0001:00069f88       ?GetRegularSize@CMFCRibbonTab@@UAE?AVCSize@@PAVCDC@@@Z 0046af88 f i uafxcw:afxribboncategory.obj
 0001:00069f99       ?CanBeTabbedDocument@CPane@@UBEHXZ 0046af99 f   uafxcw:afxpane.obj
 0001:00069ffd       ?CopyState@CPane@@UAEXPAV1@@Z 0046affd f   uafxcw:afxpane.obj
 0001:0006a089       ?Create@CPane@@UAEHPB_WKABUtagRECT@@PAVCWnd@@IKPAUCCreateContext@@@Z 0046b089 f   uafxcw:afxpane.obj
 0001:0006a0ac       ?CreateDefaultMiniframe@CPane@@UAEPAVCPaneFrameWnd@@VCRect@@@Z 0046b0ac f   uafxcw:afxpane.obj
 0001:0006a161       ?CreateEx@CPane@@UAEHKPB_WKABUtagRECT@@PAVCWnd@@IKPAUCCreateContext@@@Z 0046b161 f   uafxcw:afxpane.obj
 0001:0006a2cf       ?CreateObject@CPane@@SGPAVCObject@@XZ 0046b2cf f   uafxcw:afxpane.obj
 0001:0006a2ff       ?Dock@CPane@@MAEHPAVCBasePane@@PBUtagRECT@@W4AFX_DOCK_METHOD@@@Z 0046b2ff f   uafxcw:afxpane.obj
 0001:0006a4ad       ?DockByMouse@CPane@@UAEHPAVCBasePane@@@Z 0046b4ad f   uafxcw:afxpane.obj
 0001:0006a51b       ?DockPane@CPane@@UAEHPAVCBasePane@@PBUtagRECT@@W4AFX_DOCK_METHOD@@@Z 0046b51b f   uafxcw:afxpane.obj
 0001:0006a58f       ?EnterDragMode@CPane@@MAEXH@Z 0046b58f f   uafxcw:afxpane.obj
 0001:0006a649       ?FloatPane@CPane@@UAEHVCRect@@W4AFX_DOCK_METHOD@@_N@Z 0046b649 f   uafxcw:afxpane.obj
 0001:0006ab99       ?GetAvailableExpandSize@CPane@@UBEHXZ 0046bb99 f   uafxcw:afxpane.obj
 0001:0006ac74       ?GetAvailableStretchSize@CPane@@UBEHXZ 0046bc74 f   uafxcw:afxpane.obj
 0001:0006acfb       ?GetMessageMap@CPane@@MBEPBUAFX_MSGMAP@@XZ 0046bcfb f   uafxcw:afxpane.obj
 0001:0006acfb       ?GetThisMessageMap@CPane@@KGPBUAFX_MSGMAP@@XZ 0046bcfb f   uafxcw:afxpane.obj
 0001:0006ad01       ?GetMinSize@CPane@@UBEXAAVCSize@@@Z 0046bd01 f i uafxcw:afxpane.obj
 0001:0006ad1c       ?GetPaneName@CPane@@UBEXAAV?$CStringT@_WV?$StrTraitMFC@_WV?$ChTraitsCRT@_W@ATL@@@@@ATL@@@Z 0046bd1c f   uafxcw:afxpane.obj
 0001:0006ad33       ?GetRuntimeClass@CPane@@UBEPAUCRuntimeClass@@XZ 0046bd33 f   uafxcw:afxpane.obj
 0001:0006ad39       ?GetVirtualRect@CPane@@QBEXAAVCRect@@@Z 0046bd39 f   uafxcw:afxpane.obj
 0001:0006ad64       ?IsChangeState@CPane@@UBE?AW4AFX_CS_STATUS@@HPAPAVCBasePane@@@Z 0046bd64 f   uafxcw:afxpane.obj
 0001:0006b023       ?IsLeftOf@CPane@@QBE_NVCRect@@_N@Z 0046c023 f   uafxcw:afxpane.obj
 0001:0006b0b2       ?IsTabbed@CPane@@UBEHXZ    0046c0b2 f   uafxcw:afxpane.obj
 0001:0006b129       ?LoadState@CPane@@UAEHPB_WHI@Z 0046c129 f   uafxcw:afxpane.obj
 0001:0006b326       ?MoveByAlignment@CPane@@QAEHKH@Z 0046c326 f   uafxcw:afxpane.obj
 0001:0006b403       ?MovePane@CPane@@UAE?AVCSize@@VCRect@@HAAPAX@Z 0046c403 f   uafxcw:afxpane.obj
 0001:0006b564       ?OnAfterChangeParent@CPane@@UAEXPAVCWnd@@@Z 0046c564 f   uafxcw:afxpane.obj
 0001:0006b59b       ?OnAfterFloat@CPane@@UAEXXZ 0046c59b f   uafxcw:afxpane.obj
 0001:0006b609       ?OnBeforeChangeParent@CPane@@UAEXPAVCWnd@@H@Z 0046c609 f   uafxcw:afxpane.obj
 0001:0006b631       ?OnBeforeDock@CPane@@MAEHPAPAVCBasePane@@PBUtagRECT@@W4AFX_DOCK_METHOD@@@Z 0046c631 f   uafxcw:afxpane.obj
 0001:0006b663       ?OnCancelMode@CPane@@IAEXXZ 0046c663 f   uafxcw:afxpane.obj
 0001:0006b6e8       ?OnChar@CPane@@IAEXIII@Z   0046c6e8 f   uafxcw:afxpane.obj
 0001:0006b705       ?OnContextMenu@CPane@@IAEXPAVCWnd@@VCPoint@@@Z 0046c705 f   uafxcw:afxpane.obj
 0001:0006b78c       ?OnContinueMoving@CPane@@MAEXXZ 0046c78c f   uafxcw:afxpane.obj
 0001:0006b7a9       ?OnDestroy@CPane@@IAEXXZ   0046c7a9 f   uafxcw:afxpane.obj
 0001:0006b853       ?OnLButtonDblClk@CPane@@IAEXIVCPoint@@@Z 0046c853 f   uafxcw:afxpane.obj
 0001:0006b8b8       ?OnLButtonDown@CPane@@IAEXIVCPoint@@@Z 0046c8b8 f   uafxcw:afxpane.obj
 0001:0006b9f5       ?OnLButtonUp@CPane@@IAEXIVCPoint@@@Z 0046c9f5 f   uafxcw:afxpane.obj
 0001:0006bc12       ?OnMouseMove@CPane@@IAEXIVCPoint@@@Z 0046cc12 f   uafxcw:afxpane.obj
